	.cpu generic+fp+simd
	.file	"h264.c"
	.text
.Ltext0:
	.cfi_sections	.debug_frame
#APP
	.irp	num,0,1,2,3,4,5,6,7,8,9,10,11,12,13,14,15,16,17,18,19,20,21,22,23,24,25,26,27,28,29,30
	.equ	__reg_num_x\num, \num
	.endr
	.equ	__reg_num_xzr, 31

	.macro	mrs_s, rt, sreg
	.inst	0xd5200000|(\sreg)|(__reg_num_\rt)
	.endm

	.macro	msr_s, sreg, rt
	.inst	0xd5000000|(\sreg)|(__reg_num_\rt)
	.endm

#NO_APP
	.align	2
	.global	IsSTRefFlg
	.type	IsSTRefFlg, %function
IsSTRefFlg:
.LFB2174:
	.file 1 "/home/jenkins/slave-135/workspace/chipset_component_CHICAGO_B100_Open_Source/component_code/vendor/huawei/extra/build/build_script/austin_kernel_release/kernel/drivers/vcodec/hi_vcodec/vdec/vfmw/vfmw_v4.0/firmware/common/syntax/h264.c"
	.loc 1 3982 0
	.cfi_startproc
.LVL0:
	.loc 1 3983 0
	ldr	w0, [x0]
.LVL1:
	and	w0, w0, 16776960
	cmp	w0, 65536
	.loc 1 3984 0
	cset	w0, eq
	ret
	.cfi_endproc
.LFE2174:
	.size	IsSTRefFlg, .-IsSTRefFlg
	.align	2
	.global	IsLTRefFlg
	.type	IsLTRefFlg, %function
IsLTRefFlg:
.LFB2175:
	.loc 1 3996 0
	.cfi_startproc
.LVL2:
	.loc 1 3997 0
	ldr	w0, [x0]
.LVL3:
	and	w0, w0, 16776960
	cmp	w0, 256
	.loc 1 3998 0
	cset	w0, eq
	ret
	.cfi_endproc
.LFE2175:
	.size	IsLTRefFlg, .-IsLTRefFlg
	.align	2
	.global	compare_pic_by_pic_num_desc
	.type	compare_pic_by_pic_num_desc, %function
compare_pic_by_pic_num_desc:
.LFB2176:
	.loc 1 4012 0
	.cfi_startproc
.LVL4:
	.loc 1 4013 0
	ldr	x2, [x0]
	ldr	x0, [x1]
.LVL5:
	ldr	w2, [x2,8]
	ldr	w1, [x0,8]
.LVL6:
	cmp	w2, w1
	.loc 1 4018 0
	csetm	w0, gt
	cmp	w2, w1
	csinc	w0, w0, wzr, ge
	.loc 1 4026 0
	ret
	.cfi_endproc
.LFE2176:
	.size	compare_pic_by_pic_num_desc, .-compare_pic_by_pic_num_desc
	.align	2
	.global	compare_pic_by_lt_pic_num_asc
	.type	compare_pic_by_lt_pic_num_asc, %function
compare_pic_by_lt_pic_num_asc:
.LFB2177:
	.loc 1 4038 0
	.cfi_startproc
.LVL7:
	.loc 1 4039 0
	ldr	x2, [x0]
	ldr	x0, [x1]
.LVL8:
	ldr	w2, [x2,4]
	ldr	w1, [x0,4]
.LVL9:
	cmp	w2, w1
	.loc 1 4044 0
	cset	w0, gt
	cmp	w2, w1
	csinv	w0, w0, wzr, ge
	.loc 1 4052 0
	ret
	.cfi_endproc
.LFE2177:
	.size	compare_pic_by_lt_pic_num_asc, .-compare_pic_by_lt_pic_num_asc
	.align	2
	.global	compare_fs_by_frame_num_desc
	.type	compare_fs_by_frame_num_desc, %function
compare_fs_by_frame_num_desc:
.LFB2178:
	.loc 1 4064 0
	.cfi_startproc
.LVL10:
	.loc 1 4065 0
	ldr	x2, [x0]
	ldr	x0, [x1]
.LVL11:
	ldr	w2, [x2,296]
	ldr	w1, [x0,296]
.LVL12:
	cmp	w2, w1
	.loc 1 4070 0
	csetm	w0, gt
	cmp	w2, w1
	csinc	w0, w0, wzr, ge
	.loc 1 4078 0
	ret
	.cfi_endproc
.LFE2178:
	.size	compare_fs_by_frame_num_desc, .-compare_fs_by_frame_num_desc
	.align	2
	.global	compare_fs_by_lt_pic_idx_asc
	.type	compare_fs_by_lt_pic_idx_asc, %function
compare_fs_by_lt_pic_idx_asc:
.LFB2179:
	.loc 1 4090 0
	.cfi_startproc
.LVL13:
	.loc 1 4091 0
	ldr	x2, [x0]
	ldr	x0, [x1]
.LVL14:
	ldr	w2, [x2,300]
	ldr	w1, [x0,300]
.LVL15:
	cmp	w2, w1
	.loc 1 4096 0
	cset	w0, hi
	cmp	w2, w1
	csinv	w0, w0, wzr, cs
	.loc 1 4104 0
	ret
	.cfi_endproc
.LFE2179:
	.size	compare_fs_by_lt_pic_idx_asc, .-compare_fs_by_lt_pic_idx_asc
	.align	2
	.global	compare_pic_by_poc_asc
	.type	compare_pic_by_poc_asc, %function
compare_pic_by_poc_asc:
.LFB2180:
	.loc 1 4116 0
	.cfi_startproc
.LVL16:
	.loc 1 4117 0
	ldr	x2, [x0]
	ldr	x0, [x1]
.LVL17:
	ldr	w2, [x2,12]
	ldr	w1, [x0,12]
.LVL18:
	cmp	w2, w1
	.loc 1 4122 0
	cset	w0, gt
	cmp	w2, w1
	csinv	w0, w0, wzr, ge
	.loc 1 4130 0
	ret
	.cfi_endproc
.LFE2180:
	.size	compare_pic_by_poc_asc, .-compare_pic_by_poc_asc
	.align	2
	.global	compare_pic_by_poc_desc
	.type	compare_pic_by_poc_desc, %function
compare_pic_by_poc_desc:
.LFB2181:
	.loc 1 4142 0
	.cfi_startproc
.LVL19:
	.loc 1 4143 0
	ldr	x2, [x0]
	ldr	x0, [x1]
.LVL20:
	ldr	w2, [x2,12]
	ldr	w1, [x0,12]
.LVL21:
	cmp	w2, w1
	.loc 1 4148 0
	csetm	w0, gt
	cmp	w2, w1
	csinc	w0, w0, wzr, ge
	.loc 1 4156 0
	ret
	.cfi_endproc
.LFE2181:
	.size	compare_pic_by_poc_desc, .-compare_pic_by_poc_desc
	.align	2
	.global	compare_fs_by_poc_asc
	.type	compare_fs_by_poc_asc, %function
compare_fs_by_poc_asc:
.LFB2182:
	.loc 1 4168 0
	.cfi_startproc
.LVL22:
	.loc 1 4169 0
	ldr	x2, [x0]
	ldr	x0, [x1]
.LVL23:
	ldr	w2, [x2,304]
	ldr	w1, [x0,304]
.LVL24:
	cmp	w2, w1
	.loc 1 4174 0
	cset	w0, gt
	cmp	w2, w1
	csinv	w0, w0, wzr, ge
	.loc 1 4182 0
	ret
	.cfi_endproc
.LFE2182:
	.size	compare_fs_by_poc_asc, .-compare_fs_by_poc_asc
	.align	2
	.global	compare_fs_by_poc_desc
	.type	compare_fs_by_poc_desc, %function
compare_fs_by_poc_desc:
.LFB2183:
	.loc 1 4194 0
	.cfi_startproc
.LVL25:
	.loc 1 4195 0
	ldr	x2, [x0]
	ldr	x0, [x1]
.LVL26:
	ldr	w2, [x2,304]
	ldr	w1, [x0,304]
.LVL27:
	cmp	w2, w1
	.loc 1 4200 0
	csetm	w0, gt
	cmp	w2, w1
	csinc	w0, w0, wzr, ge
	.loc 1 4208 0
	ret
	.cfi_endproc
.LFE2183:
	.size	compare_fs_by_poc_desc, .-compare_fs_by_poc_desc
	.align	2
	.type	SetFrmRepeatCount.part.1, %function
SetFrmRepeatCount.part.1:
.LFB2257:
	.loc 1 1615 0
	.cfi_startproc
.LVL28:
	.loc 1 1619 0
	add	x3, x0, 57344
	add	x0, x0, 32768
.LVL29:
	ldr	w2, [x3,696]
	ldr	w4, [x0,2096]
	ldr	w0, [x3,692]
	add	w2, w4, w2, lsr 1
	lsr	w0, w0, 1
	add	w4, w2, 1
	cmp	w0, w4
	bcc	.L28
	sub	w0, w0, #1
	.loc 1 1621 0
	sub	w0, w0, w2
	cmp	w0, 1
	bls	.L29
	.loc 1 1623 0
	mov	w0, 2
	str	w0, [x1,24]
	.loc 1 1624 0
	ldr	w0, [x3,696]
	add	w0, w0, 4
	str	w0, [x3,696]
	.loc 1 1643 0
	ret
.L28:
	.loc 1 1634 0
	str	wzr, [x1,24]
	.loc 1 1643 0
	ret
.L29:
	.loc 1 1628 0
	mov	w0, 1
	str	w0, [x1,24]
	.loc 1 1629 0
	ldr	w0, [x3,696]
	add	w0, w0, 2
	str	w0, [x3,696]
	.loc 1 1643 0
	ret
	.cfi_endproc
.LFE2257:
	.size	SetFrmRepeatCount.part.1, .-SetFrmRepeatCount.part.1
	.align	2
	.type	DumpList.part.5, %function
DumpList.part.5:
.LFB2261:
	.loc 1 4577 0
	.cfi_startproc
.LVL30:
	stp	x29, x30, [sp, -96]!
	.cfi_def_cfa_offset 96
	.cfi_offset 29, -96
	.cfi_offset 30, -88
	add	x29, sp, 0
	.cfi_def_cfa_register 29
	stp	x23, x24, [sp,48]
	.cfi_offset 23, -48
	.cfi_offset 24, -40
	add	x23, x0, 32768
	str	x27, [sp,80]
	stp	x21, x22, [sp,32]
	stp	x25, x26, [sp,64]
	add	x24, x23, 2512
	.cfi_offset 27, -16
	.cfi_offset 21, -64
	.cfi_offset 22, -56
	.cfi_offset 25, -32
	.cfi_offset 26, -24
	add	x25, x0, 28672
	.loc 1 4590 0
	adrp	x22, .LC0
	add	x27, x25, 100
	.loc 1 4577 0
	stp	x19, x20, [sp,16]
	.cfi_offset 19, -80
	.cfi_offset 20, -72
	.loc 1 4586 0 discriminator 1
	mov	x26, x24
	mov	w21, 0
	.loc 1 4590 0
	add	x22, x22, :lo12:.LC0
.L33:
	.loc 1 4588 0 discriminator 1
	ldr	w0, [x27]
.LVL31:
	mov	x20, x26
	mov	w19, 0
	cbz	w0, .L36
.L34:
	.loc 1 4590 0
	ldr	x4, [x20],8
	mov	w3, w19
	mov	w0, 13
	mov	x1, x22
	mov	w2, w21
	.loc 1 4588 0 discriminator 3
	add	w19, w19, 1
	.loc 1 4590 0
	ldr	x5, [x4,32]
	ldr	w4, [x5,292]
	ldr	w5, [x5,304]
	bl	dprint_linux_kernel
.LVL32:
	.loc 1 4588 0 discriminator 1
	ldr	w0, [x27]
	cmp	w19, w0
	bcc	.L34
.L36:
	add	x27, x27, 4
	add	x26, x26, 264
	.loc 1 4586 0 discriminator 1
	cbnz	w21, .L35
	mov	w21, 1
	b	.L33
.L35:
	.loc 1 4595 0
	ldr	w0, [x25,100]
	cbnz	w0, .L65
.L37:
	.loc 1 4618 0
	ldr	w0, [x25,104]
	cbnz	w0, .L66
	.loc 1 4641 0
	ldp	x19, x20, [sp,16]
	.cfi_remember_state
	.cfi_restore 20
	.cfi_restore 19
	ldp	x21, x22, [sp,32]
	.cfi_restore 22
	.cfi_restore 21
	ldp	x23, x24, [sp,48]
	.cfi_restore 24
	.cfi_restore 23
	ldp	x25, x26, [sp,64]
	.cfi_restore 26
	.cfi_restore 25
	ldr	x27, [sp,80]
	.cfi_restore 27
	ldp	x29, x30, [sp], 96
	.cfi_restore 30
	.cfi_restore 29
	.cfi_def_cfa 31, 0
	ret
.L66:
	.cfi_restore_state
	.loc 1 4620 0
	adrp	x1, .LC6
	mov	w0, 13
	add	x1, x1, :lo12:.LC6
	add	x23, x23, 2776
	.loc 1 4621 0 discriminator 1
	mov	w19, 0
	.loc 1 4620 0
	bl	dprint_linux_kernel
.LVL33:
	.loc 1 4621 0 discriminator 1
	ldr	w0, [x25,104]
	cbz	w0, .L51
	.loc 1 4626 0
	adrp	x22, .LC3
	.loc 1 4632 0
	adrp	x20, .LC5
	.loc 1 4629 0
	adrp	x21, .LC4
	.loc 1 4626 0
	add	x22, x22, :lo12:.LC3
	.loc 1 4632 0
	add	x20, x20, :lo12:.LC5
	.loc 1 4629 0
	add	x21, x21, :lo12:.LC4
	b	.L58
.L67:
	.loc 1 4623 0
	cmp	w5, 2
	cbz	w5, .L48
	.loc 1 4632 0
	mov	w0, 13
	mov	x1, x20
	.loc 1 4623 0
	bne	.L46
	.loc 1 4632 0
	ldr	x2, [x2,32]
	ldr	w2, [x2,304]
	bl	dprint_linux_kernel
.LVL34:
.L46:
	.loc 1 4621 0 discriminator 1
	ldr	w0, [x25,104]
	.loc 1 4621 0 is_stmt 0 discriminator 2
	add	w19, w19, 1
	add	x23, x23, 8
	.loc 1 4621 0 discriminator 1
	cmp	w19, w0
	bcs	.L51
.L58:
	.loc 1 4623 0 is_stmt 1
	ldr	x2, [x23]
	ldrb	w5, [x2]
	cmp	w5, 1
	bne	.L67
	.loc 1 4629 0
	ldr	x2, [x2,32]
	mov	x1, x21
	mov	w0, 13
	.loc 1 4621 0 discriminator 2
	add	w19, w19, 1
	add	x23, x23, 8
	.loc 1 4629 0
	ldr	w2, [x2,304]
	bl	dprint_linux_kernel
.LVL35:
	.loc 1 4621 0 discriminator 1
	ldr	w0, [x25,104]
	cmp	w19, w0
	bcc	.L58
.L51:
	.loc 1 4638 0
	adrp	x1, .LC2
	mov	w0, 13
	add	x1, x1, :lo12:.LC2
	bl	dprint_linux_kernel
.LVL36:
	.loc 1 4641 0
	ldr	x27, [sp,80]
	.cfi_remember_state
	.cfi_restore 27
	ldp	x19, x20, [sp,16]
	.cfi_restore 19
	.cfi_restore 20
	ldp	x21, x22, [sp,32]
	.cfi_restore 21
	.cfi_restore 22
	ldp	x23, x24, [sp,48]
	.cfi_restore 23
	.cfi_restore 24
	ldp	x25, x26, [sp,64]
	.cfi_restore 25
	.cfi_restore 26
	ldp	x29, x30, [sp], 96
	.cfi_restore 29
	.cfi_restore 30
	.cfi_def_cfa 31, 0
	ret
.L48:
	.cfi_restore_state
	.loc 1 4626 0
	ldr	x2, [x2,32]
	mov	x1, x22
	mov	w0, 13
	ldr	w2, [x2,304]
	bl	dprint_linux_kernel
.LVL37:
	b	.L46
.L65:
	.loc 1 4597 0
	adrp	x1, .LC1
	mov	w0, 13
	add	x1, x1, :lo12:.LC1
	.loc 1 4598 0 discriminator 1
	mov	w19, 0
	.loc 1 4597 0
	bl	dprint_linux_kernel
.LVL38:
	.loc 1 4598 0 discriminator 1
	ldr	w0, [x25,100]
	cbz	w0, .L43
	.loc 1 4603 0
	adrp	x22, .LC3
	.loc 1 4609 0
	adrp	x20, .LC5
	.loc 1 4606 0
	adrp	x21, .LC4
	.loc 1 4603 0
	add	x22, x22, :lo12:.LC3
	.loc 1 4609 0
	add	x20, x20, :lo12:.LC5
	.loc 1 4606 0
	add	x21, x21, :lo12:.LC4
	b	.L59
.L68:
	.loc 1 4600 0
	cmp	w0, 2
	cbz	w0, .L41
	.loc 1 4609 0
	mov	w0, 13
	mov	x1, x20
	.loc 1 4600 0
	bne	.L39
	.loc 1 4609 0
	ldr	x2, [x2,32]
	ldr	w2, [x2,304]
	bl	dprint_linux_kernel
.LVL39:
.L39:
	.loc 1 4598 0 discriminator 1
	ldr	w0, [x25,100]
	.loc 1 4598 0 is_stmt 0 discriminator 2
	add	w19, w19, 1
	add	x24, x24, 8
	.loc 1 4598 0 discriminator 1
	cmp	w19, w0
	bcs	.L43
.L59:
	.loc 1 4600 0 is_stmt 1
	ldr	x2, [x24]
	ldrb	w0, [x2]
	cmp	w0, 1
	bne	.L68
	.loc 1 4606 0
	ldr	x2, [x2,32]
	mov	x1, x21
	mov	w0, 13
	.loc 1 4598 0 discriminator 2
	add	w19, w19, 1
	add	x24, x24, 8
	.loc 1 4606 0
	ldr	w2, [x2,304]
	bl	dprint_linux_kernel
.LVL40:
	.loc 1 4598 0 discriminator 1
	ldr	w0, [x25,100]
	cmp	w19, w0
	bcc	.L59
.L43:
	.loc 1 4615 0
	adrp	x1, .LC2
	mov	w0, 13
	add	x1, x1, :lo12:.LC2
	bl	dprint_linux_kernel
.LVL41:
	b	.L37
.L41:
	.loc 1 4603 0
	ldr	x2, [x2,32]
	mov	x1, x22
	mov	w0, 13
	ldr	w2, [x2,304]
	bl	dprint_linux_kernel
.LVL42:
	b	.L39
	.cfi_endproc
.LFE2261:
	.size	DumpList.part.5, .-DumpList.part.5
	.align	2
	.type	CombinePacket.part.10, %function
CombinePacket.part.10:
.LFB2266:
	.loc 1 10775 0
	.cfi_startproc
.LVL43:
	stp	x29, x30, [sp, -32]!
	.cfi_def_cfa_offset 32
	.cfi_offset 29, -32
	.cfi_offset 30, -24
	.loc 1 10782 0
	adrp	x1, .LC7
	.loc 1 10775 0
	add	x29, sp, 0
	.cfi_def_cfa_register 29
	stp	x19, x20, [sp,16]
	.cfi_offset 19, -16
	.cfi_offset 20, -8
	.loc 1 10782 0
	add	x1, x1, :lo12:.LC7
	.loc 1 10775 0
	mov	x19, x0
	.loc 1 10782 0
	mov	w0, 7
.LVL44:
	bl	dprint_linux_kernel
.LVL45:
	.loc 1 10785 0
	ldr	x2, [x19,648]
	adrp	x1, .LC8
	add	x1, x1, :lo12:.LC8
	mov	w0, 7
	ldr	w5, [x2,48]
	ldr	w4, [x2,16]
	ldr	w3, [x2,52]
	ldr	w2, [x2,20]
	bl	dprint_linux_kernel
.LVL46:
	.loc 1 10788 0
	ldr	x1, [x19,648]
	ldr	w0, [x1,16]
	ldr	x3, [x1,40]
	ldr	x1, [x1,8]
	mov	x2, x0
	sub	x0, x3, x0
	bl	memcpy
.LVL47:
	.loc 1 10791 0
	ldr	x2, [x19,648]
	.loc 1 10798 0
	adrp	x1, .LC9
	add	x1, x1, :lo12:.LC9
	mov	w0, 7
	.loc 1 10792 0
	ldr	w3, [x2,68]
	.loc 1 10791 0
	ldr	w20, [x2,36]
	.loc 1 10792 0
	str	w3, [x2,36]
	.loc 1 10793 0
	ldr	x2, [x19,648]
	str	wzr, [x2,28]
	.loc 1 10794 0
	ldr	x2, [x19,648]
	ldr	w4, [x2,16]
	ldr	x3, [x2,40]
	sub	x3, x3, x4
	str	x3, [x2,8]
	.loc 1 10795 0
	ldr	x2, [x19,648]
	ldr	w4, [x2,16]
	ldr	w3, [x2,52]
	sub	w3, w3, w4
	str	w3, [x2,20]
	.loc 1 10796 0
	ldr	x2, [x19,648]
	ldr	w4, [x2,16]
	ldr	w3, [x2,48]
	add	w3, w4, w3
	str	w3, [x2,16]
	.loc 1 10797 0
	mov	w3, 1
	ldr	x2, [x19,648]
	str	w3, [x2,76]
	.loc 1 10798 0
	ldr	x3, [x19,648]
	ldr	w2, [x3,20]
	ldr	w3, [x3,16]
	bl	dprint_linux_kernel
.LVL48:
	.loc 1 10800 0
	add	x0, x19, 57344
.LVL49:
	mov	w1, w20
	ldr	w0, [x0,676]
	bl	SM_ReleaseStreamSeg
.LVL50:
	.loc 1 10801 0
	ldr	x0, [x19,648]
	str	xzr, [x0,40]
	.loc 1 10802 0
	ldr	x0, [x19,648]
	str	wzr, [x0,60]
	.loc 1 10803 0
	ldr	x0, [x19,648]
	str	wzr, [x0,48]
	.loc 1 10805 0
	ldp	x19, x20, [sp,16]
	.cfi_restore 20
	.cfi_restore 19
.LVL51:
	ldp	x29, x30, [sp], 32
	.cfi_restore 30
	.cfi_restore 29
	.cfi_def_cfa 31, 0
	ret
	.cfi_endproc
.LFE2266:
	.size	CombinePacket.part.10, .-CombinePacket.part.10
	.align	2
	.global	ue_v
	.type	ue_v, %function
ue_v:
.LFB2114:
	.loc 1 120 0
	.cfi_startproc
.LVL52:
	stp	x29, x30, [sp, -64]!
	.cfi_def_cfa_offset 64
	.cfi_offset 29, -64
	.cfi_offset 30, -56
	add	x29, sp, 0
	.cfi_def_cfa_register 29
	stp	x19, x20, [sp,16]
	.cfi_offset 19, -48
	.cfi_offset 20, -40
	.loc 1 126 0
	add	x20, x0, 20480
	add	x20, x20, 1080
	.loc 1 120 0
	stp	x23, x24, [sp,48]
	.cfi_offset 23, -16
	.cfi_offset 24, -8
	mov	x23, x0
	mov	x24, x1
	.loc 1 126 0
	mov	x0, x20
.LVL53:
	mov	w1, 32
.LVL54:
	.loc 1 120 0
	stp	x21, x22, [sp,32]
	.cfi_offset 21, -32
	.cfi_offset 22, -24
	.loc 1 126 0
	bl	BsShow
.LVL55:
	mov	w19, w0
	.loc 1 127 0
	bl	ZerosMS_32
.LVL56:
	.loc 1 128 0
	cmp	w0, 15
	.loc 1 127 0
	mov	w21, w0
.LVL57:
	.loc 1 128 0
	bls	.L74
.LVL58:
	.loc 1 135 0
	cmp	w0, 31
	bls	.L75
	.loc 1 146 0
	add	x0, x23, 57344
	mov	w1, 1
	.loc 1 147 0
	mov	w19, -1
.LVL59:
	.loc 1 148 0
	mov	w22, 32
.LVL60:
	.loc 1 146 0
	str	w1, [x0,616]
.L72:
	.loc 1 154 0
	ldr	x21, [x23,648]
.LVL61:
	.loc 1 156 0
	adrp	x1, .LC10
	mov	x2, x24
	mov	w3, w19
	add	x1, x1, :lo12:.LC10
	mov	w0, 21
	.loc 1 154 0
	ldr	w4, [x21,72]
	add	w22, w4, w22
.LVL62:
	str	w22, [x21,72]
	.loc 1 156 0
	bl	dprint_linux_kernel
.LVL63:
	.loc 1 159 0
	mov	w0, w19
	ldp	x19, x20, [sp,16]
	.cfi_remember_state
	.cfi_restore 20
	.cfi_restore 19
.LVL64:
	ldp	x21, x22, [sp,32]
	.cfi_restore 22
	.cfi_restore 21
	ldp	x23, x24, [sp,48]
	.cfi_restore 24
	.cfi_restore 23
.LVL65:
	ldp	x29, x30, [sp], 64
	.cfi_restore 30
	.cfi_restore 29
	.cfi_def_cfa 31, 0
	ret
.LVL66:
.L74:
	.cfi_restore_state
	.loc 1 130 0
	lsl	w21, w0, 1
.LVL67:
	mov	w0, 31
.LVL68:
	add	w22, w21, 1
.LVL69:
	sub	w21, w0, w21
	.loc 1 131 0
	mov	w1, w22
	mov	x0, x20
	.loc 1 130 0
	lsr	w19, w19, w21
	sub	w19, w19, #1
.LVL70:
	.loc 1 131 0
	bl	BsSkip
.LVL71:
	b	.L72
.LVL72:
.L75:
	.loc 1 138 0
	mov	w1, w0
	mov	x0, x20
.LVL73:
	.loc 1 139 0
	add	w22, w21, 1
	.loc 1 138 0
	bl	BsSkip
.LVL74:
	.loc 1 139 0
	mov	w1, w22
	mov	x0, x20
	bl	BsShow
.LVL75:
	sub	w19, w0, #1
.LVL76:
	.loc 1 140 0
	mov	w1, w22
	mov	x0, x20
	bl	BsSkip
.LVL77:
	.loc 1 141 0
	lsl	w0, w21, 1
	add	w22, w0, 1
.LVL78:
	b	.L72
	.cfi_endproc
.LFE2114:
	.size	ue_v, .-ue_v
	.align	2
	.global	se_v
	.type	se_v, %function
se_v:
.LFB2115:
	.loc 1 172 0
	.cfi_startproc
.LVL79:
	stp	x29, x30, [sp, -64]!
	.cfi_def_cfa_offset 64
	.cfi_offset 29, -64
	.cfi_offset 30, -56
	add	x29, sp, 0
	.cfi_def_cfa_register 29
	stp	x19, x20, [sp,16]
	.cfi_offset 19, -48
	.cfi_offset 20, -40
	.loc 1 179 0
	add	x20, x0, 20480
	add	x20, x20, 1080
	.loc 1 172 0
	stp	x21, x22, [sp,32]
	stp	x23, x24, [sp,48]
	.cfi_offset 21, -32
	.cfi_offset 22, -24
	.cfi_offset 23, -16
	.cfi_offset 24, -8
	.loc 1 172 0
	mov	x22, x1
	mov	x23, x0
	.loc 1 179 0
	mov	w1, 32
.LVL80:
	mov	x0, x20
.LVL81:
	bl	BsShow
.LVL82:
	mov	w21, w0
	.loc 1 180 0
	bl	ZerosMS_32
.LVL83:
	.loc 1 182 0
	cmp	w0, 15
	.loc 1 180 0
	mov	w19, w0
.LVL84:
	.loc 1 182 0
	bhi	.L77
.LVL85:
.LBB99:
	.loc 1 184 0
	lsl	w19, w0, 1
	mov	w3, 31
	sub	w3, w3, w19
	add	w19, w19, 1
.LVL86:
	lsr	w3, w21, w3
.LBE99:
	.loc 1 185 0
	mov	x0, x20
.LVL87:
.LBB100:
	.loc 1 184 0
	and	w21, w3, 1
.LBE100:
	.loc 1 185 0
	mov	w1, w19
	neg	w2, w21
	eor	w3, w2, w3, lsr 1
	add	w21, w3, w21
	bl	BsSkip
.LVL88:
.L78:
	.loc 1 207 0
	ldr	x4, [x23,648]
	.loc 1 208 0
	adrp	x1, .LC10
	mov	x2, x22
	mov	w3, w21
	add	x1, x1, :lo12:.LC10
	mov	w0, 21
	.loc 1 207 0
	ldr	w5, [x4,72]
	add	w19, w5, w19
.LVL89:
	str	w19, [x4,72]
	.loc 1 208 0
	bl	dprint_linux_kernel
.LVL90:
	.loc 1 211 0
	mov	w0, w21
	ldp	x19, x20, [sp,16]
	.cfi_remember_state
	.cfi_restore 20
	.cfi_restore 19
	ldp	x21, x22, [sp,32]
	.cfi_restore 22
	.cfi_restore 21
.LVL91:
	ldp	x23, x24, [sp,48]
	.cfi_restore 24
	.cfi_restore 23
.LVL92:
	ldp	x29, x30, [sp], 64
	.cfi_restore 30
	.cfi_restore 29
	.cfi_def_cfa 31, 0
	ret
.LVL93:
.L77:
	.cfi_restore_state
	.loc 1 190 0
	cmp	w0, 31
	bls	.L80
	.loc 1 201 0
	add	x0, x23, 57344
	mov	w1, 1
	.loc 1 202 0
	mov	w21, 2147483647
	.loc 1 203 0
	mov	w19, 32
.LVL94:
	.loc 1 201 0
	str	w1, [x0,616]
	b	.L78
.LVL95:
.L80:
	.loc 1 192 0
	mov	w1, w19
	mov	x0, x20
.LVL96:
	bl	BsSkip
.LVL97:
	.loc 1 193 0
	mov	w1, w19
	mov	x0, x20
	.loc 1 196 0
	lsl	w19, w19, 1
.LVL98:
	.loc 1 193 0
	bl	BsGet
.LVL99:
	mov	w24, w0
	.loc 1 194 0
	mov	w1, 1
	mov	x0, x20
	.loc 1 196 0
	add	w19, w19, 1
.LVL100:
	.loc 1 194 0
	bl	BsGet
.LVL101:
	.loc 1 195 0
	and	w21, w0, 1
	neg	w0, w21
	eor	w24, w0, w24
	add	w21, w24, w21
	b	.L78
	.cfi_endproc
.LFE2115:
	.size	se_v, .-se_v
	.align	2
	.global	u_v
	.type	u_v, %function
u_v:
.LFB2116:
	.loc 1 223 0
	.cfi_startproc
.LVL102:
	stp	x29, x30, [sp, -64]!
	.cfi_def_cfa_offset 64
	.cfi_offset 29, -64
	.cfi_offset 30, -56
	add	x29, sp, 0
	.cfi_def_cfa_register 29
	str	x21, [sp,32]
	.cfi_offset 21, -32
	mov	x21, x0
	.loc 1 226 0
	add	x0, x0, 20480
.LVL103:
	add	x0, x0, 1080
	.loc 1 223 0
	str	x2, [x29,56]
	stp	x19, x20, [sp,16]
	.cfi_offset 19, -48
	.cfi_offset 20, -40
	.loc 1 223 0
	mov	w19, w1
	.loc 1 226 0
	bl	BsGet
.LVL104:
	.loc 1 227 0
	ldr	x4, [x21,648]
	.loc 1 226 0
	mov	w20, w0
.LVL105:
	.loc 1 229 0
	ldr	x2, [x29,56]
.LVL106:
	adrp	x1, .LC10
	mov	w3, w20
	add	x1, x1, :lo12:.LC10
	.loc 1 227 0
	ldr	w5, [x4,72]
	.loc 1 229 0
	mov	w0, 21
	.loc 1 227 0
	add	w19, w5, w19
.LVL107:
	str	w19, [x4,72]
	.loc 1 229 0
	bl	dprint_linux_kernel
.LVL108:
	.loc 1 232 0
	ldr	x21, [sp,32]
	.cfi_restore 21
.LVL109:
	mov	w0, w20
	ldp	x19, x20, [sp,16]
	.cfi_restore 20
	.cfi_restore 19
.LVL110:
	ldp	x29, x30, [sp], 64
	.cfi_restore 30
	.cfi_restore 29
	.cfi_def_cfa 31, 0
	ret
	.cfi_endproc
.LFE2116:
	.size	u_v, .-u_v
	.align	2
	.global	u_1
	.type	u_1, %function
u_1:
.LFB2117:
	.loc 1 244 0
	.cfi_startproc
.LVL111:
	stp	x29, x30, [sp, -48]!
	.cfi_def_cfa_offset 48
	.cfi_offset 29, -48
	.cfi_offset 30, -40
	add	x29, sp, 0
	.cfi_def_cfa_register 29
	stp	x19, x20, [sp,16]
	.cfi_offset 19, -32
	.cfi_offset 20, -24
	.loc 1 244 0
	mov	x20, x0
	.loc 1 246 0
	add	x0, x0, 20480
.LVL112:
	.loc 1 244 0
	str	x1, [x29,40]
	.loc 1 246 0
	add	x0, x0, 1080
	mov	w1, 1
.LVL113:
	bl	BsGet
.LVL114:
	mov	w19, w0
.LVL115:
	.loc 1 247 0
	ldr	x5, [x20,648]
	.loc 1 249 0
	adrp	x1, .LC10
	ldr	x2, [x29,40]
.LVL116:
	mov	w3, w19
	add	x1, x1, :lo12:.LC10
	mov	w0, 21
	.loc 1 247 0
	ldr	w4, [x5,72]
	add	w4, w4, 1
	str	w4, [x5,72]
	.loc 1 249 0
	bl	dprint_linux_kernel
.LVL117:
	.loc 1 252 0
	mov	w0, w19
	ldp	x19, x20, [sp,16]
	.cfi_restore 20
	.cfi_restore 19
.LVL118:
	ldp	x29, x30, [sp], 48
	.cfi_restore 30
	.cfi_restore 29
	.cfi_def_cfa 31, 0
	ret
	.cfi_endproc
.LFE2117:
	.size	u_1, .-u_1
	.align	2
	.global	ClearCurrNal
	.type	ClearCurrNal, %function
ClearCurrNal:
.LFB2118:
	.loc 1 256 0
	.cfi_startproc
.LVL119:
	stp	x29, x30, [sp, -64]!
	.cfi_def_cfa_offset 64
	.cfi_offset 29, -64
	.cfi_offset 30, -56
	add	x29, sp, 0
	.cfi_def_cfa_register 29
	stp	x19, x20, [sp,16]
	stp	x21, x22, [sp,32]
	stp	x23, x24, [sp,48]
	.cfi_offset 19, -48
	.cfi_offset 20, -40
	.cfi_offset 21, -32
	.cfi_offset 22, -24
	.cfi_offset 23, -16
	.cfi_offset 24, -8
	.loc 1 257 0
	ldr	x20, [x0,648]
	cbz	x20, .L84
	mov	x21, x0
	.loc 1 259 0
	add	x0, x0, 57344
.LVL120:
.LBB105:
.LBB106:
	.loc 1 3502 0
	adrp	x22, .LC11
	add	x19, x20, 8
	add	x24, x20, 72
	add	x22, x22, :lo12:.LC11
.LBE106:
.LBE105:
	.loc 1 259 0
	ldr	w23, [x0,676]
.LBB108:
.LBB107:
	.loc 1 3491 0
	strb	wzr, [x20,1]
	.loc 1 3492 0
	strb	wzr, [x20,4]
.L86:
	.loc 1 3497 0
	ldr	x1, [x19]
	.loc 1 3499 0
	mov	w0, w23
	.loc 1 3497 0
	cbz	x1, .L85
	.loc 1 3499 0
	ldr	w1, [x19,28]
	bl	SM_ReleaseStreamSeg
.LVL121:
	.loc 1 3502 0
	ldr	x2, [x19]
	mov	w0, 7
	ldr	w3, [x19,8]
	mov	x1, x22
	bl	dprint_linux_kernel
.LVL122:
	.loc 1 3503 0
	str	xzr, [x19]
	.loc 1 3504 0
	str	wzr, [x19,20]
	.loc 1 3505 0
	str	wzr, [x19,8]
.L85:
	add	x19, x19, 32
	.loc 1 3494 0 discriminator 1
	cmp	x19, x24
	bne	.L86
	.loc 1 3509 0
	strb	wzr, [x20]
	.loc 1 3510 0
	str	wzr, [x20,76]
.LBE107:
.LBE108:
	.loc 1 260 0
	str	xzr, [x21,648]
.LVL123:
.L84:
	.loc 1 264 0
	mov	w0, 0
.LVL124:
	ldp	x19, x20, [sp,16]
	.cfi_restore 20
	.cfi_restore 19
	ldp	x21, x22, [sp,32]
	.cfi_restore 22
	.cfi_restore 21
.LVL125:
	ldp	x23, x24, [sp,48]
	.cfi_restore 24
	.cfi_restore 23
	ldp	x29, x30, [sp], 64
	.cfi_restore 30
	.cfi_restore 29
	.cfi_def_cfa 31, 0
	ret
	.cfi_endproc
.LFE2118:
	.size	ClearCurrNal, .-ClearCurrNal
	.align	2
	.global	ClearAllNal
	.type	ClearAllNal, %function
ClearAllNal:
.LFB2119:
	.loc 1 268 0
	.cfi_startproc
.LVL126:
	stp	x29, x30, [sp, -80]!
	.cfi_def_cfa_offset 80
	.cfi_offset 29, -80
	.cfi_offset 30, -72
.LBB113:
.LBB114:
.LBB115:
.LBB116:
	.loc 1 3489 0 discriminator 1
	adrp	x2, .LC12
.LBE116:
.LBE115:
.LBE114:
.LBE113:
	.loc 1 268 0
	add	x29, sp, 0
	.cfi_def_cfa_register 29
	stp	x25, x26, [sp,64]
	stp	x21, x22, [sp,32]
	stp	x23, x24, [sp,48]
	.cfi_offset 25, -16
	.cfi_offset 26, -8
	.cfi_offset 21, -48
	.cfi_offset 22, -40
	.cfi_offset 23, -32
	.cfi_offset 24, -24
	add	x21, x0, 20480
	.loc 1 275 0
	add	x25, x0, 57344
.LBB125:
.LBB121:
	.loc 1 3502 0
	adrp	x24, .LC11
	add	x21, x21, 1080
.LBE121:
.LBE125:
	.loc 1 268 0
	stp	x19, x20, [sp,16]
	.cfi_offset 19, -64
	.cfi_offset 20, -56
	.loc 1 275 0
	add	x25, x25, 676
	add	x19, x0, 656
.LBB126:
.LBB122:
	.loc 1 3502 0
	add	x24, x24, :lo12:.LC11
.LBB119:
.LBB117:
	.loc 1 3489 0 discriminator 1
	add	x26, x2, :lo12:.LC12
	b	.L99
.LVL127:
.L95:
	add	x19, x19, 104
.LBE117:
.LBE119:
.LBE122:
.LBE126:
	.loc 1 271 0 discriminator 1
	cmp	x19, x21
	beq	.L105
.LVL128:
.L99:
	.loc 1 273 0
	ldrb	w0, [x19,1]
.LVL129:
	cmp	w0, 1
	bne	.L95
	.loc 1 275 0
	ldr	w23, [x25]
.LBB127:
.LBB123:
	.loc 1 3489 0
	cbz	x19, .L106
	.loc 1 3491 0
	strb	wzr, [x19,1]
	add	x20, x19, 8
	.loc 1 3492 0
	strb	wzr, [x19,4]
	mov	w22, 2
.L98:
	.loc 1 3497 0
	ldr	x1, [x20]
	.loc 1 3499 0
	mov	w0, w23
	.loc 1 3497 0
	cbz	x1, .L97
	.loc 1 3499 0
	ldr	w1, [x20,28]
	bl	SM_ReleaseStreamSeg
.LVL130:
	.loc 1 3502 0
	ldr	x2, [x20]
	mov	w0, 7
	ldr	w3, [x20,8]
	mov	x1, x24
	bl	dprint_linux_kernel
.LVL131:
	.loc 1 3503 0
	str	xzr, [x20]
	.loc 1 3504 0
	str	wzr, [x20,20]
	.loc 1 3505 0
	str	wzr, [x20,8]
.L97:
	.loc 1 3494 0 discriminator 1
	cmp	w22, 1
	add	x20, x20, 32
	mov	w22, 1
	bne	.L98
	.loc 1 3509 0
	strb	wzr, [x19]
	add	x19, x19, 104
	.loc 1 3510 0
	str	wzr, [x19,-28]
.LBE123:
.LBE127:
	.loc 1 271 0 discriminator 1
	cmp	x19, x21
	bne	.L99
.L105:
	.loc 1 280 0
	mov	w0, 0
	ldp	x19, x20, [sp,16]
	.cfi_remember_state
	.cfi_restore 20
	.cfi_restore 19
	ldp	x21, x22, [sp,32]
	.cfi_restore 22
	.cfi_restore 21
	ldp	x23, x24, [sp,48]
	.cfi_restore 24
	.cfi_restore 23
	ldp	x25, x26, [sp,64]
	.cfi_restore 26
	.cfi_restore 25
	ldp	x29, x30, [sp], 80
	.cfi_restore 30
	.cfi_restore 29
	.cfi_def_cfa 31, 0
	ret
.L106:
	.cfi_restore_state
.LBB128:
.LBB124:
.LBB120:
.LBB118:
	.loc 1 3489 0 discriminator 1
	adrp	x2, .LC13
	mov	x1, x26
	add	x2, x2, :lo12:.LC13
	mov	w3, 3489
	mov	w0, 0
	bl	dprint_linux_kernel
.LVL132:
	b	.L95
.LBE118:
.LBE120:
.LBE124:
.LBE128:
	.cfi_endproc
.LFE2119:
	.size	ClearAllNal, .-ClearAllNal
	.align	2
	.global	ClearCurrSlice
	.type	ClearCurrSlice, %function
ClearCurrSlice:
.LFB2120:
	.loc 1 284 0
	.cfi_startproc
.LVL133:
	stp	x29, x30, [sp, -80]!
	.cfi_def_cfa_offset 80
	.cfi_offset 29, -80
	.cfi_offset 30, -72
	.loc 1 285 0
	adrp	x1, .LC14
	.loc 1 284 0
	add	x29, sp, 0
	.cfi_def_cfa_register 29
	stp	x21, x22, [sp,32]
	.cfi_offset 21, -48
	.cfi_offset 22, -40
	mov	x22, x0
	.loc 1 285 0
	add	x1, x1, :lo12:.LC14
	mov	w0, 1
.LVL134:
	.loc 1 284 0
	str	x25, [sp,64]
	stp	x19, x20, [sp,16]
	stp	x23, x24, [sp,48]
	.cfi_offset 25, -16
	.cfi_offset 19, -64
	.cfi_offset 20, -56
	.cfi_offset 23, -32
	.cfi_offset 24, -24
	.loc 1 285 0
	bl	dprint_linux_kernel
.LVL135:
.LBB135:
.LBB136:
	.loc 1 257 0
	ldr	x20, [x22,648]
	.loc 1 259 0
	add	x21, x22, 57344
	.loc 1 257 0
	cbz	x20, .L108
.LBB137:
.LBB138:
	.loc 1 3502 0
	adrp	x23, .LC11
.LBE138:
.LBE137:
	.loc 1 259 0
	ldr	w24, [x21,676]
	add	x19, x20, 8
	add	x25, x20, 72
.LBB140:
.LBB139:
	.loc 1 3502 0
	add	x23, x23, :lo12:.LC11
	.loc 1 3491 0
	strb	wzr, [x20,1]
	.loc 1 3492 0
	strb	wzr, [x20,4]
.L110:
	.loc 1 3497 0
	ldr	x1, [x19]
	.loc 1 3499 0
	mov	w0, w24
	.loc 1 3497 0
	cbz	x1, .L109
	.loc 1 3499 0
	ldr	w1, [x19,28]
	bl	SM_ReleaseStreamSeg
.LVL136:
	.loc 1 3502 0
	ldr	x2, [x19]
	mov	w0, 7
	ldr	w3, [x19,8]
	mov	x1, x23
	bl	dprint_linux_kernel
.LVL137:
	.loc 1 3503 0
	str	xzr, [x19]
	.loc 1 3504 0
	str	wzr, [x19,20]
	.loc 1 3505 0
	str	wzr, [x19,8]
.L109:
	add	x19, x19, 32
	.loc 1 3494 0 discriminator 1
	cmp	x19, x25
	bne	.L110
	.loc 1 3509 0
	strb	wzr, [x20]
	.loc 1 3510 0
	str	wzr, [x20,76]
.LBE139:
.LBE140:
	.loc 1 260 0
	str	xzr, [x22,648]
.L108:
.LBE136:
.LBE135:
	.loc 1 288 0
	ldr	w1, [x21,632]
	.loc 1 291 0
	mov	w0, 0
	.loc 1 288 0
	add	w1, w1, 1
	str	w1, [x21,632]
	.loc 1 291 0
	ldp	x19, x20, [sp,16]
	.cfi_restore 20
	.cfi_restore 19
	ldp	x21, x22, [sp,32]
	.cfi_restore 22
	.cfi_restore 21
.LVL138:
	ldp	x23, x24, [sp,48]
	.cfi_restore 24
	.cfi_restore 23
	ldr	x25, [sp,64]
	.cfi_restore 25
	ldp	x29, x30, [sp], 80
	.cfi_restore 30
	.cfi_restore 29
	.cfi_def_cfa 31, 0
	ret
	.cfi_endproc
.LFE2120:
	.size	ClearCurrSlice, .-ClearCurrSlice
	.align	2
	.global	ClearAllSlice
	.type	ClearAllSlice, %function
ClearAllSlice:
.LFB2121:
	.loc 1 295 0
	.cfi_startproc
.LVL139:
	stp	x29, x30, [sp, -96]!
	.cfi_def_cfa_offset 96
	.cfi_offset 29, -96
	.cfi_offset 30, -88
	add	x29, sp, 0
	.cfi_def_cfa_register 29
	stp	x25, x26, [sp,64]
	stp	x23, x24, [sp,48]
	str	x27, [sp,80]
	.cfi_offset 25, -32
	.cfi_offset 26, -24
	.cfi_offset 23, -48
	.cfi_offset 24, -40
	.cfi_offset 27, -16
	add	x24, x0, 53248
	add	x27, x0, 57344
.LBB145:
.LBB146:
	.loc 1 3502 0
	adrp	x25, .LC11
.LBE146:
.LBE145:
	.loc 1 295 0
	stp	x21, x22, [sp,32]
	stp	x19, x20, [sp,16]
	.cfi_offset 21, -64
	.cfi_offset 22, -56
	.cfi_offset 19, -80
	.cfi_offset 20, -72
	add	x21, x24, 1936
	.loc 1 302 0
	add	x26, x27, 676
	add	x24, x24, 3536
.LBB149:
.LBB147:
	.loc 1 3502 0
	add	x25, x25, :lo12:.LC11
.L122:
.LBE147:
.LBE149:
	.loc 1 300 0
	ldr	x20, [x21]
	cbz	x20, .L119
	.loc 1 302 0
	ldr	w23, [x26]
	add	x19, x20, 8
.LBB150:
.LBB148:
	.loc 1 3491 0
	strb	wzr, [x20,1]
	add	x22, x20, 72
	.loc 1 3492 0
	strb	wzr, [x20,4]
.L121:
	.loc 1 3497 0
	ldr	x1, [x19]
	.loc 1 3499 0
	mov	w0, w23
.LVL140:
	.loc 1 3497 0
	cbz	x1, .L120
	.loc 1 3499 0
	ldr	w1, [x19,28]
	bl	SM_ReleaseStreamSeg
.LVL141:
	.loc 1 3502 0
	ldr	x2, [x19]
	mov	w0, 7
	ldr	w3, [x19,8]
	mov	x1, x25
	bl	dprint_linux_kernel
.LVL142:
	.loc 1 3503 0
	str	xzr, [x19]
	.loc 1 3504 0
	str	wzr, [x19,20]
	.loc 1 3505 0
	str	wzr, [x19,8]
.L120:
	add	x19, x19, 32
	.loc 1 3494 0 discriminator 1
	cmp	x19, x22
	bne	.L121
	.loc 1 3509 0
	strb	wzr, [x20]
	.loc 1 3510 0
	str	wzr, [x20,76]
.LBE148:
.LBE150:
	.loc 1 303 0
	str	xzr, [x21]
.LVL143:
.L119:
	add	x21, x21, 8
	.loc 1 298 0 discriminator 1
	cmp	x21, x24
	bne	.L122
	.loc 1 306 0
	str	wzr, [x27,600]
	.loc 1 310 0
	mov	w0, 0
.LVL144:
	.loc 1 307 0
	str	wzr, [x27,660]
	.loc 1 310 0
	ldp	x19, x20, [sp,16]
	.cfi_restore 20
	.cfi_restore 19
	ldp	x21, x22, [sp,32]
	.cfi_restore 22
	.cfi_restore 21
	ldp	x23, x24, [sp,48]
	.cfi_restore 24
	.cfi_restore 23
	ldp	x25, x26, [sp,64]
	.cfi_restore 26
	.cfi_restore 25
	ldr	x27, [sp,80]
	.cfi_restore 27
	ldp	x29, x30, [sp], 96
	.cfi_restore 30
	.cfi_restore 29
	.cfi_def_cfa 31, 0
	ret
	.cfi_endproc
.LFE2121:
	.size	ClearAllSlice, .-ClearAllSlice
	.align	2
	.global	H264_ClearCurrPic
	.type	H264_ClearCurrPic, %function
H264_ClearCurrPic:
.LFB2122:
	.loc 1 314 0
	.cfi_startproc
.LVL145:
	stp	x29, x30, [sp, -32]!
	.cfi_def_cfa_offset 32
	.cfi_offset 29, -32
	.cfi_offset 30, -24
	add	x29, sp, 0
	.cfi_def_cfa_register 29
	str	x19, [sp,16]
	.cfi_offset 19, -16
	.loc 1 314 0
	mov	x19, x0
	.loc 1 315 0
	bl	ClearAllSlice
.LVL146:
.LBB151:
.LBB152:
	.loc 1 10302 0
	add	x2, x19, 20480
	add	x1, x19, 28672
	.loc 1 10303 0
	mov	w0, 23352
	movk	w0, 0x1, lsl 16
	.loc 1 10302 0
	ldr	w2, [x2,1140]
	str	w2, [x1,1712]
	.loc 1 10305 0
	mov	w2, 2
	strb	w2, [x1,1705]
	.loc 1 10306 0
	mov	w2, 7
	str	w2, [x1,1716]
	.loc 1 10307 0
	mov	w2, 32
	strb	w2, [x1,1706]
	.loc 1 10308 0
	mov	w2, 3
	str	w2, [x1,1728]
	.loc 1 10309 0
	mov	w2, -1
	.loc 1 10303 0
	str	w0, [x1,1720]
.LBE152:
.LBE151:
	.loc 1 319 0
	mov	w0, 0
.LBB154:
.LBB153:
	.loc 1 10309 0
	str	w2, [x1,1732]
	.loc 1 10312 0
	mov	w2, 262144
	.loc 1 10304 0
	strb	wzr, [x1,1704]
	.loc 1 10310 0
	str	wzr, [x1,1736]
	.loc 1 10311 0
	str	wzr, [x1,1740]
	.loc 1 10312 0
	str	w2, [x1,1744]
.LBE153:
.LBE154:
	.loc 1 319 0
	ldr	x19, [sp,16]
	.cfi_restore 19
.LVL147:
	ldp	x29, x30, [sp], 32
	.cfi_restore 30
	.cfi_restore 29
	.cfi_def_cfa 31, 0
	ret
	.cfi_endproc
.LFE2122:
	.size	H264_ClearCurrPic, .-H264_ClearCurrPic
	.align	2
	.global	GetMinPOC
	.type	GetMinPOC, %function
GetMinPOC:
.LFB2125:
	.loc 1 446 0
	.cfi_startproc
.LVL148:
	.loc 1 449 0
	str	wzr, [x2]
	.loc 1 452 0
	add	x0, x0, 32768
.LVL149:
	.loc 1 450 0
	mov	w3, 2147483647
	str	w3, [x1]
	.loc 1 452 0
	ldr	w5, [x0,2100]
	ldr	w3, [x0,2096]
	cmp	w5, w3
	bls	.L133
	.loc 1 454 0
	str	w3, [x0,2100]
	mov	w5, w3
.L133:
	add	x4, x0, 1712
	.loc 1 456 0 discriminator 1
	mov	w3, 0
.LVL150:
	add	x0, x0, 2100
	cbz	w5, .L132
.L140:
	.loc 1 458 0
	ldr	x5, [x4]
	add	x4, x4, 8
	ldr	w7, [x1]
	ldr	w6, [x5,304]
	cmp	w7, w6
	ble	.L135
	.loc 1 458 0 is_stmt 0 discriminator 1
	ldrb	w5, [x5,4]
	cbz	w5, .L135
	.loc 1 460 0 is_stmt 1
	str	w6, [x1]
	.loc 1 461 0
	str	w3, [x2]
.L135:
	.loc 1 456 0 discriminator 1
	ldr	w5, [x0]
	.loc 1 456 0 is_stmt 0 discriminator 2
	add	w3, w3, 1
	.loc 1 456 0 discriminator 1
	cmp	w5, w3
	bhi	.L140
.L132:
	.loc 1 466 0 is_stmt 1
	ret
	.cfi_endproc
.LFE2125:
	.size	GetMinPOC, .-GetMinPOC
	.align	2
	.global	FrameStoreRefFlg
	.type	FrameStoreRefFlg, %function
FrameStoreRefFlg:
.LFB2126:
	.loc 1 478 0
	.cfi_startproc
.LVL151:
	.loc 1 479 0
	ldrb	w0, [x0,2]
.LVL152:
	cmp	w0, wzr
	.loc 1 480 0
	cset	w0, ne
	ret
	.cfi_endproc
.LFE2126:
	.size	FrameStoreRefFlg, .-FrameStoreRefFlg
	.align	2
	.global	ShortTermRefFlg
	.type	ShortTermRefFlg, %function
ShortTermRefFlg:
.LFB2127:
	.loc 1 492 0
	.cfi_startproc
.LVL153:
	.loc 1 493 0
	ldrb	w1, [x0,2]
	cmp	w1, 3
	beq	.L161
	.loc 1 501 0
	tbnz	x1, 0, .L162
.L148:
	.loc 1 517 0
	mov	w2, 0
	.loc 1 509 0
	tbz	x1, 1, .L156
	.loc 1 511 0
	ldr	w0, [x0,416]
.LVL154:
	and	w0, w0, 16776960
	cmp	w0, 65536
	cset	w2, eq
.LVL155:
.L156:
	.loc 1 518 0
	mov	w0, w2
.LVL156:
	ret
.LVL157:
.L162:
	.loc 1 503 0
	ldr	w2, [x0,376]
	and	w2, w2, 16776960
	cmp	w2, 65536
	bne	.L148
.L153:
	.loc 1 497 0
	mov	w2, 1
	.loc 1 518 0
	mov	w0, w2
.LVL158:
	ret
.LVL159:
.L161:
	.loc 1 495 0
	ldr	w1, [x0,336]
	and	w1, w1, 16776960
	cmp	w1, 65536
	beq	.L153
	.loc 1 503 0
	ldr	w1, [x0,376]
	and	w1, w1, 16776960
	cmp	w1, 65536
	beq	.L153
	.loc 1 511 0
	ldr	w0, [x0,416]
.LVL160:
	and	w0, w0, 16776960
	cmp	w0, 65536
	cset	w2, eq
	b	.L156
	.cfi_endproc
.LFE2127:
	.size	ShortTermRefFlg, .-ShortTermRefFlg
	.align	2
	.global	LongTermRefFlg
	.type	LongTermRefFlg, %function
LongTermRefFlg:
.LFB2128:
	.loc 1 530 0
	.cfi_startproc
.LVL161:
	.loc 1 531 0
	ldrb	w1, [x0,2]
	cmp	w1, 3
	beq	.L180
	.loc 1 539 0
	tbnz	x1, 0, .L181
.L167:
	.loc 1 555 0
	mov	w2, 0
	.loc 1 547 0
	tbz	x1, 1, .L175
	.loc 1 549 0
	ldr	w0, [x0,416]
.LVL162:
	and	w0, w0, 16776960
	cmp	w0, 256
	cset	w2, eq
.LVL163:
.L175:
	.loc 1 556 0
	mov	w0, w2
.LVL164:
	ret
.LVL165:
.L181:
	.loc 1 541 0
	ldr	w2, [x0,376]
	and	w2, w2, 16776960
	cmp	w2, 256
	bne	.L167
.L172:
	.loc 1 535 0
	mov	w2, 1
	.loc 1 556 0
	mov	w0, w2
.LVL166:
	ret
.LVL167:
.L180:
	.loc 1 533 0
	ldr	w1, [x0,336]
	and	w1, w1, 16776960
	cmp	w1, 256
	beq	.L172
	.loc 1 541 0
	ldr	w1, [x0,376]
	and	w1, w1, 16776960
	cmp	w1, 256
	beq	.L172
	.loc 1 549 0
	ldr	w0, [x0,416]
.LVL168:
	and	w0, w0, 16776960
	cmp	w0, 256
	cset	w2, eq
	b	.L175
	.cfi_endproc
.LFE2128:
	.size	LongTermRefFlg, .-LongTermRefFlg
	.align	2
	.global	UpdateLTReflist
	.type	UpdateLTReflist, %function
UpdateLTReflist:
.LFB2129:
	.loc 1 568 0
	.cfi_startproc
.LVL169:
	.loc 1 571 0 discriminator 1
	add	x7, x0, 32768
	ldr	w2, [x7,2100]
	cbz	w2, .L193
	sub	w6, w2, #1
	add	x1, x7, 1712
	add	x6, x6, 4096
	mov	w4, 0
	add	x6, x6, 215
	add	x6, x0, x6, lsl 3
.L189:
	.loc 1 573 0
	ldr	x3, [x1]
.LBB157:
.LBB158:
	.loc 1 531 0
	ldrb	w2, [x3,2]
	cmp	w2, 3
	beq	.L214
	.loc 1 539 0
	tbnz	x2, 0, .L215
.L187:
	.loc 1 547 0
	tbz	x2, 1, .L188
.L192:
	.loc 1 549 0
	ldr	w2, [x3,416]
	and	w2, w2, 16776960
	cmp	w2, 256
	beq	.L185
.L188:
	add	x1, x1, 8
.LBE158:
.LBE157:
	.loc 1 571 0 discriminator 1
	cmp	x1, x6
	bne	.L189
.L183:
	.loc 1 579 0
	ldr	w1, [x7,2096]
	.loc 1 578 0
	str	w4, [x7,2108]
	.loc 1 579 0
	cmp	w1, w4
	bls	.L182
	.loc 1 581 0
	uxtw	x2, w4
	add	w3, w4, 1
	add	x2, x2, 4096
	.loc 1 579 0
	cmp	w1, w3
	.loc 1 581 0
	add	x2, x2, 246
	str	xzr, [x0,x2,lsl 3]
	.loc 1 579 0
	bls	.L182
	.loc 1 581 0
	add	x3, x3, 4096
	add	w2, w4, 2
	add	x3, x3, 246
	.loc 1 579 0
	cmp	w2, w1
	.loc 1 581 0
	str	xzr, [x0,x3,lsl 3]
	.loc 1 579 0
	bcs	.L182
	.loc 1 581 0
	add	x2, x2, 4096
	add	w3, w4, 3
	add	x2, x2, 246
	.loc 1 579 0
	cmp	w1, w3
	.loc 1 581 0
	str	xzr, [x0,x2,lsl 3]
	.loc 1 579 0
	bls	.L182
	.loc 1 581 0
	add	x3, x3, 4096
	add	w2, w4, 4
	add	x3, x3, 246
	.loc 1 579 0
	cmp	w1, w2
	.loc 1 581 0
	str	xzr, [x0,x3,lsl 3]
	.loc 1 579 0
	bls	.L182
	.loc 1 581 0
	add	x2, x2, 4096
	add	w3, w4, 5
	add	x2, x2, 246
	.loc 1 579 0
	cmp	w1, w3
	.loc 1 581 0
	str	xzr, [x0,x2,lsl 3]
	.loc 1 579 0
	bls	.L182
	.loc 1 581 0
	add	x3, x3, 4096
	add	w2, w4, 6
	add	x3, x3, 246
	.loc 1 579 0
	cmp	w1, w2
	.loc 1 581 0
	str	xzr, [x0,x3,lsl 3]
	.loc 1 579 0
	bls	.L182
	.loc 1 581 0
	add	x2, x2, 4096
	add	w3, w4, 7
	add	x2, x2, 246
	.loc 1 579 0
	cmp	w1, w3
	.loc 1 581 0
	str	xzr, [x0,x2,lsl 3]
	.loc 1 579 0
	bls	.L182
	.loc 1 581 0
	add	x3, x3, 4096
	add	w2, w4, 8
	add	x3, x3, 246
	.loc 1 579 0
	cmp	w1, w2
	.loc 1 581 0
	str	xzr, [x0,x3,lsl 3]
	.loc 1 579 0
	bls	.L182
	.loc 1 581 0
	add	x2, x2, 4096
	add	w3, w4, 9
	add	x2, x2, 246
	.loc 1 579 0
	cmp	w1, w3
	.loc 1 581 0
	str	xzr, [x0,x2,lsl 3]
	.loc 1 579 0
	bls	.L182
	.loc 1 581 0
	add	x3, x3, 4096
	add	w2, w4, 10
	add	x3, x3, 246
	.loc 1 579 0
	cmp	w1, w2
	.loc 1 581 0
	str	xzr, [x0,x3,lsl 3]
	.loc 1 579 0
	bls	.L182
	.loc 1 581 0
	add	x2, x2, 4096
	add	w3, w4, 11
	add	x2, x2, 246
	.loc 1 579 0
	cmp	w1, w3
	.loc 1 581 0
	str	xzr, [x0,x2,lsl 3]
	.loc 1 579 0
	bls	.L182
	.loc 1 581 0
	add	x3, x3, 4096
	add	w2, w4, 12
	add	x3, x3, 246
	.loc 1 579 0
	cmp	w1, w2
	.loc 1 581 0
	str	xzr, [x0,x3,lsl 3]
	.loc 1 579 0
	bls	.L182
	.loc 1 581 0
	add	x2, x2, 4096
	add	w3, w4, 13
	add	x2, x2, 246
	.loc 1 579 0
	cmp	w1, w3
	.loc 1 581 0
	str	xzr, [x0,x2,lsl 3]
	.loc 1 579 0
	bls	.L182
	.loc 1 581 0
	add	x3, x3, 4096
	add	w2, w4, 14
	add	x3, x3, 246
	.loc 1 579 0
	cmp	w1, w2
	.loc 1 581 0
	str	xzr, [x0,x3,lsl 3]
	.loc 1 579 0
	bls	.L182
	.loc 1 581 0
	add	x2, x2, 4096
	add	w4, w4, 15
	add	x2, x2, 246
	.loc 1 579 0
	cmp	w1, w4
	.loc 1 581 0
	str	xzr, [x0,x2,lsl 3]
	.loc 1 579 0
	bls	.L182
	.loc 1 581 0
	add	x4, x4, 4096
	add	x4, x4, 246
	str	xzr, [x0,x4,lsl 3]
.L182:
	.loc 1 585 0
	ret
.L215:
.LBB161:
.LBB159:
	.loc 1 541 0
	ldr	w5, [x3,376]
	and	w5, w5, 16776960
	cmp	w5, 256
	bne	.L187
.L185:
.LBE159:
.LBE161:
	.loc 1 575 0
	uxtw	x2, w4
	add	w4, w4, 1
	add	x2, x2, 4096
	add	x2, x2, 246
	str	x3, [x0,x2,lsl 3]
	b	.L188
.L214:
.LBB162:
.LBB160:
	.loc 1 533 0
	ldr	w2, [x3,336]
	and	w2, w2, 16776960
	cmp	w2, 256
	beq	.L185
	.loc 1 541 0
	ldr	w2, [x3,376]
	and	w2, w2, 16776960
	cmp	w2, 256
	bne	.L192
.LBE160:
.LBE162:
	.loc 1 575 0
	uxtw	x2, w4
	add	w4, w4, 1
	add	x2, x2, 4096
	add	x2, x2, 246
	str	x3, [x0,x2,lsl 3]
	b	.L188
.L193:
	.loc 1 571 0
	mov	w4, 0
	b	.L183
	.cfi_endproc
.LFE2129:
	.size	UpdateLTReflist, .-UpdateLTReflist
	.align	2
	.global	UpdateReflist
	.type	UpdateReflist, %function
UpdateReflist:
.LFB2130:
	.loc 1 597 0
	.cfi_startproc
.LVL170:
	.loc 1 600 0 discriminator 1
	add	x7, x0, 32768
	ldr	w2, [x7,2100]
	cbz	w2, .L227
	sub	w6, w2, #1
	add	x1, x7, 1712
	add	x6, x6, 4096
	mov	w4, 0
	add	x6, x6, 215
	add	x6, x0, x6, lsl 3
.L223:
	.loc 1 602 0
	ldr	x3, [x1]
.LBB165:
.LBB166:
	.loc 1 493 0
	ldrb	w2, [x3,2]
	cmp	w2, 3
	beq	.L248
	.loc 1 501 0
	tbnz	x2, 0, .L249
.L221:
	.loc 1 509 0
	tbz	x2, 1, .L222
.L226:
	.loc 1 511 0
	ldr	w2, [x3,416]
	and	w2, w2, 16776960
	cmp	w2, 65536
	beq	.L219
.L222:
	add	x1, x1, 8
.LBE166:
.LBE165:
	.loc 1 600 0 discriminator 1
	cmp	x1, x6
	bne	.L223
.L217:
	.loc 1 608 0
	ldr	w1, [x7,2096]
	.loc 1 607 0
	str	w4, [x7,2104]
	.loc 1 608 0
	cmp	w1, w4
	bls	.L216
	.loc 1 610 0
	uxtw	x2, w4
	add	w3, w4, 1
	add	x2, x2, 4096
	.loc 1 608 0
	cmp	w1, w3
	.loc 1 610 0
	add	x2, x2, 230
	str	xzr, [x0,x2,lsl 3]
	.loc 1 608 0
	bls	.L216
	.loc 1 610 0
	add	x3, x3, 4096
	add	w2, w4, 2
	add	x3, x3, 230
	.loc 1 608 0
	cmp	w2, w1
	.loc 1 610 0
	str	xzr, [x0,x3,lsl 3]
	.loc 1 608 0
	bcs	.L216
	.loc 1 610 0
	add	x2, x2, 4096
	add	w3, w4, 3
	add	x2, x2, 230
	.loc 1 608 0
	cmp	w1, w3
	.loc 1 610 0
	str	xzr, [x0,x2,lsl 3]
	.loc 1 608 0
	bls	.L216
	.loc 1 610 0
	add	x3, x3, 4096
	add	w2, w4, 4
	add	x3, x3, 230
	.loc 1 608 0
	cmp	w1, w2
	.loc 1 610 0
	str	xzr, [x0,x3,lsl 3]
	.loc 1 608 0
	bls	.L216
	.loc 1 610 0
	add	x2, x2, 4096
	add	w3, w4, 5
	add	x2, x2, 230
	.loc 1 608 0
	cmp	w1, w3
	.loc 1 610 0
	str	xzr, [x0,x2,lsl 3]
	.loc 1 608 0
	bls	.L216
	.loc 1 610 0
	add	x3, x3, 4096
	add	w2, w4, 6
	add	x3, x3, 230
	.loc 1 608 0
	cmp	w1, w2
	.loc 1 610 0
	str	xzr, [x0,x3,lsl 3]
	.loc 1 608 0
	bls	.L216
	.loc 1 610 0
	add	x2, x2, 4096
	add	w3, w4, 7
	add	x2, x2, 230
	.loc 1 608 0
	cmp	w1, w3
	.loc 1 610 0
	str	xzr, [x0,x2,lsl 3]
	.loc 1 608 0
	bls	.L216
	.loc 1 610 0
	add	x3, x3, 4096
	add	w2, w4, 8
	add	x3, x3, 230
	.loc 1 608 0
	cmp	w1, w2
	.loc 1 610 0
	str	xzr, [x0,x3,lsl 3]
	.loc 1 608 0
	bls	.L216
	.loc 1 610 0
	add	x2, x2, 4096
	add	w3, w4, 9
	add	x2, x2, 230
	.loc 1 608 0
	cmp	w1, w3
	.loc 1 610 0
	str	xzr, [x0,x2,lsl 3]
	.loc 1 608 0
	bls	.L216
	.loc 1 610 0
	add	x3, x3, 4096
	add	w2, w4, 10
	add	x3, x3, 230
	.loc 1 608 0
	cmp	w1, w2
	.loc 1 610 0
	str	xzr, [x0,x3,lsl 3]
	.loc 1 608 0
	bls	.L216
	.loc 1 610 0
	add	x2, x2, 4096
	add	w3, w4, 11
	add	x2, x2, 230
	.loc 1 608 0
	cmp	w1, w3
	.loc 1 610 0
	str	xzr, [x0,x2,lsl 3]
	.loc 1 608 0
	bls	.L216
	.loc 1 610 0
	add	x3, x3, 4096
	add	w2, w4, 12
	add	x3, x3, 230
	.loc 1 608 0
	cmp	w1, w2
	.loc 1 610 0
	str	xzr, [x0,x3,lsl 3]
	.loc 1 608 0
	bls	.L216
	.loc 1 610 0
	add	x2, x2, 4096
	add	w3, w4, 13
	add	x2, x2, 230
	.loc 1 608 0
	cmp	w1, w3
	.loc 1 610 0
	str	xzr, [x0,x2,lsl 3]
	.loc 1 608 0
	bls	.L216
	.loc 1 610 0
	add	x3, x3, 4096
	add	w2, w4, 14
	add	x3, x3, 230
	.loc 1 608 0
	cmp	w1, w2
	.loc 1 610 0
	str	xzr, [x0,x3,lsl 3]
	.loc 1 608 0
	bls	.L216
	.loc 1 610 0
	add	x2, x2, 4096
	add	w4, w4, 15
	add	x2, x2, 230
	.loc 1 608 0
	cmp	w1, w4
	.loc 1 610 0
	str	xzr, [x0,x2,lsl 3]
	.loc 1 608 0
	bls	.L216
	.loc 1 610 0
	add	x4, x4, 4096
	add	x4, x4, 230
	str	xzr, [x0,x4,lsl 3]
.L216:
	.loc 1 614 0
	ret
.L249:
.LBB169:
.LBB167:
	.loc 1 503 0
	ldr	w5, [x3,376]
	and	w5, w5, 16776960
	cmp	w5, 65536
	bne	.L221
.L219:
.LBE167:
.LBE169:
	.loc 1 604 0
	uxtw	x2, w4
	add	w4, w4, 1
	add	x2, x2, 4096
	add	x2, x2, 230
	str	x3, [x0,x2,lsl 3]
	b	.L222
.L248:
.LBB170:
.LBB168:
	.loc 1 495 0
	ldr	w2, [x3,336]
	and	w2, w2, 16776960
	cmp	w2, 65536
	beq	.L219
	.loc 1 503 0
	ldr	w2, [x3,376]
	and	w2, w2, 16776960
	cmp	w2, 65536
	bne	.L226
.LBE168:
.LBE170:
	.loc 1 604 0
	uxtw	x2, w4
	add	w4, w4, 1
	add	x2, x2, 4096
	add	x2, x2, 230
	str	x3, [x0,x2,lsl 3]
	b	.L222
.L227:
	.loc 1 600 0
	mov	w4, 0
	b	.L217
	.cfi_endproc
.LFE2130:
	.size	UpdateReflist, .-UpdateReflist
	.align	2
	.global	GetPicNumX
	.type	GetPicNumX, %function
GetPicNumX:
.LFB2131:
	.loc 1 626 0
	.cfi_startproc
.LVL171:
	.loc 1 630 0
	ldrb	w2, [x0,3]
	cbz	w2, .L253
	.loc 1 636 0
	ldr	w2, [x0,312]
	mvn	w0, w1
.LVL172:
	lsl	w2, w2, 1
	add	w2, w2, 1
.LVL173:
	.loc 1 642 0
	add	w0, w0, w2
	ret
.LVL174:
.L253:
	.loc 1 632 0
	ldr	w2, [x0,312]
	mvn	w0, w1
.LVL175:
	.loc 1 642 0
	add	w0, w0, w2
	ret
	.cfi_endproc
.LFE2131:
	.size	GetPicNumX, .-GetPicNumX
	.align	2
	.global	UnMarkFrameStoreRef
	.type	UnMarkFrameStoreRef, %function
UnMarkFrameStoreRef:
.LFB2132:
	.loc 1 654 0
	.cfi_startproc
.LVL176:
	stp	x29, x30, [sp, -16]!
	.cfi_def_cfa_offset 16
	.cfi_offset 29, -16
	.cfi_offset 30, -8
	add	x29, sp, 0
	.cfi_def_cfa_register 29
	.loc 1 655 0
	ldrb	w2, [x1,1]
	tbz	x2, 0, .L255
	.loc 1 658 0
	ldrb	w3, [x1,2]
	.loc 1 659 0
	strb	wzr, [x1,377]
	.loc 1 658 0
	and	w3, w3, 2
	.loc 1 660 0
	strb	wzr, [x1,378]
	.loc 1 658 0
	strb	w3, [x1,2]
.L255:
	.loc 1 663 0
	tbz	x2, 1, .L256
	.loc 1 666 0
	ldrb	w3, [x1,2]
	.loc 1 667 0
	strb	wzr, [x1,417]
	.loc 1 666 0
	and	w3, w3, 1
	.loc 1 668 0
	strb	wzr, [x1,418]
	.loc 1 666 0
	strb	w3, [x1,2]
.L256:
	.loc 1 671 0
	cmp	w2, 3
	bne	.L257
	.loc 1 673 0
	strb	wzr, [x1,338]
	.loc 1 674 0
	strb	wzr, [x1,337]
.L257:
	.loc 1 682 0
	add	x0, x0, 57344
.LVL177:
	.loc 1 679 0
	strb	wzr, [x1,2]
	.loc 1 682 0
	ldr	w1, [x1,288]
.LVL178:
	mov	w2, 0
	ldr	w0, [x0,676]
	bl	FSP_SetRef
.LVL179:
	.loc 1 685 0
	ldp	x29, x30, [sp], 16
	.cfi_restore 30
	.cfi_restore 29
	.cfi_def_cfa 31, 0
	ret
	.cfi_endproc
.LFE2132:
	.size	UnMarkFrameStoreRef, .-UnMarkFrameStoreRef
	.align	2
	.global	UnMarkLTFrmByFrmIdx
	.type	UnMarkLTFrmByFrmIdx, %function
UnMarkLTFrmByFrmIdx:
.LFB2133:
	.loc 1 697 0
	.cfi_startproc
.LVL180:
	.loc 1 700 0 discriminator 1
	add	x3, x0, 32768
	.loc 1 697 0
	stp	x29, x30, [sp, -16]!
	.cfi_def_cfa_offset 16
	.cfi_offset 29, -16
	.cfi_offset 30, -8
	add	x29, sp, 0
	.cfi_def_cfa_register 29
	.loc 1 700 0 discriminator 1
	ldr	w4, [x3,2108]
	cbz	w4, .L264
	.loc 1 702 0
	ldr	x2, [x3,1968]
	ldr	w5, [x2,300]
	cmp	w5, w1
	beq	.L266
	.loc 1 700 0 discriminator 1
	cmp	w4, 1
	bls	.L264
	.loc 1 702 0
	ldr	x2, [x3,1976]
	ldr	w5, [x2,300]
	cmp	w5, w1
	beq	.L266
	.loc 1 700 0 discriminator 1
	cmp	w4, 2
	beq	.L264
	.loc 1 702 0
	ldr	x2, [x3,1984]
	ldr	w5, [x2,300]
	cmp	w5, w1
	beq	.L266
	.loc 1 700 0 discriminator 1
	cmp	w4, 3
	beq	.L264
	.loc 1 702 0
	ldr	x2, [x3,1992]
	ldr	w5, [x2,300]
	cmp	w5, w1
	beq	.L266
	.loc 1 700 0 discriminator 1
	cmp	w4, 4
	beq	.L264
	.loc 1 702 0
	ldr	x2, [x3,2000]
	ldr	w5, [x2,300]
	cmp	w5, w1
	beq	.L266
	.loc 1 700 0 discriminator 1
	cmp	w4, 5
	beq	.L264
	.loc 1 702 0
	ldr	x2, [x3,2008]
	ldr	w5, [x2,300]
	cmp	w5, w1
	beq	.L266
	.loc 1 700 0 discriminator 1
	cmp	w4, 6
	beq	.L264
	.loc 1 702 0
	ldr	x2, [x3,2016]
	ldr	w5, [x2,300]
	cmp	w5, w1
	beq	.L266
	.loc 1 700 0 discriminator 1
	cmp	w4, 7
	beq	.L264
	.loc 1 702 0
	ldr	x2, [x3,2024]
	ldr	w5, [x2,300]
	cmp	w5, w1
	beq	.L266
	.loc 1 700 0 discriminator 1
	cmp	w4, 8
	beq	.L264
	.loc 1 702 0
	ldr	x2, [x3,2032]
	ldr	w5, [x2,300]
	cmp	w5, w1
	beq	.L266
	.loc 1 700 0 discriminator 1
	cmp	w4, 9
	beq	.L264
	.loc 1 702 0
	ldr	x2, [x3,2040]
	ldr	w5, [x2,300]
	cmp	w5, w1
	beq	.L266
	.loc 1 700 0 discriminator 1
	cmp	w4, 10
	beq	.L264
	.loc 1 702 0
	ldr	x2, [x3,2048]
	ldr	w5, [x2,300]
	cmp	w5, w1
	beq	.L266
	.loc 1 700 0 discriminator 1
	cmp	w4, 11
	beq	.L264
	.loc 1 702 0
	ldr	x2, [x3,2056]
	ldr	w5, [x2,300]
	cmp	w5, w1
	beq	.L266
	.loc 1 700 0 discriminator 1
	cmp	w4, 12
	beq	.L264
	.loc 1 702 0
	ldr	x2, [x3,2064]
	ldr	w5, [x2,300]
	cmp	w5, w1
	beq	.L266
	.loc 1 700 0 discriminator 1
	cmp	w4, 13
	beq	.L264
	.loc 1 702 0
	ldr	x2, [x3,2072]
	ldr	w5, [x2,300]
	cmp	w5, w1
	beq	.L266
	.loc 1 700 0 discriminator 1
	cmp	w4, 14
	beq	.L264
	.loc 1 702 0
	ldr	x2, [x3,2080]
	ldr	w5, [x2,300]
	cmp	w5, w1
	beq	.L266
	.loc 1 700 0 discriminator 1
	cmp	w4, 15
	beq	.L264
	.loc 1 702 0
	ldr	x2, [x3,2088]
	ldr	w3, [x2,300]
	cmp	w3, w1
	beq	.L266
.L264:
	.loc 1 710 0
	ldp	x29, x30, [sp], 16
	.cfi_remember_state
	.cfi_restore 30
	.cfi_restore 29
	.cfi_def_cfa 31, 0
	ret
.L266:
	.cfi_restore_state
	.loc 1 704 0
	mov	x1, x2
.LVL181:
	bl	UnMarkFrameStoreRef
.LVL182:
	.loc 1 710 0
	ldp	x29, x30, [sp], 16
	.cfi_restore 29
	.cfi_restore 30
	.cfi_def_cfa 31, 0
	ret
	.cfi_endproc
.LFE2133:
	.size	UnMarkLTFrmByFrmIdx, .-UnMarkLTFrmByFrmIdx
	.align	2
	.global	UnMarkLTFldByFrmIdx
	.type	UnMarkLTFldByFrmIdx, %function
UnMarkLTFldByFrmIdx:
.LFB2134:
	.loc 1 722 0
	.cfi_startproc
.LVL183:
	.loc 1 725 0 discriminator 1
	add	x4, x0, 32768
	.loc 1 722 0
	stp	x29, x30, [sp, -16]!
	.cfi_def_cfa_offset 16
	.cfi_offset 29, -16
	.cfi_offset 30, -8
	add	x29, sp, 0
	.cfi_def_cfa_register 29
	.loc 1 725 0 discriminator 1
	ldr	w5, [x4,2108]
	cbz	w5, .L315
	sub	w7, w5, #1
	add	x4, x4, 1968
	add	x7, x7, 4096
	add	x7, x7, 247
	add	x7, x0, x7, lsl 3
	b	.L321
.L317:
	cmp	x4, x7
	beq	.L315
.L321:
	.loc 1 727 0
	ldr	x5, [x4]
	add	x4, x4, 8
	ldr	w6, [x5,300]
	cmp	w6, w3
	bne	.L317
	.loc 1 729 0
	cmp	w2, 1
	beq	.L334
	.loc 1 737 0
	cmp	w2, 2
	bne	.L317
	.loc 1 739 0 discriminator 1
	cmp	x5, x1
	bne	.L323
	.loc 1 739 0 is_stmt 0
	ldrb	w6, [x5,377]
	.loc 1 739 0 discriminator 1
	cbnz	w6, .L317
.L323:
	.loc 1 741 0 is_stmt 1
	mov	x1, x5
.LVL184:
	bl	UnMarkFrameStoreRef
.LVL185:
.L315:
	.loc 1 749 0
	ldp	x29, x30, [sp], 16
	.cfi_remember_state
	.cfi_restore 30
	.cfi_restore 29
	.cfi_def_cfa 31, 0
	ret
.L334:
	.cfi_restore_state
	.loc 1 731 0 discriminator 1
	cmp	x5, x1
	bne	.L323
	.loc 1 731 0 is_stmt 0
	ldrb	w6, [x5,417]
	.loc 1 731 0 discriminator 1
	cbnz	w6, .L317
	b	.L323
	.cfi_endproc
.LFE2134:
	.size	UnMarkLTFldByFrmIdx, .-UnMarkLTFldByFrmIdx
	.align	2
	.global	UnMarkSTRef
	.type	UnMarkSTRef, %function
UnMarkSTRef:
.LFB2135:
	.loc 1 762 0 is_stmt 1
	.cfi_startproc
.LVL186:
	stp	x29, x30, [sp, -16]!
	.cfi_def_cfa_offset 16
	.cfi_offset 29, -16
	.cfi_offset 30, -8
	add	x29, sp, 0
	.cfi_def_cfa_register 29
.LBB171:
.LBB172:
	.loc 1 630 0
	ldrb	w3, [x1,3]
	cbnz	w3, .L336
.LBE172:
.LBE171:
	.loc 1 771 0 discriminator 1
	add	x3, x0, 32768
	ldr	w6, [x1,312]
	sub	w6, w6, #1
	ldr	w1, [x3,2104]
.LVL187:
.LBB177:
.LBB173:
	.loc 1 639 0
	sub	w2, w6, w2
.LVL188:
.LBE173:
.LBE177:
	.loc 1 771 0 discriminator 1
	cbz	w1, .L335
	sub	w5, w1, #1
	add	x3, x3, 1840
	add	x5, x5, 4096
	add	x5, x5, 231
	add	x5, x0, x5, lsl 3
	b	.L342
.L341:
	cmp	x3, x5
	beq	.L335
.L342:
	.loc 1 773 0
	ldr	x1, [x3]
	add	x3, x3, 8
	ldr	w4, [x1,344]
	cmp	w4, w2
	bne	.L341
	.loc 1 775 0
	ldrb	w4, [x1,2]
	cmp	w4, 3
	bne	.L341
	.loc 1 777 0
	ldr	w4, [x1,336]
	and	w4, w4, 16776960
	cmp	w4, 65536
	bne	.L341
	.loc 1 779 0
	bl	UnMarkFrameStoreRef
.LVL189:
.L335:
	.loc 1 844 0
	ldp	x29, x30, [sp], 16
	.cfi_remember_state
	.cfi_restore 30
	.cfi_restore 29
	.cfi_def_cfa 31, 0
	ret
.LVL190:
.L336:
	.cfi_restore_state
	.loc 1 788 0 discriminator 1
	add	x3, x0, 32768
.LBB178:
.LBB174:
	.loc 1 636 0
	ldr	w8, [x1,312]
	add	x5, x3, 1840
.LBE174:
.LBE178:
	.loc 1 788 0 discriminator 1
	mov	w4, 0
.LVL191:
.LBB179:
.LBB175:
	.loc 1 636 0
	lsl	w8, w8, 1
.LBE175:
.LBE179:
	.loc 1 788 0 discriminator 1
	ldr	w7, [x3,2104]
.LBB180:
.LBB176:
	.loc 1 639 0
	sub	w2, w8, w2
.LVL192:
.LBE176:
.LBE180:
	.loc 1 788 0 discriminator 1
	cbz	w7, .L335
.L360:
	.loc 1 790 0
	ldr	x3, [x5]
	add	x5, x5, 8
	ldrb	w1, [x3,2]
.LVL193:
	and	w8, w1, 1
	tbz	x1, 0, .L343
	.loc 1 791 0
	ldr	w6, [x3,376]
	and	w6, w6, 16776960
	cmp	w6, 65536
	beq	.L370
.L343:
	.loc 1 816 0
	tbz	x1, 1, .L346
	.loc 1 817 0
	ldr	w1, [x3,416]
	and	w1, w1, 16776960
	cmp	w1, 65536
	beq	.L371
.L346:
	.loc 1 788 0 discriminator 2
	add	w4, w4, 1
	.loc 1 788 0 is_stmt 0 discriminator 1
	cmp	w4, w7
	bne	.L360
	.loc 1 844 0 is_stmt 1
	ldp	x29, x30, [sp], 16
	.cfi_remember_state
	.cfi_restore 29
	.cfi_restore 30
	.cfi_def_cfa 31, 0
	ret
.L370:
	.cfi_restore_state
	.loc 1 793 0
	ldr	w6, [x3,384]
	cmp	w6, w2
	bne	.L343
	add	x4, x0, x4, uxtw 3
.LVL194:
	.loc 1 797 0
	add	x4, x4, 32768
	.loc 1 796 0
	and	w1, w1, 2
	strb	w1, [x3,2]
	.loc 1 797 0
	ldr	x1, [x4,1840]
	strb	wzr, [x1,378]
	.loc 1 800 0
	ldr	x1, [x4,1840]
	ldrb	w2, [x1,336]
	cbz	w2, .L351
.L369:
	.loc 1 826 0
	cmp	w2, 3
	beq	.L351
.L347:
	.loc 1 832 0
	ldrb	w2, [x1,2]
	cbnz	w2, .L335
	.loc 1 834 0
	ldr	w3, [x1,324]
	.loc 1 835 0
	add	x4, x0, 57344
	.loc 1 834 0
	add	x3, x3, 12288
	add	x3, x3, 1908
	str	wzr, [x0,x3,lsl 2]
	.loc 1 835 0
	ldr	w0, [x4,676]
.LVL195:
	ldr	w1, [x1,288]
	bl	FSP_SetRef
.LVL196:
	b	.L335
.LVL197:
.L371:
	.loc 1 819 0
	ldr	w1, [x3,424]
	cmp	w1, w2
	bne	.L346
	add	x4, x0, x4, uxtw 3
.LVL198:
	.loc 1 823 0
	add	x4, x4, 32768
	.loc 1 822 0
	strb	w8, [x3,2]
	.loc 1 823 0
	ldr	x1, [x4,1840]
	strb	wzr, [x1,418]
	.loc 1 826 0
	ldr	x1, [x4,1840]
	ldrb	w2, [x1,336]
	cbnz	w2, .L369
.L351:
	.loc 1 828 0
	strb	wzr, [x1,338]
	.loc 1 829 0
	ldr	x1, [x4,1840]
	strb	wzr, [x1,337]
	ldr	x1, [x4,1840]
	b	.L347
	.cfi_endproc
.LFE2135:
	.size	UnMarkSTRef, .-UnMarkSTRef
	.align	2
	.global	UnMarkLTRef
	.type	UnMarkLTRef, %function
UnMarkLTRef:
.LFB2136:
	.loc 1 856 0
	.cfi_startproc
.LVL199:
	stp	x29, x30, [sp, -16]!
	.cfi_def_cfa_offset 16
	.cfi_offset 29, -16
	.cfi_offset 30, -8
	add	x29, sp, 0
	.cfi_def_cfa_register 29
	.loc 1 859 0
	ldrb	w1, [x1,3]
.LVL200:
	cbz	w1, .L373
.LBB183:
.LBB184:
	.loc 1 878 0 discriminator 1
	add	x1, x0, 32768
	mov	w4, 0
.LVL201:
	add	x5, x1, 1968
	ldr	w7, [x1,2108]
	cbz	w7, .L372
.L397:
	.loc 1 880 0
	ldr	x3, [x5]
	add	x5, x5, 8
	ldrb	w1, [x3,2]
	and	w8, w1, 1
	tbz	x1, 0, .L378
	.loc 1 881 0
	ldr	w6, [x3,376]
	and	w6, w6, 16776960
	cmp	w6, 256
	beq	.L407
.L378:
	.loc 1 903 0
	tbz	x1, 1, .L381
	.loc 1 904 0
	ldr	w1, [x3,416]
	and	w1, w1, 16776960
	cmp	w1, 256
	beq	.L408
.L381:
	.loc 1 878 0 discriminator 2
	add	w4, w4, 1
	.loc 1 878 0 is_stmt 0 discriminator 1
	cmp	w4, w7
	bne	.L397
.L372:
.LBE184:
.LBE183:
	.loc 1 929 0 is_stmt 1
	ldp	x29, x30, [sp], 16
	.cfi_remember_state
	.cfi_restore 30
	.cfi_restore 29
	.cfi_def_cfa 31, 0
	ret
.L407:
	.cfi_restore_state
.LBB186:
.LBB185:
	.loc 1 883 0
	ldr	w6, [x3,380]
	cmp	w2, w6
	bne	.L378
	add	x4, x0, x4, uxtw 3
.LVL202:
	.loc 1 887 0
	add	x4, x4, 32768
	.loc 1 886 0
	and	w1, w1, 2
	strb	w1, [x3,2]
	.loc 1 887 0
	ldr	x1, [x4,1968]
	strb	wzr, [x1,377]
	.loc 1 890 0
	ldr	x1, [x4,1968]
	ldrb	w2, [x1,336]
.LVL203:
	cbz	w2, .L388
.L406:
	.loc 1 913 0
	cmp	w2, 3
	beq	.L388
.L382:
	.loc 1 918 0
	ldrb	w2, [x1,2]
	cbnz	w2, .L372
	.loc 1 920 0
	ldr	w1, [x1,324]
	add	x1, x1, 12288
	add	x1, x1, 1908
	str	wzr, [x0,x1,lsl 2]
	b	.L372
.LVL204:
.L408:
	.loc 1 906 0
	ldr	w6, [x3,420]
	cmp	w2, w6
	bne	.L381
	add	x4, x0, x4, uxtw 3
.LVL205:
	.loc 1 910 0
	add	x4, x4, 32768
	.loc 1 909 0
	strb	w8, [x3,2]
	.loc 1 910 0
	ldr	x1, [x4,1968]
	strb	wzr, [x1,417]
	.loc 1 913 0
	ldr	x1, [x4,1968]
	ldrb	w2, [x1,336]
.LVL206:
	cbnz	w2, .L406
.L388:
	.loc 1 915 0
	strb	wzr, [x1,338]
	.loc 1 916 0
	ldr	x1, [x4,1968]
	strb	wzr, [x1,337]
	ldr	x1, [x4,1968]
	b	.L382
.LVL207:
.L373:
.LBE185:
.LBE186:
	.loc 1 861 0 discriminator 1
	add	x3, x0, 32768
	ldr	w4, [x3,2108]
	cbz	w4, .L372
	sub	w4, w4, #1
	add	x3, x3, 1968
	add	x6, x4, 4096
	add	x6, x6, 247
	add	x6, x0, x6, lsl 3
	b	.L386
.L385:
	cmp	x3, x6
	beq	.L372
.L386:
	.loc 1 863 0
	ldr	x1, [x3]
	add	x3, x3, 8
	ldr	w4, [x1,340]
	cmp	w4, w2
	bne	.L385
	.loc 1 865 0
	ldrb	w4, [x1,2]
	cmp	w4, 3
	bne	.L385
	.loc 1 867 0
	ldr	w4, [x1,336]
	and	w4, w4, 16776960
	cmp	w4, 256
	bne	.L385
	.loc 1 869 0
	bl	UnMarkFrameStoreRef
.LVL208:
	.loc 1 870 0
	b	.L372
	.cfi_endproc
.LFE2136:
	.size	UnMarkLTRef, .-UnMarkLTRef
	.align	2
	.global	MarkPicLTRef
	.type	MarkPicLTRef, %function
MarkPicLTRef:
.LFB2137:
	.loc 1 941 0
	.cfi_startproc
.LVL209:
	.loc 1 943 0
	ldrb	w9, [x3,3]
	.loc 1 948 0 discriminator 1
	add	x3, x0, 32768
.LVL210:
	.loc 1 946 0
	cbz	w9, .L410
	.loc 1 969 0 discriminator 1
	ldr	w8, [x3,2104]
	mov	w4, 0
	add	x5, x3, 1840
	cbz	w8, .L409
.L431:
	.loc 1 971 0
	ldr	x3, [x5]
	ldrb	w6, [x3,2]
	tbz	x6, 0, .L416
	.loc 1 973 0
	ldr	w7, [x3,376]
	and	w7, w7, 16776960
	cmp	w7, 65536
	beq	.L437
.L416:
	.loc 1 1003 0
	tbz	x6, 1, .L419
	.loc 1 1005 0
	ldr	w6, [x3,416]
	and	w6, w6, 16776960
	cmp	w6, 65536
	beq	.L438
.L419:
	.loc 1 969 0 discriminator 2
	add	w4, w4, 1
	add	x5, x5, 8
	.loc 1 969 0 is_stmt 0 discriminator 1
	cmp	w4, w8
	bne	.L431
.L409:
	.loc 1 1034 0 is_stmt 1
	ret
.L437:
	.loc 1 974 0
	ldr	w7, [x3,384]
	cmp	w7, w2
	bne	.L416
	.loc 1 977 0
	ldrb	w6, [x3,417]
	cmp	w6, 1
	bne	.L420
	.loc 1 977 0 is_stmt 0 discriminator 1
	ldr	w6, [x3,300]
	cmp	w6, w1
	bne	.L419
.L420:
	add	x4, x0, x4, uxtw 3
	.loc 1 985 0 is_stmt 1
	add	x4, x4, 32768
	.loc 1 984 0
	str	w1, [x3,300]
	.loc 1 943 0
	cmp	w9, 1
	cset	w0, eq
.LVL211:
	.loc 1 985 0
	ldr	x2, [x4,1840]
.LVL212:
	add	w1, w0, w1, lsl 1
.LVL213:
	str	w1, [x2,380]
	.loc 1 986 0
	mov	w1, 1
	ldr	x0, [x4,1840]
	strb	w1, [x0,377]
	.loc 1 987 0
	ldr	x0, [x4,1840]
	strb	wzr, [x0,378]
	.loc 1 990 0
	ldr	x0, [x4,1840]
	ldrb	w1, [x0,336]
	cbz	w1, .L418
	cmp	w1, 3
	bne	.L409
.L418:
	.loc 1 993 0
	ldrb	w2, [x0,377]
	ldrb	w1, [x0,417]
	cmp	w1, w2
	bne	.L409
	.loc 1 995 0
	strb	w1, [x0,337]
	.loc 1 996 0
	ldr	x0, [x4,1840]
	ldrb	w1, [x0,378]
	strb	w1, [x0,338]
	.loc 1 1034 0
	ret
.LVL214:
.L438:
	.loc 1 1005 0 discriminator 1
	ldr	w6, [x3,424]
	cmp	w6, w2
	bne	.L419
	.loc 1 1008 0
	ldrb	w6, [x3,377]
	cmp	w6, 1
	bne	.L423
	.loc 1 1008 0 is_stmt 0 discriminator 1
	ldr	w6, [x3,300]
	cmp	w6, w1
	bne	.L419
.L423:
	add	x4, x0, x4, uxtw 3
	.loc 1 1014 0 is_stmt 1
	add	x4, x4, 32768
	.loc 1 1013 0
	str	w1, [x3,300]
	.loc 1 944 0
	cmp	w9, 2
	cset	w0, eq
.LVL215:
	.loc 1 1014 0
	ldr	x2, [x4,1840]
.LVL216:
	add	w1, w0, w1, lsl 1
.LVL217:
	str	w1, [x2,420]
	.loc 1 1015 0
	mov	w1, 1
	ldr	x0, [x4,1840]
	strb	w1, [x0,417]
	.loc 1 1016 0
	ldr	x0, [x4,1840]
	strb	wzr, [x0,418]
	.loc 1 1019 0
	ldr	x0, [x4,1840]
	ldrb	w1, [x0,336]
	cbz	w1, .L422
	cmp	w1, 3
	bne	.L409
.L422:
	.loc 1 1021 0
	ldrb	w2, [x0,377]
	ldrb	w1, [x0,417]
	cmp	w1, w2
	bne	.L409
	.loc 1 1023 0
	strb	w1, [x0,337]
	.loc 1 1024 0
	ldr	x0, [x4,1840]
	ldrb	w1, [x0,418]
	strb	w1, [x0,338]
	.loc 1 1034 0
	ret
.LVL218:
.L410:
	.loc 1 948 0 discriminator 1
	ldr	w7, [x3,2104]
	cbz	w7, .L409
	add	x3, x3, 1840
	mov	w4, 0
	b	.L415
.L414:
	.loc 1 948 0 is_stmt 0 discriminator 2
	add	w4, w4, 1
	.loc 1 948 0 discriminator 1
	cmp	w4, w7
	beq	.L409
.L415:
	.loc 1 950 0 is_stmt 1
	ldr	x5, [x3]
	add	x3, x3, 8
	ldrb	w6, [x5,2]
	cmp	w6, 3
	bne	.L414
	.loc 1 950 0 is_stmt 0 discriminator 1
	ldr	w6, [x5,336]
	and	w6, w6, 16776960
	cmp	w6, 65536
	bne	.L414
	.loc 1 951 0 is_stmt 1
	ldr	w6, [x5,344]
	cmp	w6, w2
	bne	.L414
	add	x4, x0, x4, uxtw 3
	.loc 1 954 0
	add	x4, x4, 32768
	.loc 1 953 0
	str	w1, [x5,300]
	.loc 1 956 0
	mov	w0, 1
.LVL219:
	.loc 1 954 0
	ldr	x2, [x4,1840]
.LVL220:
	str	w1, [x2,340]
	.loc 1 956 0
	ldr	x1, [x4,1840]
.LVL221:
	strb	w0, [x1,337]
	.loc 1 957 0
	ldr	x1, [x4,1840]
	strb	w0, [x1,377]
	.loc 1 958 0
	ldr	x1, [x4,1840]
	strb	w0, [x1,417]
	.loc 1 960 0
	ldr	x0, [x4,1840]
	strb	wzr, [x0,338]
	.loc 1 961 0
	ldr	x0, [x4,1840]
	strb	wzr, [x0,378]
	.loc 1 962 0
	ldr	x0, [x4,1840]
	strb	wzr, [x0,418]
	.loc 1 1034 0
	ret
	.cfi_endproc
.LFE2137:
	.size	MarkPicLTRef, .-MarkPicLTRef
	.align	2
	.global	MarkSTToLTRef
	.type	MarkSTToLTRef, %function
MarkSTToLTRef:
.LFB2138:
	.loc 1 1046 0
	.cfi_startproc
.LVL222:
	stp	x29, x30, [sp, -48]!
	.cfi_def_cfa_offset 48
	.cfi_offset 29, -48
	.cfi_offset 30, -40
	add	x29, sp, 0
	.cfi_def_cfa_register 29
	stp	x21, x22, [sp,32]
	stp	x19, x20, [sp,16]
	.cfi_offset 21, -16
	.cfi_offset 22, -8
	.cfi_offset 19, -32
	.cfi_offset 20, -24
	.loc 1 1046 0
	mov	x20, x1
	mov	x21, x0
.LBB187:
.LBB188:
	.loc 1 630 0
	ldrb	w1, [x1,3]
.LVL223:
.LBE188:
.LBE187:
	.loc 1 1046 0
	mov	w22, w3
.LBB193:
.LBB189:
	.loc 1 630 0
	cbnz	w1, .L440
	ldr	w6, [x20,312]
.LBE189:
.LBE193:
	.loc 1 1056 0
	mov	w1, w3
	sub	w6, w6, #1
.LBB194:
.LBB190:
	.loc 1 639 0
	sub	w19, w6, w2
.LVL224:
.LBE190:
.LBE194:
	.loc 1 1056 0
	bl	UnMarkLTFrmByFrmIdx
.LVL225:
.L441:
	.loc 1 1085 0
	mov	x0, x21
	mov	w1, w22
	mov	w2, w19
.LVL226:
	mov	x3, x20
	bl	MarkPicLTRef
.LVL227:
	.loc 1 1088 0
	ldp	x19, x20, [sp,16]
	.cfi_remember_state
	.cfi_restore 20
	.cfi_restore 19
.LVL228:
	ldp	x21, x22, [sp,32]
	.cfi_restore 22
	.cfi_restore 21
.LVL229:
	ldp	x29, x30, [sp], 48
	.cfi_restore 30
	.cfi_restore 29
	.cfi_def_cfa 31, 0
	ret
.LVL230:
.L440:
	.cfi_restore_state
	.loc 1 1061 0 discriminator 1
	add	x0, x0, 32768
.LBB195:
.LBB191:
	.loc 1 636 0
	ldr	w6, [x20,312]
	lsl	w5, w6, 1
.LBE191:
.LBE195:
	.loc 1 1061 0 discriminator 1
	ldr	w4, [x0,2104]
.LBB196:
.LBB192:
	.loc 1 639 0
	sub	w19, w5, w2
.LVL231:
.LBE192:
.LBE196:
	.loc 1 1061 0 discriminator 1
	cbz	w4, .L441
	sub	w5, w4, #1
	add	x0, x0, 1840
	add	x5, x5, 4096
	add	x5, x5, 231
	add	x5, x21, x5, lsl 3
.L444:
	.loc 1 1063 0
	ldr	x1, [x0]
	add	x0, x0, 8
	ldrb	w3, [x1,2]
	tbz	x3, 0, .L442
.LVL232:
	.loc 1 1064 0
	ldr	w4, [x1,376]
	and	w4, w4, 16776960
	cmp	w4, 65536
	beq	.L455
.L442:
	.loc 1 1072 0
	tbz	x3, 1, .L443
	.loc 1 1073 0
	ldr	w3, [x1,416]
	and	w3, w3, 16776960
	cmp	w3, 65536
	beq	.L456
.L443:
	.loc 1 1061 0 discriminator 1
	cmp	x0, x5
	bne	.L444
	b	.L441
.L455:
	.loc 1 1066 0
	ldr	w2, [x1,384]
	cmp	w2, w19
	bne	.L442
	.loc 1 1068 0
	mov	x0, x21
	mov	w2, 1
	mov	w3, w22
	bl	UnMarkLTFldByFrmIdx
.LVL233:
	.loc 1 1069 0
	b	.L441
.L456:
	.loc 1 1075 0
	ldr	w2, [x1,424]
	cmp	w2, w19
	bne	.L443
	.loc 1 1077 0
	mov	x0, x21
	mov	w2, 2
	mov	w3, w22
	bl	UnMarkLTFldByFrmIdx
.LVL234:
	.loc 1 1078 0
	b	.L441
	.cfi_endproc
.LFE2138:
	.size	MarkSTToLTRef, .-MarkSTToLTRef
	.align	2
	.global	UpdateMaxLTFrmIdx
	.type	UpdateMaxLTFrmIdx, %function
UpdateMaxLTFrmIdx:
.LFB2139:
	.loc 1 1100 0
	.cfi_startproc
.LVL235:
	stp	x29, x30, [sp, -64]!
	.cfi_def_cfa_offset 64
	.cfi_offset 29, -64
	.cfi_offset 30, -56
	add	x29, sp, 0
	.cfi_def_cfa_register 29
	stp	x21, x22, [sp,32]
	.cfi_offset 21, -32
	.cfi_offset 22, -24
	.loc 1 1103 0
	add	x21, x0, 32768
	.loc 1 1100 0
	str	x23, [sp,48]
	stp	x19, x20, [sp,16]
	.cfi_offset 23, -16
	.cfi_offset 19, -48
	.cfi_offset 20, -40
	.loc 1 1106 0 discriminator 1
	ldr	w2, [x21,2108]
	.loc 1 1103 0
	str	w1, [x21,2112]
	.loc 1 1106 0 discriminator 1
	cbz	w2, .L457
.LBB199:
.LBB200:
	.loc 1 682 0
	add	x23, x0, 57344
	add	x20, x21, 1968
.LBE200:
.LBE199:
	.loc 1 1106 0 discriminator 1
	mov	w19, 0
.LVL236:
.LBB203:
.LBB201:
	.loc 1 682 0
	add	x23, x23, 676
.LBE201:
.LBE203:
	.loc 1 1106 0 discriminator 1
	add	x22, x21, 2108
	b	.L464
.LVL237:
.L459:
	ldr	w0, [x22]
	cmp	w0, w19
	bls	.L457
.L471:
	ldr	w1, [x21,2112]
.LVL238:
.L464:
	.loc 1 1109 0
	ldr	x3, [x20]
	.loc 1 1106 0 discriminator 2
	add	w19, w19, 1
	add	x20, x20, 8
	.loc 1 1109 0
	ldr	w0, [x3,300]
.LVL239:
	cmp	w0, w1
.LVL240:
	bcc	.L459
.LBB204:
.LBB202:
	.loc 1 655 0
	ldrb	w0, [x3,1]
	.loc 1 682 0
	mov	w2, 0
	.loc 1 671 0
	cmp	w0, 3
	.loc 1 655 0
	tbz	x0, 0, .L460
	.loc 1 658 0
	ldrb	w1, [x3,2]
	.loc 1 659 0
	strb	wzr, [x3,377]
	.loc 1 658 0
	and	w1, w1, 2
	.loc 1 660 0
	strb	wzr, [x3,378]
	.loc 1 658 0
	strb	w1, [x3,2]
.L460:
	.loc 1 663 0
	tbz	x0, 1, .L461
	.loc 1 666 0
	ldrb	w0, [x3,2]
	.loc 1 667 0
	strb	wzr, [x3,417]
	.loc 1 666 0
	and	w0, w0, 1
	.loc 1 668 0
	strb	wzr, [x3,418]
	.loc 1 666 0
	strb	w0, [x3,2]
.L461:
	.loc 1 671 0
	bne	.L462
	.loc 1 673 0
	strb	wzr, [x3,338]
	.loc 1 674 0
	strb	wzr, [x3,337]
.L462:
	.loc 1 679 0
	strb	wzr, [x3,2]
	.loc 1 682 0
	ldr	w1, [x3,288]
	ldr	w0, [x23]
	bl	FSP_SetRef
.LVL241:
.LBE202:
.LBE204:
	.loc 1 1106 0 discriminator 1
	ldr	w0, [x22]
	cmp	w0, w19
	bhi	.L471
.LVL242:
.L457:
	.loc 1 1114 0
	ldp	x19, x20, [sp,16]
	.cfi_restore 20
	.cfi_restore 19
.LVL243:
	ldp	x21, x22, [sp,32]
	.cfi_restore 22
	.cfi_restore 21
	ldr	x23, [sp,48]
	.cfi_restore 23
	ldp	x29, x30, [sp], 64
	.cfi_restore 30
	.cfi_restore 29
	.cfi_def_cfa 31, 0
	ret
	.cfi_endproc
.LFE2139:
	.size	UpdateMaxLTFrmIdx, .-UpdateMaxLTFrmIdx
	.align	2
	.global	UnMarkAllSTRef
	.type	UnMarkAllSTRef, %function
UnMarkAllSTRef:
.LFB2140:
	.loc 1 1126 0
	.cfi_startproc
.LVL244:
	stp	x29, x30, [sp, -48]!
	.cfi_def_cfa_offset 48
	.cfi_offset 29, -48
	.cfi_offset 30, -40
	add	x29, sp, 0
	.cfi_def_cfa_register 29
	stp	x21, x22, [sp,32]
	.cfi_offset 21, -16
	.cfi_offset 22, -8
	.loc 1 1129 0 discriminator 1
	add	x22, x0, 32768
	.loc 1 1126 0
	stp	x19, x20, [sp,16]
	.cfi_offset 19, -32
	.cfi_offset 20, -24
	.loc 1 1129 0 discriminator 1
	ldr	w1, [x22,2104]
	cbz	w1, .L472
	add	x21, x0, 57344
	add	x20, x22, 1840
	mov	w19, 0
.LVL245:
.LBB207:
.LBB208:
	.loc 1 682 0
	add	x21, x21, 676
.L477:
.LBE208:
.LBE207:
	.loc 1 1131 0
	ldr	x1, [x20]
.LBB211:
.LBB209:
	.loc 1 682 0
	mov	w2, 0
.LBE209:
.LBE211:
	.loc 1 1129 0 discriminator 3
	add	w19, w19, 1
	add	x20, x20, 8
.LBB212:
.LBB210:
	.loc 1 655 0
	ldrb	w0, [x1,1]
.LVL246:
	.loc 1 671 0
	cmp	w0, 3
	.loc 1 655 0
	tbz	x0, 0, .L474
	.loc 1 658 0
	ldrb	w3, [x1,2]
	.loc 1 659 0
	strb	wzr, [x1,377]
	.loc 1 658 0
	and	w3, w3, 2
	.loc 1 660 0
	strb	wzr, [x1,378]
	.loc 1 658 0
	strb	w3, [x1,2]
.L474:
	.loc 1 663 0
	tbz	x0, 1, .L475
	.loc 1 666 0
	ldrb	w0, [x1,2]
	.loc 1 667 0
	strb	wzr, [x1,417]
	.loc 1 666 0
	and	w0, w0, 1
	.loc 1 668 0
	strb	wzr, [x1,418]
	.loc 1 666 0
	strb	w0, [x1,2]
.L475:
	.loc 1 671 0
	bne	.L476
	.loc 1 673 0
	strb	wzr, [x1,338]
	.loc 1 674 0
	strb	wzr, [x1,337]
.L476:
	.loc 1 679 0
	strb	wzr, [x1,2]
	.loc 1 682 0
	ldr	w1, [x1,288]
	ldr	w0, [x21]
	bl	FSP_SetRef
.LVL247:
.LBE210:
.LBE212:
	.loc 1 1129 0 discriminator 1
	ldr	w0, [x22,2104]
	cmp	w0, w19
	bhi	.L477
.LVL248:
.L472:
	.loc 1 1135 0
	ldp	x19, x20, [sp,16]
	.cfi_restore 20
	.cfi_restore 19
.LVL249:
	ldp	x21, x22, [sp,32]
	.cfi_restore 22
	.cfi_restore 21
	ldp	x29, x30, [sp], 48
	.cfi_restore 30
	.cfi_restore 29
	.cfi_def_cfa 31, 0
	ret
	.cfi_endproc
.LFE2140:
	.size	UnMarkAllSTRef, .-UnMarkAllSTRef
	.align	2
	.global	MarkCurrPicLT
	.type	MarkCurrPicLT, %function
MarkCurrPicLT:
.LFB2141:
	.loc 1 1148 0
	.cfi_startproc
.LVL250:
	stp	x29, x30, [sp, -48]!
	.cfi_def_cfa_offset 48
	.cfi_offset 29, -48
	.cfi_offset 30, -40
.LBB217:
.LBB218:
	.loc 1 700 0 discriminator 1
	add	x3, x0, 32768
.LBE218:
.LBE217:
	.loc 1 1148 0
	add	x29, sp, 0
	.cfi_def_cfa_register 29
	str	x19, [sp,16]
	.cfi_offset 19, -32
	.loc 1 1148 0
	mov	x19, x1
	.loc 1 1150 0
	ldrb	w6, [x1,3]
	cbz	w6, .L556
	.loc 1 1157 0
	ldr	x7, [x1,296]
.LBB220:
.LBB221:
	.loc 1 725 0 discriminator 1
	ldr	w1, [x3,2108]
	cbz	w1, .L488
	sub	w1, w1, #1
	add	x3, x3, 1968
	add	x5, x1, 4096
	add	x5, x5, 247
	add	x5, x0, x5, lsl 3
	b	.L496
.L492:
	cmp	x3, x5
	beq	.L488
.L496:
	.loc 1 727 0
	ldr	x1, [x3]
	add	x3, x3, 8
	ldr	w4, [x1,300]
	cmp	w2, w4
	bne	.L492
	.loc 1 729 0
	cmp	w6, 1
	beq	.L557
	.loc 1 737 0
	cmp	w6, 2
	bne	.L492
	.loc 1 739 0 discriminator 1
	cmp	x7, x1
	bne	.L498
	.loc 1 739 0 is_stmt 0
	ldrb	w4, [x1,377]
	.loc 1 739 0 discriminator 1
	cbnz	w4, .L492
.L498:
	str	x2, [x29,40]
	.loc 1 741 0 is_stmt 1
	bl	UnMarkFrameStoreRef
.LVL251:
	ldr	x2, [x29,40]
.LVL252:
.L488:
.LBE221:
.LBE220:
	.loc 1 1162 0
	strb	wzr, [x19,5]
	.loc 1 1161 0
	mov	w0, 1
.LVL253:
	.loc 1 1163 0
	str	w2, [x19,316]
	.loc 1 1161 0
	strb	w0, [x19,4]
	.loc 1 1166 0
	ldr	x19, [sp,16]
	.cfi_remember_state
	.cfi_restore 19
.LVL254:
	ldp	x29, x30, [sp], 48
	.cfi_restore 30
	.cfi_restore 29
	.cfi_def_cfa 31, 0
	ret
.LVL255:
.L557:
	.cfi_restore_state
.LBB223:
.LBB222:
	.loc 1 731 0 discriminator 1
	cmp	x7, x1
	bne	.L498
	.loc 1 731 0 is_stmt 0
	ldrb	w4, [x1,417]
	.loc 1 731 0 discriminator 1
	cbnz	w4, .L492
	b	.L498
.LVL256:
.L556:
.LBE222:
.LBE223:
.LBB224:
.LBB219:
	.loc 1 700 0 is_stmt 1 discriminator 1
	ldr	w4, [x3,2108]
	cbz	w4, .L488
	.loc 1 702 0
	ldr	x1, [x3,1968]
.LVL257:
	ldr	w5, [x1,300]
	cmp	w2, w5
	beq	.L498
	.loc 1 700 0 discriminator 1
	cmp	w4, 1
	bls	.L488
	.loc 1 702 0
	ldr	x1, [x3,1976]
	ldr	w5, [x1,300]
	cmp	w2, w5
	beq	.L498
	.loc 1 700 0 discriminator 1
	cmp	w4, 2
	beq	.L488
	.loc 1 702 0
	ldr	x1, [x3,1984]
	ldr	w5, [x1,300]
	cmp	w2, w5
	beq	.L498
	.loc 1 700 0 discriminator 1
	cmp	w4, 3
	beq	.L488
	.loc 1 702 0
	ldr	x1, [x3,1992]
	ldr	w5, [x1,300]
	cmp	w2, w5
	beq	.L498
	.loc 1 700 0 discriminator 1
	cmp	w4, 4
	beq	.L488
	.loc 1 702 0
	ldr	x1, [x3,2000]
	ldr	w5, [x1,300]
	cmp	w2, w5
	beq	.L498
	.loc 1 700 0 discriminator 1
	cmp	w4, 5
	beq	.L488
	.loc 1 702 0
	ldr	x1, [x3,2008]
	ldr	w5, [x1,300]
	cmp	w2, w5
	beq	.L498
	.loc 1 700 0 discriminator 1
	cmp	w4, 6
	beq	.L488
	.loc 1 702 0
	ldr	x1, [x3,2016]
	ldr	w5, [x1,300]
	cmp	w2, w5
	beq	.L498
	.loc 1 700 0 discriminator 1
	cmp	w4, 7
	beq	.L488
	.loc 1 702 0
	ldr	x1, [x3,2024]
	ldr	w5, [x1,300]
	cmp	w2, w5
	beq	.L498
	.loc 1 700 0 discriminator 1
	cmp	w4, 8
	beq	.L488
	.loc 1 702 0
	ldr	x1, [x3,2032]
	ldr	w5, [x1,300]
	cmp	w2, w5
	beq	.L498
	.loc 1 700 0 discriminator 1
	cmp	w4, 9
	beq	.L488
	.loc 1 702 0
	ldr	x1, [x3,2040]
	ldr	w5, [x1,300]
	cmp	w2, w5
	beq	.L498
	.loc 1 700 0 discriminator 1
	cmp	w4, 10
	beq	.L488
	.loc 1 702 0
	ldr	x1, [x3,2048]
	ldr	w5, [x1,300]
	cmp	w2, w5
	beq	.L498
	.loc 1 700 0 discriminator 1
	cmp	w4, 11
	beq	.L488
	.loc 1 702 0
	ldr	x1, [x3,2056]
	ldr	w5, [x1,300]
	cmp	w2, w5
	beq	.L498
	.loc 1 700 0 discriminator 1
	cmp	w4, 12
	beq	.L488
	.loc 1 702 0
	ldr	x1, [x3,2064]
	ldr	w5, [x1,300]
	cmp	w2, w5
	beq	.L498
	.loc 1 700 0 discriminator 1
	cmp	w4, 13
	beq	.L488
	.loc 1 702 0
	ldr	x1, [x3,2072]
	ldr	w5, [x1,300]
	cmp	w2, w5
	beq	.L498
	.loc 1 700 0 discriminator 1
	cmp	w4, 14
	beq	.L488
	.loc 1 702 0
	ldr	x1, [x3,2080]
	ldr	w5, [x1,300]
	cmp	w2, w5
	beq	.L498
	.loc 1 700 0 discriminator 1
	cmp	w4, 15
	beq	.L488
	.loc 1 702 0
	ldr	x1, [x3,2088]
	ldr	w3, [x1,300]
	cmp	w2, w3
	beq	.L498
.LBE219:
.LBE224:
	.loc 1 1162 0
	strb	wzr, [x19,5]
	.loc 1 1161 0
	mov	w0, 1
.LVL258:
	.loc 1 1163 0
	str	w2, [x19,316]
	.loc 1 1161 0
	strb	w0, [x19,4]
	.loc 1 1166 0
	ldr	x19, [sp,16]
	.cfi_restore 19
.LVL259:
	ldp	x29, x30, [sp], 48
	.cfi_restore 29
	.cfi_restore 30
	.cfi_def_cfa 31, 0
	ret
	.cfi_endproc
.LFE2141:
	.size	MarkCurrPicLT, .-MarkCurrPicLT
	.align	2
	.global	RemoveFrameStoreOutDPB
	.type	RemoveFrameStoreOutDPB, %function
RemoveFrameStoreOutDPB:
.LFB2142:
	.loc 1 1178 0
	.cfi_startproc
.LVL260:
	stp	x29, x30, [sp, -64]!
	.cfi_def_cfa_offset 64
	.cfi_offset 29, -64
	.cfi_offset 30, -56
	add	x29, sp, 0
	.cfi_def_cfa_register 29
	stp	x23, x24, [sp,48]
	.cfi_offset 23, -16
	.cfi_offset 24, -8
	uxtw	x23, w1
.LVL261:
	stp	x21, x22, [sp,32]
	.cfi_offset 21, -32
	.cfi_offset 22, -24
	add	x22, x0, x23, lsl 3
	.loc 1 1184 0
	add	x22, x22, 32768
	.loc 1 1178 0
	stp	x19, x20, [sp,16]
	.cfi_offset 19, -48
	.cfi_offset 20, -40
	.loc 1 1184 0
	ldr	x2, [x22,1712]
	cbz	x2, .L558
	mov	x19, x0
	.loc 1 1189 0
	ldr	w0, [x2,328]
.LVL262:
	.loc 1 1190 0
	add	x21, x19, 32768
.LVL263:
	mov	w20, w1
	.loc 1 1189 0
	add	x0, x0, 8192
	.loc 1 1192 0
	add	x24, x19, 57344
	.loc 1 1189 0
	add	x0, x19, x0, lsl 2
	str	wzr, [x0,2120]
	.loc 1 1190 0
	ldr	w0, [x21,2380]
	.loc 1 1190 0 is_stmt 0 discriminator 1
	cmp	w0, wzr
	cset	w1, ne
.LVL264:
	sub	w0, w0, w1
	.loc 1 1190 0 discriminator 4
	str	w0, [x21,2380]
	.loc 1 1192 0 is_stmt 1
	ldr	w0, [x24,676]
	ldr	w1, [x2,288]
	bl	FSP_GetLogicFs
.LVL265:
	.loc 1 1193 0
	cbz	x0, .L561
	.loc 1 1195 0
	ldrsb	w0, [x0,1]
.LVL266:
	cmp	w0, 3
	beq	.L562
	.loc 1 1197 0
	ldr	x1, [x22,1712]
	mov	w2, 0
	ldr	w0, [x24,676]
	ldr	w1, [x1,288]
	bl	FSP_SetDisplay
.LVL267:
.L562:
	.loc 1 1201 0
	ldr	x1, [x22,1712]
	mov	w2, 0
	ldr	w0, [x24,676]
	ldr	w1, [x1,288]
	bl	FSP_SetRef
.LVL268:
.L561:
	.loc 1 1204 0
	ldr	x0, [x22,1712]
.LVL269:
	strb	wzr, [x0,1]
	.loc 1 1205 0
	ldr	x0, [x22,1712]
	strb	wzr, [x0,4]
	.loc 1 1206 0
	ldr	x0, [x22,1712]
	strb	wzr, [x0,2]
	.loc 1 1208 0 discriminator 1
	ldr	w0, [x21,2100]
	sub	w0, w0, #1
	cmp	w20, w0
	bcs	.L564
	.loc 1 1210 0
	add	w1, w20, 1
.LVL270:
	add	x23, x23, 4096
.LVL271:
	.loc 1 1208 0 discriminator 1
	cmp	w1, w0
	.loc 1 1210 0
	add	x1, x1, 4096
	add	x1, x1, 214
	add	x23, x23, 214
	ldr	x2, [x19,x1,lsl 3]
	str	x2, [x19,x23,lsl 3]
	.loc 1 1208 0 discriminator 1
	bcs	.L564
	.loc 1 1210 0
	add	w3, w20, 2
.LVL272:
	.loc 1 1208 0 discriminator 1
	cmp	w3, w0
	.loc 1 1210 0
	add	x3, x3, 4096
.LVL273:
	add	x3, x3, 214
	ldr	x2, [x19,x3,lsl 3]
	str	x2, [x19,x1,lsl 3]
	.loc 1 1208 0 discriminator 1
	bcs	.L564
	.loc 1 1210 0
	add	w2, w20, 3
.LVL274:
	.loc 1 1208 0 discriminator 1
	cmp	w0, w2
	.loc 1 1210 0
	add	x2, x2, 4096
.LVL275:
	add	x2, x2, 214
	ldr	x1, [x19,x2,lsl 3]
	str	x1, [x19,x3,lsl 3]
	.loc 1 1208 0 discriminator 1
	bls	.L564
	.loc 1 1210 0
	add	w1, w20, 4
.LVL276:
	.loc 1 1208 0 discriminator 1
	cmp	w0, w1
	.loc 1 1210 0
	add	x1, x1, 4096
.LVL277:
	add	x1, x1, 214
	ldr	x3, [x19,x1,lsl 3]
	str	x3, [x19,x2,lsl 3]
	.loc 1 1208 0 discriminator 1
	bls	.L564
	.loc 1 1210 0
	add	w2, w20, 5
.LVL278:
	.loc 1 1208 0 discriminator 1
	cmp	w0, w2
	.loc 1 1210 0
	add	x2, x2, 4096
.LVL279:
	add	x2, x2, 214
	ldr	x3, [x19,x2,lsl 3]
	str	x3, [x19,x1,lsl 3]
	.loc 1 1208 0 discriminator 1
	bls	.L564
	.loc 1 1210 0
	add	w1, w20, 6
.LVL280:
	.loc 1 1208 0 discriminator 1
	cmp	w0, w1
	.loc 1 1210 0
	add	x1, x1, 4096
.LVL281:
	add	x1, x1, 214
	ldr	x3, [x19,x1,lsl 3]
	str	x3, [x19,x2,lsl 3]
	.loc 1 1208 0 discriminator 1
	bls	.L564
	.loc 1 1210 0
	add	w2, w20, 7
.LVL282:
	.loc 1 1208 0 discriminator 1
	cmp	w0, w2
	.loc 1 1210 0
	add	x2, x2, 4096
.LVL283:
	add	x2, x2, 214
	ldr	x3, [x19,x2,lsl 3]
	str	x3, [x19,x1,lsl 3]
	.loc 1 1208 0 discriminator 1
	bls	.L564
	.loc 1 1210 0
	add	w1, w20, 8
.LVL284:
	.loc 1 1208 0 discriminator 1
	cmp	w0, w1
	.loc 1 1210 0
	add	x1, x1, 4096
.LVL285:
	add	x1, x1, 214
	ldr	x3, [x19,x1,lsl 3]
	str	x3, [x19,x2,lsl 3]
	.loc 1 1208 0 discriminator 1
	bls	.L564
	.loc 1 1210 0
	add	w2, w20, 9
.LVL286:
	add	x3, x2, 4096
	.loc 1 1208 0 discriminator 1
	cmp	w0, w2
	.loc 1 1210 0
	add	x3, x3, 214
	ldr	x3, [x19,x3,lsl 3]
	str	x3, [x19,x1,lsl 3]
	.loc 1 1208 0 discriminator 1
	bls	.L564
.LVL287:
	.loc 1 1210 0
	add	w1, w20, 10
	add	x2, x2, 4096
	.loc 1 1208 0 discriminator 1
	cmp	w0, w1
	.loc 1 1210 0
	add	x1, x1, 4096
	add	x1, x1, 214
	add	x2, x2, 214
	ldr	x3, [x19,x1,lsl 3]
	str	x3, [x19,x2,lsl 3]
	.loc 1 1208 0 discriminator 1
	bls	.L564
	.loc 1 1210 0
	add	w3, w20, 11
.LVL288:
	.loc 1 1208 0 discriminator 1
	cmp	w0, w3
	.loc 1 1210 0
	add	x3, x3, 4096
.LVL289:
	add	x3, x3, 214
	ldr	x2, [x19,x3,lsl 3]
	str	x2, [x19,x1,lsl 3]
	.loc 1 1208 0 discriminator 1
	bls	.L564
	.loc 1 1210 0
	add	w2, w20, 12
.LVL290:
	.loc 1 1208 0 discriminator 1
	cmp	w0, w2
	.loc 1 1210 0
	add	x2, x2, 4096
.LVL291:
	add	x2, x2, 214
	ldr	x1, [x19,x2,lsl 3]
	str	x1, [x19,x3,lsl 3]
	.loc 1 1208 0 discriminator 1
	bls	.L564
	.loc 1 1210 0
	add	w1, w20, 13
.LVL292:
	.loc 1 1208 0 discriminator 1
	cmp	w0, w1
	.loc 1 1210 0
	add	x1, x1, 4096
.LVL293:
	add	x1, x1, 214
	ldr	x3, [x19,x1,lsl 3]
	str	x3, [x19,x2,lsl 3]
	.loc 1 1208 0 discriminator 1
	bls	.L564
	.loc 1 1210 0
	add	w2, w20, 14
.LVL294:
	.loc 1 1208 0 discriminator 1
	cmp	w0, w2
	.loc 1 1210 0
	add	x2, x2, 4096
.LVL295:
	add	x2, x2, 214
	ldr	x3, [x19,x2,lsl 3]
	str	x3, [x19,x1,lsl 3]
	.loc 1 1208 0 discriminator 1
	bls	.L564
	.loc 1 1210 0
	add	w1, w20, 15
.LVL296:
	.loc 1 1208 0 discriminator 1
	cmp	w0, w1
	.loc 1 1210 0
	add	x1, x1, 4096
.LVL297:
	add	x1, x1, 214
	ldr	x3, [x19,x1,lsl 3]
	str	x3, [x19,x2,lsl 3]
	.loc 1 1208 0 discriminator 1
	bls	.L564
	.loc 1 1210 0
	add	w20, w20, 16
	add	x20, x20, 4096
.LVL298:
	add	x20, x20, 214
	ldr	x2, [x19,x20,lsl 3]
	str	x2, [x19,x1,lsl 3]
.LVL299:
.L564:
	.loc 1 1212 0
	uxtw	x1, w0
	add	x1, x1, 4096
	add	x1, x1, 214
	str	xzr, [x19,x1,lsl 3]
	.loc 1 1213 0
	str	w0, [x21,2100]
.LVL300:
.L558:
	.loc 1 1216 0
	ldp	x19, x20, [sp,16]
	.cfi_restore 20
	.cfi_restore 19
	ldp	x21, x22, [sp,32]
	.cfi_restore 22
	.cfi_restore 21
	ldp	x23, x24, [sp,48]
	.cfi_restore 24
	.cfi_restore 23
	ldp	x29, x30, [sp], 64
	.cfi_restore 30
	.cfi_restore 29
	.cfi_def_cfa 31, 0
	ret
	.cfi_endproc
.LFE2142:
	.size	RemoveFrameStoreOutDPB, .-RemoveFrameStoreOutDPB
	.align	2
	.global	RemoveUnUsedFrameStore
	.type	RemoveUnUsedFrameStore, %function
RemoveUnUsedFrameStore:
.LFB2143:
	.loc 1 1228 0
	.cfi_startproc
.LVL301:
	stp	x29, x30, [sp, -80]!
	.cfi_def_cfa_offset 80
	.cfi_offset 29, -80
	.cfi_offset 30, -72
	.loc 1 1237 0
	add	x1, x0, 32768
	.loc 1 1228 0
	add	x29, sp, 0
	.cfi_def_cfa_register 29
	stp	x19, x20, [sp,16]
	stp	x21, x22, [sp,32]
	stp	x23, x24, [sp,48]
	str	x25, [sp,64]
	.cfi_offset 19, -64
	.cfi_offset 20, -56
	.cfi_offset 21, -48
	.cfi_offset 22, -40
	.cfi_offset 23, -32
	.cfi_offset 24, -24
	.cfi_offset 25, -16
	.loc 1 1237 0
	ldr	w24, [x1,2100]
.LVL302:
	.loc 1 1238 0 discriminator 1
	cbz	w24, .L588
	add	x23, x0, 57344
	mov	x22, x0
	mov	w21, 0
.LVL303:
	mov	w20, 0
.LVL304:
	.loc 1 1240 0
	add	x23, x23, 676
	.loc 1 1245 0
	mov	w25, -1
	b	.L577
.LVL305:
.L589:
	.loc 1 1257 0 discriminator 1
	ldrb	w0, [x19,4]
	cbnz	w0, .L580
	.loc 1 1258 0
	ldr	w2, [x19,456]
	.loc 1 1261 0
	mov	x0, x22
	mov	w1, w21
	.loc 1 1258 0
	cmp	w2, 1
	beq	.L580
	.loc 1 1260 0
	strb	wzr, [x19,1]
	.loc 1 1238 0 discriminator 2
	add	w20, w20, 1
	.loc 1 1261 0
	bl	RemoveFrameStoreOutDPB
.LVL306:
	.loc 1 1238 0 discriminator 1
	cmp	w20, w24
	beq	.L588
.L577:
	add	x19, x22, x21, uxtw 3
	.loc 1 1240 0
	add	x19, x19, 32768
	ldr	w0, [x23]
	ldr	x1, [x19,1712]
	ldr	w1, [x1,288]
	bl	FSP_GetLogicFs
.LVL307:
	cbz	x0, .L578
	.loc 1 1243 0
	ldrsh	w0, [x0]
.LVL308:
	cbnz	w0, .L579
	.loc 1 1245 0
	ldr	x0, [x19,1712]
	str	w25, [x0,288]
	.loc 1 1246 0
	ldr	x0, [x19,1712]
	strb	wzr, [x0,2]
.LVL309:
.L578:
	.loc 1 1254 0
	ldr	x0, [x19,1712]
.LVL310:
	ldr	w1, [x0,456]
	cmp	w1, 1
	cset	w1, eq
	strb	w1, [x0,4]
.L579:
	.loc 1 1257 0
	ldr	x19, [x19,1712]
	ldrb	w0, [x19,2]
	cbz	w0, .L589
.L580:
	.loc 1 1238 0 discriminator 2
	add	w20, w20, 1
	.loc 1 1265 0
	add	w21, w21, 1
	.loc 1 1238 0 discriminator 1
	cmp	w20, w24
	bne	.L577
.L588:
	.loc 1 1270 0
	mov	w0, 0
	ldr	x25, [sp,64]
	.cfi_restore 25
	ldp	x19, x20, [sp,16]
	.cfi_restore 20
	.cfi_restore 19
.LVL311:
	ldp	x21, x22, [sp,32]
	.cfi_restore 22
	.cfi_restore 21
.LVL312:
	ldp	x23, x24, [sp,48]
	.cfi_restore 24
	.cfi_restore 23
.LVL313:
	ldp	x29, x30, [sp], 80
	.cfi_restore 30
	.cfi_restore 29
	.cfi_def_cfa 31, 0
	ret
	.cfi_endproc
.LFE2143:
	.size	RemoveUnUsedFrameStore, .-RemoveUnUsedFrameStore
	.align	2
	.global	CheckFrameStore
	.type	CheckFrameStore, %function
CheckFrameStore:
.LFB2144:
	.loc 1 1282 0
	.cfi_startproc
.LVL314:
	stp	x29, x30, [sp, -32]!
	.cfi_def_cfa_offset 32
	.cfi_offset 29, -32
	.cfi_offset 30, -24
	add	x29, sp, 0
	.cfi_def_cfa_register 29
	stp	x19, x20, [sp,16]
	.cfi_offset 19, -16
	.cfi_offset 20, -8
	.loc 1 1287 0
	ldr	x3, [x0,8]
	ldrsb	w2, [x3]
	cmp	w2, 1
	beq	.L623
	.loc 1 1289 0
	add	x4, x0, 53248
	ldr	w2, [x4,3620]
	cbz	w2, .L621
.L623:
	add	x2, x0, 57344
.L591:
	mov	x19, x1
	mov	x20, x0
	.loc 1 1308 0
	ldr	w1, [x1,288]
.LVL315:
	ldr	w0, [x2,676]
.LVL316:
	bl	FSP_GetLogicFs
.LVL317:
	mov	x1, x0
.LVL318:
	.loc 1 1309 0
	cbz	x0, .L594
	.loc 1 1311 0
	ldrsb	w3, [x0,1]
	cbz	w3, .L607
	cmp	w3, 3
	beq	.L607
	.loc 1 1334 0
	ldrb	w2, [x19,1]
	ldrb	w3, [x19]
	cbz	w2, .L603
	.loc 1 1334 0 is_stmt 0 discriminator 1
	cmp	w3, 1
	beq	.L603
	.loc 1 1340 0 is_stmt 1
	ldr	w0, [x19]
	mov	w3, 50332416
	and	w0, w0, -16711936
	cmp	w0, w3
	beq	.L624
	.loc 1 1346 0
	cmp	w2, 1
	beq	.L625
	.loc 1 1352 0
	cmp	w2, 2
	beq	.L626
.L601:
	.loc 1 1358 0
	ldr	x3, [x20,8]
	.loc 1 1364 0
	mov	w0, 0
	.loc 1 1358 0
	ldr	w2, [x1,92]
	ldr	w3, [x3,8]
	cmp	w2, w3
	bhi	.L627
.L617:
	.loc 1 1365 0
	ldp	x19, x20, [sp,16]
	.cfi_remember_state
	.cfi_restore 20
	.cfi_restore 19
.LVL319:
	ldp	x29, x30, [sp], 32
	.cfi_restore 30
	.cfi_restore 29
	.cfi_def_cfa 31, 0
	ret
.LVL320:
.L621:
	.cfi_restore_state
	.loc 1 1296 0
	ldr	w2, [x1,456]
	cmp	w2, 1
	add	x2, x0, 57344
	beq	.L592
	.loc 1 1296 0 is_stmt 0 discriminator 1
	ldr	w5, [x2,604]
	cbz	w5, .L628
.L592:
	.loc 1 1299 0 is_stmt 1
	mov	w3, 1
	str	w3, [x4,3620]
	b	.L591
.LVL321:
.L607:
	.loc 1 1314 0
	adrp	x1, .LC15
	ldr	w2, [x19,288]
	add	x1, x1, :lo12:.LC15
	mov	w0, 1
.LVL322:
	bl	dprint_linux_kernel
.LVL323:
.L597:
	.loc 1 1326 0
	ldr	w0, [x19,456]
	cmp	w0, 1
	.loc 1 1330 0
	mov	w0, -3
	.loc 1 1326 0
	bne	.L617
	.loc 1 1328 0
	mov	w1, 2
	str	w1, [x19,456]
	b	.L617
.LVL324:
.L625:
	.loc 1 1346 0 discriminator 1
	ldrb	w3, [x19,3]
	tbz	x3, 0, .L601
	.loc 1 1348 0
	adrp	x1, .LC19
.LVL325:
	mov	w0, w2
	add	x1, x1, :lo12:.LC19
	bl	dprint_linux_kernel
.LVL326:
	.loc 1 1349 0
	mov	w0, -1
	b	.L617
.LVL327:
.L628:
	.loc 1 1296 0 discriminator 2
	ldr	w3, [x3,16]
	cbnz	w3, .L592
	.loc 1 1303 0
	mov	w0, -1
.LVL328:
	b	.L617
.LVL329:
.L626:
	.loc 1 1352 0 discriminator 1
	ldrb	w3, [x19,3]
	tbz	x3, 1, .L601
	.loc 1 1354 0
	adrp	x1, .LC20
.LVL330:
	mov	w0, 1
	add	x1, x1, :lo12:.LC20
	bl	dprint_linux_kernel
.LVL331:
	.loc 1 1355 0
	mov	w0, -1
	b	.L617
.LVL332:
.L594:
	.loc 1 1319 0
	ldr	w3, [x19,456]
	adrp	x1, .LC16
	ldr	w4, [x19,288]
	add	x1, x1, :lo12:.LC16
	mov	x2, x19
	mov	w0, 1
.LVL333:
	bl	dprint_linux_kernel
.LVL334:
	b	.L597
.LVL335:
.L603:
	.loc 1 1336 0
	adrp	x1, .LC17
	mov	w0, 1
.LVL336:
	add	x1, x1, :lo12:.LC17
	bl	dprint_linux_kernel
.LVL337:
	.loc 1 1337 0
	mov	w0, -1
	b	.L617
.LVL338:
.L627:
	.loc 1 1360 0
	adrp	x1, .LC21
.LVL339:
	mov	w0, 1
	add	x1, x1, :lo12:.LC21
	bl	dprint_linux_kernel
.LVL340:
	.loc 1 1361 0
	mov	w0, -1
	b	.L617
.LVL341:
.L624:
	.loc 1 1342 0
	ldrb	w3, [x19,3]
	adrp	x1, .LC18
.LVL342:
	mov	w0, 1
	add	x1, x1, :lo12:.LC18
	bl	dprint_linux_kernel
.LVL343:
	.loc 1 1343 0
	mov	w0, -1
	b	.L617
	.cfi_endproc
.LFE2144:
	.size	CheckFrameStore, .-CheckFrameStore
	.align	2
	.global	ExchangePts
	.type	ExchangePts, %function
ExchangePts:
.LFB2145:
	.loc 1 1369 0
	.cfi_startproc
.LVL344:
	stp	x29, x30, [sp, -80]!
	.cfi_def_cfa_offset 80
	.cfi_offset 29, -80
	.cfi_offset 30, -72
	add	x29, sp, 0
	.cfi_def_cfa_register 29
	stp	x19, x20, [sp,16]
	stp	x21, x22, [sp,32]
	stp	x23, x24, [sp,48]
	stp	x25, x26, [sp,64]
	.cfi_offset 19, -64
	.cfi_offset 20, -56
	.cfi_offset 21, -48
	.cfi_offset 22, -40
	.cfi_offset 23, -32
	.cfi_offset 24, -24
	.cfi_offset 25, -16
	.cfi_offset 26, -8
	.loc 1 1375 0
	ldr	x2, [x1,232]
	cmn	x2, #1
	beq	.L629
	.loc 1 1381 0 discriminator 1
	add	x2, x0, 32768
	ldr	w3, [x2,2100]
	cbz	w3, .L629
	.loc 1 1385 0
	add	x21, x0, 57344
	mov	x25, x0
	mov	x24, x1
	add	x19, x2, 1712
	.loc 1 1381 0 discriminator 1
	mov	x23, -1
	mov	w20, 0
	mov	x22, -2
	.loc 1 1385 0
	add	x21, x21, 676
	.loc 1 1381 0 discriminator 1
	add	x26, x2, 2100
.LVL345:
.L634:
	.loc 1 1383 0
	ldr	x2, [x19]
	cbz	x2, .L633
	.loc 1 1385 0
	ldr	w0, [x21]
.LVL346:
	ldr	w1, [x2,288]
	bl	FSP_GetLogicFs
.LVL347:
	cbz	x0, .L633
	.loc 1 1387 0
	ldrsb	w0, [x0,1]
.LVL348:
	cmp	w0, 3
	cbz	w0, .L633
	beq	.L633
	.loc 1 1397 0
	ldr	x0, [x19]
	ldr	x0, [x0,232]
	cmp	x0, x22
	bcs	.L633
	sxtw	x23, w20
	mov	x22, x0
.LVL349:
.L633:
	.loc 1 1381 0 discriminator 1
	ldr	w2, [x26]
	.loc 1 1381 0 is_stmt 0 discriminator 2
	add	w20, w20, 1
	add	x19, x19, 8
	.loc 1 1381 0 discriminator 1
	cmp	w20, w2
	bcc	.L634
	.loc 1 1406 0 is_stmt 1
	cmn	w23, #1
	beq	.L629
	.loc 1 1408 0
	ldr	x2, [x24,232]
	cmp	x2, x22
	bhi	.L648
.L629:
	.loc 1 1416 0
	ldp	x19, x20, [sp,16]
	.cfi_remember_state
	.cfi_restore 20
	.cfi_restore 19
	ldp	x21, x22, [sp,32]
	.cfi_restore 22
	.cfi_restore 21
	ldp	x23, x24, [sp,48]
	.cfi_restore 24
	.cfi_restore 23
	ldp	x25, x26, [sp,64]
	.cfi_restore 26
	.cfi_restore 25
	ldp	x29, x30, [sp], 80
	.cfi_restore 30
	.cfi_restore 29
	.cfi_def_cfa 31, 0
	ret
.L648:
	.cfi_restore_state
	.loc 1 1410 0
	adrp	x1, .LC22
	mov	x3, x22
	add	x1, x1, :lo12:.LC22
	mov	w0, 29
.LVL350:
	bl	dprint_linux_kernel
.LVL351:
	.loc 1 1411 0
	add	x0, x23, 4096
	ldr	x1, [x24,232]
	add	x0, x0, 214
	ldr	x0, [x25,x0,lsl 3]
	str	x1, [x0,232]
	.loc 1 1412 0
	str	x22, [x24,232]
	.loc 1 1416 0
	ldp	x19, x20, [sp,16]
	.cfi_restore 19
	.cfi_restore 20
	ldp	x21, x22, [sp,32]
	.cfi_restore 21
	.cfi_restore 22
	ldp	x23, x24, [sp,48]
	.cfi_restore 23
	.cfi_restore 24
.LVL352:
	ldp	x25, x26, [sp,64]
	.cfi_restore 25
	.cfi_restore 26
.LVL353:
	ldp	x29, x30, [sp], 80
	.cfi_restore 29
	.cfi_restore 30
	.cfi_def_cfa 31, 0
	ret
	.cfi_endproc
.LFE2145:
	.size	ExchangePts, .-ExchangePts
	.align	2
	.global	GetImagePara
	.type	GetImagePara, %function
GetImagePara:
.LFB2146:
	.loc 1 1428 0
	.cfi_startproc
.LVL354:
	stp	x29, x30, [sp, -48]!
	.cfi_def_cfa_offset 48
	.cfi_offset 29, -48
	.cfi_offset 30, -40
	.loc 1 1445 0
	add	x2, x0, 53248
	.loc 1 1428 0
	add	x29, sp, 0
	.cfi_def_cfa_register 29
	stp	x19, x20, [sp,16]
	str	x21, [sp,32]
	.cfi_offset 19, -32
	.cfi_offset 20, -24
	.cfi_offset 21, -16
	.loc 1 1428 0
	mov	x19, x1
	.loc 1 1442 0
	ldr	w4, [x1,52]
	.loc 1 1447 0
	ldrb	w3, [x1,1]
	.loc 1 1443 0
	mov	w1, -772
.LVL355:
	and	w1, w4, w1
	str	w1, [x19,52]
	.loc 1 1447 0
	cmp	w3, 3
	.loc 1 1445 0
	ldr	w2, [x2,3628]
	lsl	w2, w2, 10
	str	w2, [x19,80]
	.loc 1 1447 0
	bls	.L684
	add	x21, x0, 57344
	add	x20, x0, 32768
.L650:
	.loc 1 1575 0
	ldr	x1, [x0,8]
	ldr	w1, [x1,16]
	cmp	w1, wzr
	ble	.L668
	.loc 1 1575 0 is_stmt 0 discriminator 1
	ldrb	w1, [x19,336]
	cbz	w1, .L687
.L668:
	.loc 1 1581 0 is_stmt 1
	mov	x1, x19
	bl	ExchangePts
.LVL356:
	.loc 1 1584 0
	ldrsb	w0, [x20,1664]
	cbz	w0, .L669
	.loc 1 1586 0
	ldr	w0, [x20,1680]
	cmp	w0, 3
	beq	.L688
	.loc 1 1590 0
	cmp	w0, 4
	beq	.L689
	.loc 1 1594 0
	cmp	w0, 5
	beq	.L690
	.loc 1 1600 0
	str	wzr, [x19,140]
	.loc 1 1601 0
	adrp	x1, .LC23
	mov	w0, 0
	add	x1, x1, :lo12:.LC23
	ldr	w2, [x20,1680]
	bl	dprint_linux_kernel
.LVL357:
.L669:
	.loc 1 1605 0
	ldr	w0, [x21,676]
	ldr	w1, [x19,288]
	bl	FSP_GetFsImagePtr
.LVL358:
	.loc 1 1606 0
	cbz	x0, .L649
	.loc 1 1608 0
	add	x1, x19, 8
	mov	x2, 280
	bl	memcpy
.LVL359:
.L649:
	.loc 1 1612 0
	ldp	x19, x20, [sp,16]
	.cfi_remember_state
	.cfi_restore 20
	.cfi_restore 19
.LVL360:
	ldr	x21, [sp,32]
	.cfi_restore 21
	ldp	x29, x30, [sp], 48
	.cfi_restore 30
	.cfi_restore 29
	.cfi_def_cfa 31, 0
	ret
.LVL361:
.L684:
	.cfi_restore_state
	.loc 1 1447 0
	adrp	x2, .L652
	add	x2, x2, :lo12:.L652
	ldrb	w2, [x2,w3,uxtw]
	adr	x5, .Lrtx652
	add	x2, x5, w2, sxtb #2
	br	x2
.Lrtx652:
	.section	.rodata
	.align	0
	.align	2
.L652:
	.byte	(.L651 - .Lrtx652) / 4
	.byte	(.L653 - .Lrtx652) / 4
	.byte	(.L654 - .Lrtx652) / 4
	.byte	(.L651 - .Lrtx652) / 4
	.text
.L687:
	.loc 1 1576 0
	cmp	w3, 3
	bne	.L668
	.loc 1 1578 0
	ldr	w1, [x19,52]
	and	w1, w1, -769
	str	w1, [x19,52]
	b	.L668
.L653:
	.loc 1 1567 0
	ldr	w2, [x19,316]
	add	x21, x0, 57344
	.loc 1 1568 0
	ldr	w4, [x19,320]
	add	x20, x0, 32768
	.loc 1 1567 0
	and	w2, w2, 3
	.loc 1 1568 0
	str	w4, [x19,92]
	orr	w1, w1, w2
	.loc 1 1566 0
	orr	w1, w1, 1792
	.loc 1 1564 0
	str	w1, [x19,52]
	.loc 1 1569 0
	b	.L650
.L651:
	.loc 1 1453 0
	ldrb	w1, [x19,336]
	cbnz	w1, .L655
	.loc 1 1455 0
	ldr	w1, [x19,320]
	.loc 1 1458 0
	ldr	w2, [x19,312]
	.loc 1 1455 0
	str	w1, [x19,92]
	.loc 1 1457 0
	ldr	w1, [x19,316]
	.loc 1 1458 0
	cbz	w2, .L674
	mov	w6, 3840
	add	x21, x0, 57344
.L656:
	.loc 1 1521 0
	ldr	w5, [x19,388]
	ldr	w2, [x19,428]
	cmp	w5, w2
	beq	.L691
	.loc 1 1523 0
	cset	w2, le
.LVL362:
.L666:
	.loc 1 1536 0
	add	x20, x0, 32768
	ldrb	w5, [x20,1700]
	cmp	w5, 3
	beq	.L675
	lsl	w2, w2, 12
.LVL363:
	cmp	w5, 4
	csel	w2, w2, wzr, ne
.L667:
	.loc 1 1545 0
	mov	w5, -13060
	.loc 1 1550 0
	and	w1, w1, 3
	.loc 1 1545 0
	and	w4, w4, w5
	orr	w4, w6, w4
	orr	w1, w4, w1
	.loc 1 1549 0
	orr	w1, w1, w2
	.loc 1 1546 0
	str	w1, [x19,52]
	.loc 1 1551 0
	b	.L650
.L654:
	.loc 1 1558 0
	ldr	w2, [x19,316]
	add	x21, x0, 57344
	.loc 1 1559 0
	ldr	w4, [x19,320]
	add	x20, x0, 32768
	.loc 1 1558 0
	and	w2, w2, 3
	.loc 1 1559 0
	str	w4, [x19,92]
	orr	w1, w1, w2
	.loc 1 1557 0
	mov	w2, 2816
	orr	w1, w1, w2
	.loc 1 1555 0
	str	w1, [x19,52]
	.loc 1 1560 0
	b	.L650
.LVL364:
.L688:
	.loc 1 1588 0
	mov	w0, 1
	str	w0, [x19,140]
	b	.L669
.L690:
	.loc 1 1596 0
	mov	w0, 3
	str	w0, [x19,140]
	b	.L669
.LVL365:
.L655:
	.loc 1 1475 0
	add	x21, x0, 57344
	ldr	w5, [x19,392]
	.loc 1 1476 0
	ldr	w9, [x19,432]
	.loc 1 1475 0
	ldr	w1, [x21,672]
	cmp	w5, w1
	bhi	.L692
	.loc 1 1477 0
	cmp	w1, w9
	bcc	.L660
.L658:
	.loc 1 1482 0
	ldr	w1, [x19,320]
	.loc 1 1483 0
	mov	w6, 3
.LVL366:
	.loc 1 1482 0
	str	w1, [x19,92]
	ldr	w8, [x19,396]
	.loc 1 1484 0
	ldr	w1, [x19,316]
	ldr	w7, [x19,436]
.L661:
	.loc 1 1502 0
	ldrb	w2, [x19,3]
	cmp	w2, 1
	beq	.L693
	.loc 1 1509 0
	cmp	w2, 2
	beq	.L664
	lsl	w6, w6, 10
.LVL367:
	orr	w6, w6, 768
.L663:
	.loc 1 1516 0
	str	w8, [x19,44]
	.loc 1 1517 0
	str	w7, [x19,48]
	b	.L656
.L660:
	.loc 1 1499 0
	ldr	w1, [x19,396]
	.loc 1 1498 0
	mov	w6, 1
.LVL368:
	.loc 1 1499 0
	ldr	w7, [x19,436]
	.loc 1 1497 0
	str	w5, [x19,92]
	.loc 1 1499 0
	mov	w8, w1
	b	.L661
.LVL369:
.L689:
	.loc 1 1592 0
	mov	w0, 2
	str	w0, [x19,140]
	b	.L669
.LVL370:
.L675:
	mov	w2, 4096
.LVL371:
	b	.L667
.L691:
	.loc 1 1523 0
	ldr	x5, [x19,56]
	mov	x2, 720
	movk	x2, 0x1e0, lsl 32
	cmp	x5, x2
	cset	w2, ne
.LVL372:
	b	.L666
.LVL373:
.L692:
	.loc 1 1475 0 discriminator 1
	cmp	w1, w9
	bcc	.L658
	.loc 1 1492 0
	ldr	w1, [x19,436]
	.loc 1 1491 0
	mov	w6, 2
.LVL374:
	.loc 1 1490 0
	str	w9, [x19,92]
	ldr	w8, [x19,396]
	.loc 1 1492 0
	mov	w7, w1
	b	.L661
.LVL375:
.L674:
	mov	w6, 3584
	add	x21, x0, 57344
	b	.L656
.LVL376:
.L693:
	.loc 1 1505 0
	str	w9, [x19,92]
	.loc 1 1507 0
	mov	w1, w7
	mov	w6, 2816
.LVL377:
	b	.L663
.LVL378:
.L664:
	.loc 1 1512 0
	str	w5, [x19,92]
	.loc 1 1514 0
	mov	w1, w8
	.loc 1 1512 0
	mov	w6, 1792
.LVL379:
	b	.L663
	.cfi_endproc
.LFE2146:
	.size	GetImagePara, .-GetImagePara
	.align	2
	.global	SetFrmRepeatCount
	.type	SetFrmRepeatCount, %function
SetFrmRepeatCount:
.LFB2147:
	.loc 1 1616 0
	.cfi_startproc
.LVL380:
	.loc 1 1617 0
	ldr	x2, [x0,8]
	ldr	w2, [x2,684]
	add	w2, w2, 2047
	cmp	w2, 4095
	bls	.L695
.LBB227:
.LBB228:
	.loc 1 1619 0
	add	x3, x0, 57344
	add	x0, x0, 32768
.LVL381:
	ldr	w2, [x3,696]
	ldr	w4, [x0,2096]
	ldr	w0, [x3,692]
	add	w2, w4, w2, lsr 1
	lsr	w0, w0, 1
	add	w4, w2, 1
	cmp	w0, w4
	bcc	.L695
	sub	w0, w0, #1
	.loc 1 1621 0
	sub	w0, w0, w2
	cmp	w0, 1
	bls	.L696
	.loc 1 1623 0
	mov	w0, 2
	str	w0, [x1,24]
	.loc 1 1624 0
	ldr	w0, [x3,696]
	add	w0, w0, 4
	str	w0, [x3,696]
.LBE228:
.LBE227:
	.loc 1 1643 0
	ret
.LVL382:
.L695:
.LBB231:
.LBB229:
	.loc 1 1634 0
	str	wzr, [x1,24]
.LBE229:
.LBE231:
	.loc 1 1643 0
	ret
.LVL383:
.L696:
.LBB232:
.LBB230:
	.loc 1 1628 0
	mov	w0, 1
	str	w0, [x1,24]
	.loc 1 1629 0
	ldr	w0, [x3,696]
	add	w0, w0, 2
	str	w0, [x3,696]
.LBE230:
.LBE232:
	.loc 1 1643 0
	ret
	.cfi_endproc
.LFE2147:
	.size	SetFrmRepeatCount, .-SetFrmRepeatCount
	.align	2
	.global	SplitFrmToFlds
	.type	SplitFrmToFlds, %function
SplitFrmToFlds:
.LFB2150:
	.loc 1 1825 0
	.cfi_startproc
.LVL384:
	.loc 1 1827 0
	ldrb	w4, [x0,338]
	.loc 1 1828 0
	mov	w6, 1
	.loc 1 1826 0
	ldrb	w5, [x0,337]
	.loc 1 1829 0
	ldr	w3, [x0,352]
	.loc 1 1830 0
	ldr	w2, [x0,356]
	.loc 1 1831 0
	ldr	x1, [x0,368]
	.loc 1 1827 0
	strb	w4, [x0,378]
	.loc 1 1834 0
	strb	w4, [x0,418]
	.loc 1 1835 0
	mov	w4, 2
	.loc 1 1826 0
	strb	w5, [x0,377]
	.loc 1 1828 0
	strb	w6, [x0,376]
	.loc 1 1829 0
	str	w3, [x0,392]
	.loc 1 1830 0
	str	w2, [x0,396]
	.loc 1 1831 0
	str	x1, [x0,408]
	.loc 1 1833 0
	strb	w5, [x0,417]
	.loc 1 1835 0
	strb	w4, [x0,416]
	.loc 1 1836 0
	str	w3, [x0,432]
	.loc 1 1837 0
	str	w2, [x0,436]
	.loc 1 1838 0
	str	x1, [x0,448]
	.loc 1 1841 0
	ret
	.cfi_endproc
.LFE2150:
	.size	SplitFrmToFlds, .-SplitFrmToFlds
	.align	2
	.global	CombineFldsToFrm
	.type	CombineFldsToFrm, %function
CombineFldsToFrm:
.LFB2151:
	.loc 1 1854 0
	.cfi_startproc
.LVL385:
	.loc 1 1855 0
	ldr	w3, [x0,388]
	ldr	w2, [x0,428]
	.loc 1 1857 0
	ldr	w5, [x0,432]
	ldr	w1, [x0,392]
	.loc 1 1855 0
	cmp	w2, w3
	csel	w2, w2, w3, le
	.loc 1 1858 0
	ldr	x4, [x0,408]
	.loc 1 1857 0
	add	w1, w5, w1
	.loc 1 1860 0
	ldrb	w3, [x0,417]
	.loc 1 1857 0
	lsr	w1, w1, 1
	.loc 1 1855 0
	str	w2, [x0,348]
	str	w2, [x0,304]
	.loc 1 1856 0
	mov	w2, 3
	.loc 1 1857 0
	str	w1, [x0,352]
	.loc 1 1856 0
	strb	w2, [x0,336]
	.loc 1 1858 0
	str	x4, [x0,368]
	.loc 1 1860 0
	cbz	w3, .L700
	.loc 1 1860 0 is_stmt 0 discriminator 1
	ldrb	w2, [x0,377]
	cbnz	w2, .L701
.L700:
	.loc 1 1861 0 is_stmt 1
	ldr	w2, [x0,416]
	.loc 1 1860 0 discriminator 6
	strb	wzr, [x0,337]
	.loc 1 1862 0
	tst	w2, 16776960
	beq	.L704
	.loc 1 1862 0 is_stmt 0 discriminator 1
	ldr	w2, [x0,376]
	.loc 1 1862 0 discriminator 4
	tst	w2, 16776960
	bne	.L713
.L704:
	mov	w4, 0
.L703:
	.loc 1 1875 0 is_stmt 1
	ldr	w3, [x0,396]
	ldr	w2, [x0,436]
	.loc 1 1877 0
	str	w1, [x0,320]
	.loc 1 1875 0
	cmp	w2, w3
	.loc 1 1861 0
	strb	w4, [x0,338]
	.loc 1 1875 0
	csel	w1, w2, w3, cs
	.loc 1 1874 0
	str	w1, [x0,356]
	str	w1, [x0,316]
	.loc 1 1880 0
	ret
.L701:
	.loc 1 1861 0
	ldr	w2, [x0,416]
	.loc 1 1860 0 discriminator 6
	mov	w3, 1
	strb	w3, [x0,337]
	.loc 1 1862 0
	mov	w4, 0
	tst	w2, 16776960
	bne	.L703
	b	.L704
.L713:
	mov	w4, 1
	b	.L703
	.cfi_endproc
.LFE2151:
	.size	CombineFldsToFrm, .-CombineFldsToFrm
	.align	2
	.global	GetAPC
	.type	GetAPC, %function
GetAPC:
.LFB2152:
	.loc 1 1892 0
	.cfi_startproc
.LVL386:
	stp	x29, x30, [sp, -64]!
	.cfi_def_cfa_offset 64
	.cfi_offset 29, -64
	.cfi_offset 30, -56
	add	x29, sp, 0
	.cfi_def_cfa_register 29
	stp	x19, x20, [sp,16]
	stp	x21, x22, [sp,32]
	stp	x23, x24, [sp,48]
	.cfi_offset 19, -48
	.cfi_offset 20, -40
	.cfi_offset 21, -32
	.cfi_offset 22, -24
	.cfi_offset 23, -16
	.cfi_offset 24, -8
	.loc 1 1892 0
	mov	x20, x1
	mov	x21, x0
	.loc 1 1897 0
	cbz	x1, .L771
	.loc 1 1899 0
	cmp	w2, 1
	beq	.L718
	cmp	w2, 2
	beq	.L719
	.loc 1 1911 0
	ldr	w22, [x1,388]
	.loc 1 1912 0
	ldr	w24, [x1,428]
.L720:
	.loc 1 1915 0 discriminator 1
	add	x19, x21, 32768
	ldr	w0, [x19,2376]
	cbz	w0, .L768
	.loc 1 1917 0
	ldr	w1, [x19,2120]
	cbz	w1, .L772
	.loc 1 1915 0 discriminator 1
	cmp	w0, 1
	bls	.L768
	.loc 1 1917 0
	ldr	w1, [x19,2124]
	cbz	w1, .L730
	.loc 1 1915 0 discriminator 1
	cmp	w0, 2
	beq	.L768
	.loc 1 1917 0
	ldr	w1, [x19,2128]
	cbz	w1, .L732
	.loc 1 1915 0 discriminator 1
	cmp	w0, 3
	beq	.L768
	.loc 1 1917 0
	ldr	w1, [x19,2132]
	cbz	w1, .L734
	.loc 1 1915 0 discriminator 1
	cmp	w0, 4
	beq	.L768
	.loc 1 1917 0
	ldr	w1, [x19,2136]
	cbz	w1, .L736
	.loc 1 1915 0 discriminator 1
	cmp	w0, 5
	beq	.L768
	.loc 1 1917 0
	ldr	w1, [x19,2140]
	cbz	w1, .L738
	.loc 1 1915 0 discriminator 1
	cmp	w0, 6
	beq	.L768
	.loc 1 1917 0
	ldr	w1, [x19,2144]
	cbz	w1, .L740
	.loc 1 1915 0 discriminator 1
	cmp	w0, 7
	beq	.L768
	.loc 1 1917 0
	ldr	w1, [x19,2148]
	cbz	w1, .L742
	.loc 1 1915 0 discriminator 1
	cmp	w0, 8
	beq	.L768
	.loc 1 1917 0
	ldr	w1, [x19,2152]
	cbz	w1, .L744
	.loc 1 1915 0 discriminator 1
	cmp	w0, 9
	beq	.L768
	.loc 1 1917 0
	ldr	w1, [x19,2156]
	cbz	w1, .L746
	.loc 1 1915 0 discriminator 1
	cmp	w0, 10
	beq	.L768
	.loc 1 1917 0
	ldr	w1, [x19,2160]
	cbz	w1, .L748
	.loc 1 1915 0 discriminator 1
	cmp	w0, 11
	beq	.L768
	.loc 1 1917 0
	ldr	w1, [x19,2164]
	cbz	w1, .L750
	.loc 1 1915 0 discriminator 1
	cmp	w0, 12
	beq	.L768
	.loc 1 1917 0
	ldr	w1, [x19,2168]
	cbz	w1, .L752
	.loc 1 1915 0 discriminator 1
	cmp	w0, 13
	beq	.L768
	.loc 1 1917 0
	ldr	w1, [x19,2172]
	cbz	w1, .L754
	.loc 1 1915 0 discriminator 1
	cmp	w0, 14
	beq	.L768
	.loc 1 1917 0
	ldr	w1, [x19,2176]
	cbz	w1, .L756
	.loc 1 1915 0 discriminator 1
	cmp	w0, 15
	beq	.L768
	.loc 1 1917 0
	ldr	w0, [x19,2180]
	cbz	w0, .L773
.LVL387:
.L768:
	.loc 1 1937 0
	mov	w0, -1
.L765:
	.loc 1 1943 0
	ldp	x19, x20, [sp,16]
	.cfi_remember_state
	.cfi_restore 20
	.cfi_restore 19
	ldp	x21, x22, [sp,32]
	.cfi_restore 22
	.cfi_restore 21
.LVL388:
	ldp	x23, x24, [sp,48]
	.cfi_restore 24
	.cfi_restore 23
.LVL389:
	ldp	x29, x30, [sp], 64
	.cfi_restore 30
	.cfi_restore 29
	.cfi_def_cfa 31, 0
	ret
.LVL390:
.L719:
	.cfi_restore_state
	.loc 1 1906 0
	ldr	w22, [x1,428]
	.loc 1 1907 0
	mov	w24, w22
	.loc 1 1908 0
	b	.L720
.L718:
	.loc 1 1902 0
	ldr	w22, [x1,388]
	.loc 1 1903 0
	mov	w24, w22
	.loc 1 1904 0
	b	.L720
.LVL391:
.L773:
	.loc 1 1915 0 discriminator 2
	mov	w23, 15
.LVL392:
.L721:
	.loc 1 1920 0
	add	x0, x21, 57344
	ldr	w1, [x20,288]
	ldr	w0, [x0,676]
	bl	FSP_GetLogicFs
.LVL393:
	mov	x4, x0
.LVL394:
	.loc 1 1921 0
	cbz	x0, .L723
	.loc 1 1921 0 is_stmt 0 discriminator 1
	ldr	x0, [x0,296]
	cbz	x0, .L723
	ubfiz	x2, x23, 2, 4
	.loc 1 1923 0 is_stmt 1
	mov	w5, 1
	add	x2, x21, x2
	.loc 1 1928 0
	adrp	x1, .LC24
	.loc 1 1923 0
	add	x2, x2, 32768
	.loc 1 1928 0
	mov	w3, w23
	add	x1, x1, :lo12:.LC24
	mov	w0, 13
	.loc 1 1923 0
	str	w5, [x2,2120]
	.loc 1 1924 0
	ldr	x4, [x4,296]
.LVL395:
	ldr	w4, [x4,4]
	str	w4, [x2,2184]
	.loc 1 1927 0 discriminator 1
	mov	w4, 16
	.loc 1 1925 0
	str	w22, [x2,2248]
	.loc 1 1926 0
	str	w24, [x2,2312]
	.loc 1 1927 0
	ldr	w2, [x19,2380]
	.loc 1 1927 0 is_stmt 0 discriminator 1
	cmp	w2, 15
	csinc	w2, w4, w2, hi
	.loc 1 1927 0 discriminator 4
	str	w2, [x19,2380]
	.loc 1 1928 0 is_stmt 1
	ldr	w2, [x20,88]
	bl	dprint_linux_kernel
.LVL396:
	.loc 1 1930 0
	str	w23, [x20,328]
	.loc 1 1931 0
	mov	w0, 0
	.loc 1 1943 0
	ldp	x19, x20, [sp,16]
	.cfi_remember_state
	.cfi_restore 19
	.cfi_restore 20
.LVL397:
	ldp	x21, x22, [sp,32]
	.cfi_restore 21
	.cfi_restore 22
.LVL398:
	ldp	x23, x24, [sp,48]
	.cfi_restore 23
	.cfi_restore 24
.LVL399:
	ldp	x29, x30, [sp], 64
	.cfi_restore 29
	.cfi_restore 30
	.cfi_def_cfa 31, 0
	ret
.LVL400:
.L772:
	.cfi_restore_state
	.loc 1 1915 0
	mov	w23, 0
.LVL401:
	b	.L721
.LVL402:
.L742:
	.loc 1 1915 0 is_stmt 0 discriminator 2
	mov	w23, 7
.LVL403:
	b	.L721
.LVL404:
.L744:
	mov	w23, 8
.LVL405:
	b	.L721
.LVL406:
.L746:
	mov	w23, 9
.LVL407:
	b	.L721
.LVL408:
.L748:
	mov	w23, 10
.LVL409:
	b	.L721
.LVL410:
.L750:
	mov	w23, 11
.LVL411:
	b	.L721
.LVL412:
.L752:
	mov	w23, 12
.LVL413:
	b	.L721
.LVL414:
.L754:
	mov	w23, 13
.LVL415:
	b	.L721
.LVL416:
.L756:
	mov	w23, 14
.LVL417:
	b	.L721
.LVL418:
.L734:
	mov	w23, 3
.LVL419:
	b	.L721
.LVL420:
.L736:
	mov	w23, 4
.LVL421:
	b	.L721
.LVL422:
.L738:
	mov	w23, 5
.LVL423:
	b	.L721
.LVL424:
.L740:
	mov	w23, 6
.LVL425:
	b	.L721
.LVL426:
.L730:
	mov	w23, 1
.LVL427:
	b	.L721
.LVL428:
.L732:
	mov	w23, 2
.LVL429:
	b	.L721
.LVL430:
.L723:
	.loc 1 1935 0 is_stmt 1 discriminator 4
	ldr	w2, [x20,288]
	adrp	x1, .LC25
	ldrb	w3, [x20,2]
	add	x1, x1, :lo12:.LC25
	mov	x5, 0
	mov	w0, 0
	bl	dprint_linux_kernel
.LVL431:
	b	.L768
.LVL432:
.L771:
	.loc 1 1897 0 discriminator 1
	adrp	x1, .LC12
.LVL433:
	adrp	x2, .LC13
.LVL434:
	mov	w0, 0
	add	x1, x1, :lo12:.LC12
	add	x2, x2, :lo12:.LC13
	mov	w3, 1897
	bl	dprint_linux_kernel
.LVL435:
	mov	w0, -1
	.loc 1 1897 0 is_stmt 0
	b	.L765
	.cfi_endproc
.LFE2152:
	.size	GetAPC, .-GetAPC
	.align	2
	.global	SlidingWinMark
	.type	SlidingWinMark, %function
SlidingWinMark:
.LFB2157:
	.loc 1 2614 0 is_stmt 1
	.cfi_startproc
.LVL436:
	stp	x29, x30, [sp, -32]!
	.cfi_def_cfa_offset 32
	.cfi_offset 29, -32
	.cfi_offset 30, -24
	.loc 1 2618 0
	add	x2, x0, 32768
	add	x1, x0, 24576
	.loc 1 2614 0
	add	x29, sp, 0
	.cfi_def_cfa_register 29
	str	x19, [sp,16]
	.cfi_offset 19, -16
	.loc 1 2618 0
	ldr	w4, [x2,2108]
	ldr	w1, [x1,308]
	ldr	w3, [x2,2104]
	sub	w1, w1, w4
	cmp	w3, w1
	beq	.L809
.L774:
	.loc 1 2632 0
	ldr	x19, [sp,16]
	.cfi_remember_state
	.cfi_restore 19
	ldp	x29, x30, [sp], 32
	.cfi_restore 30
	.cfi_restore 29
	.cfi_def_cfa 31, 0
	ret
.L809:
	.cfi_restore_state
.LBB237:
.LBB238:
	.loc 1 2620 0 discriminator 1
	ldr	w3, [x2,2100]
	cbz	w3, .L774
	sub	w4, w3, #1
	add	x2, x2, 1712
	add	x4, x4, 4096
	add	x4, x4, 215
	add	x4, x0, x4, lsl 3
.L781:
	.loc 1 2622 0
	ldr	x1, [x2]
	add	x2, x2, 8
	ldrb	w3, [x1,2]
.LBB239:
.LBB240:
	.loc 1 493 0
	cmp	w3, 3
.LBE240:
.LBE239:
	.loc 1 2622 0
	cbz	w3, .L776
.LBB244:
.LBB241:
	.loc 1 493 0
	beq	.L810
	.loc 1 501 0
	tbnz	x3, 0, .L811
.L780:
	.loc 1 509 0
	tbz	x3, 1, .L776
.L782:
	.loc 1 511 0
	ldr	w3, [x1,416]
	and	w3, w3, 16776960
	cmp	w3, 65536
	beq	.L778
.L776:
.LBE241:
.LBE244:
	.loc 1 2620 0 discriminator 1
	cmp	x2, x4
	bne	.L781
.LBE238:
.LBE237:
	.loc 1 2632 0
	ldr	x19, [sp,16]
	.cfi_remember_state
	.cfi_restore 19
	ldp	x29, x30, [sp], 32
	.cfi_restore 29
	.cfi_restore 30
	.cfi_def_cfa 31, 0
	ret
.L811:
	.cfi_restore_state
.LBB249:
.LBB247:
.LBB245:
.LBB242:
	.loc 1 503 0
	ldr	w5, [x1,376]
	and	w5, w5, 16776960
	cmp	w5, 65536
	bne	.L780
.L778:
	mov	x19, x0
.LBE242:
.LBE245:
	.loc 1 2624 0
	bl	UnMarkFrameStoreRef
.LVL437:
	.loc 1 2625 0
	mov	x0, x19
	bl	UpdateReflist
.LVL438:
.L812:
.LBE247:
.LBE249:
	.loc 1 2632 0
	ldr	x19, [sp,16]
	.cfi_remember_state
	.cfi_restore 19
.LVL439:
	ldp	x29, x30, [sp], 32
	.cfi_restore 29
	.cfi_restore 30
	.cfi_def_cfa 31, 0
	ret
.LVL440:
.L810:
	.cfi_restore_state
.LBB250:
.LBB248:
.LBB246:
.LBB243:
	.loc 1 495 0
	ldr	w3, [x1,336]
	and	w3, w3, 16776960
	cmp	w3, 65536
	beq	.L778
	.loc 1 503 0
	ldr	w3, [x1,376]
	and	w3, w3, 16776960
	cmp	w3, 65536
	bne	.L782
	mov	x19, x0
.LBE243:
.LBE246:
	.loc 1 2624 0
	bl	UnMarkFrameStoreRef
.LVL441:
	.loc 1 2625 0
	mov	x0, x19
	bl	UpdateReflist
.LVL442:
	b	.L812
.LBE248:
.LBE250:
	.cfi_endproc
.LFE2157:
	.size	SlidingWinMark, .-SlidingWinMark
	.align	2
	.global	DumpDPB
	.type	DumpDPB, %function
DumpDPB:
.LFB2158:
	.loc 1 2636 0
	.cfi_startproc
.LVL443:
	.loc 1 2642 0
	adrp	x1, g_PrintEnable
	.loc 1 2636 0
	stp	x29, x30, [sp, -64]!
	.cfi_def_cfa_offset 64
	.cfi_offset 29, -64
	.cfi_offset 30, -56
	add	x29, sp, 0
	.cfi_def_cfa_register 29
	.loc 1 2642 0
	ldr	w1, [x1,#:lo12:g_PrintEnable]
	.loc 1 2636 0
	stp	x19, x20, [sp,16]
	stp	x21, x22, [sp,32]
	stp	x23, x24, [sp,48]
	.cfi_offset 19, -48
	.cfi_offset 20, -40
	.cfi_offset 21, -32
	.cfi_offset 22, -24
	.cfi_offset 23, -16
	.cfi_offset 24, -8
	.loc 1 2642 0
	tbz	x1, 14, .L813
	.loc 1 2646 0 discriminator 1
	add	x21, x0, 32768
	ldr	w0, [x21,2100]
.LVL444:
	cbz	w0, .L819
	.loc 1 2648 0
	adrp	x22, .LC26
	add	x20, x21, 1712
	.loc 1 2646 0 discriminator 1
	mov	w19, 0
	.loc 1 2648 0
	add	x22, x22, :lo12:.LC26
	.loc 1 2646 0 discriminator 1
	add	x23, x21, 2100
.L818:
	.loc 1 2648 0
	ldr	x5, [x20],8
	mov	w2, w19
	mov	w0, 14
	mov	x1, x22
	.loc 1 2646 0 discriminator 3
	add	w19, w19, 1
	.loc 1 2648 0
	ldr	w3, [x5,292]
	ldr	w4, [x5,304]
	ldrb	w5, [x5,2]
	bl	dprint_linux_kernel
.LVL445:
	.loc 1 2646 0 discriminator 1
	ldr	w5, [x23]
	cmp	w5, w19
	bhi	.L818
.L819:
	.loc 1 2652 0
	adrp	x24, .LC2
	mov	w0, 14
	add	x1, x24, :lo12:.LC2
	bl	dprint_linux_kernel
.LVL446:
	.loc 1 2655 0 discriminator 1
	ldr	w0, [x21,2104]
	cbz	w0, .L817
	.loc 1 2657 0
	adrp	x23, .LC27
	.loc 1 2658 0
	adrp	x22, .LC28
	add	x20, x21, 1840
	.loc 1 2655 0 discriminator 1
	mov	w19, 0
	.loc 1 2657 0
	add	x23, x23, :lo12:.LC27
	.loc 1 2658 0
	add	x22, x22, :lo12:.LC28
.L820:
	.loc 1 2657 0
	ldr	x5, [x20]
	mov	w2, w19
	mov	x1, x23
	mov	w0, 14
	ldr	w3, [x5,292]
	ldr	w4, [x5,304]
	ldrb	w5, [x5,2]
	bl	dprint_linux_kernel
.LVL447:
	.loc 1 2658 0
	ldr	x5, [x20],8
	mov	w2, w19
	mov	w0, 14
	mov	x1, x22
	.loc 1 2655 0 discriminator 3
	add	w19, w19, 1
	.loc 1 2658 0
	ldr	w3, [x5,348]
	bl	dprint_linux_kernel
.LVL448:
	.loc 1 2655 0 discriminator 1
	ldr	w5, [x21,2104]
	cmp	w5, w19
	bhi	.L820
.L817:
	.loc 1 2660 0
	add	x1, x24, :lo12:.LC2
	mov	w0, 14
	bl	dprint_linux_kernel
.LVL449:
.L813:
	.loc 1 2664 0
	ldp	x19, x20, [sp,16]
	.cfi_restore 20
	.cfi_restore 19
	ldp	x21, x22, [sp,32]
	.cfi_restore 22
	.cfi_restore 21
	ldp	x23, x24, [sp,48]
	.cfi_restore 24
	.cfi_restore 23
	ldp	x29, x30, [sp], 64
	.cfi_restore 30
	.cfi_restore 29
	.cfi_def_cfa 31, 0
	ret
	.cfi_endproc
.LFE2158:
	.size	DumpDPB, .-DumpDPB
	.align	2
	.global	UpdateCurrFrameInfo
	.type	UpdateCurrFrameInfo, %function
UpdateCurrFrameInfo:
.LFB2162:
	.loc 1 2913 0
	.cfi_startproc
.LVL450:
	stp	x29, x30, [sp, -64]!
	.cfi_def_cfa_offset 64
	.cfi_offset 29, -64
	.cfi_offset 30, -56
	.loc 1 2918 0
	add	x1, x0, 53248
	.loc 1 2922 0 discriminator 2
	mov	w2, 3
	.loc 1 2913 0
	add	x29, sp, 0
	.cfi_def_cfa_register 29
	stp	x19, x20, [sp,16]
	stp	x21, x22, [sp,32]
	str	x23, [sp,48]
	.cfi_offset 19, -48
	.cfi_offset 20, -40
	.cfi_offset 21, -32
	.cfi_offset 22, -24
	.cfi_offset 23, -16
	.loc 1 2918 0
	ldr	x19, [x1,1416]
.LVL451:
	.loc 1 2921 0
	ldrb	w3, [x1,1122]
	strb	w3, [x19]
	.loc 1 2922 0
	ldrb	w3, [x1,1124]
	cbnz	w3, .L827
	.loc 1 2922 0 is_stmt 0 discriminator 1
	ldrb	w2, [x1,1125]
	.loc 1 2922 0 discriminator 2
	mov	w0, 3
.LVL452:
	cmp	w2, wzr
	csel	w2, w2, w0, eq
.LVL453:
.L827:
	.loc 1 2923 0 is_stmt 1
	add	x3, x1, 1120
	.loc 1 2922 0 discriminator 8
	strb	w2, [x19,2]
	.loc 1 2930 0 discriminator 2
	mov	w2, 3
	.loc 1 2923 0
	ldr	w0, [x3,312]
.LVL454:
	str	w0, [x19,292]
	.loc 1 2924 0
	ldr	w0, [x3,348]
	str	w0, [x19,320]
	.loc 1 2925 0
	ldr	w0, [x3,340]
	str	w0, [x19,316]
	.loc 1 2926 0
	ldr	w0, [x3,324]
	str	w0, [x19,304]
	.loc 1 2927 0
	ldr	w0, [x3,372]
	str	w0, [x19,324]
	.loc 1 2928 0
	ldr	w0, [x3,316]
	str	w0, [x19,300]
	.loc 1 2929 0
	ldrb	w0, [x3,9]
	str	w0, [x19,312]
	.loc 1 2930 0
	ldrb	w0, [x3,7]
	.loc 1 2930 0 is_stmt 0 discriminator 2
	cmp	w0, 1
	csel	w0, w2, wzr, eq
	.loc 1 2930 0 discriminator 4
	strb	w0, [x19,3]
	.loc 1 2933 0 is_stmt 1
	ldrb	w4, [x3,3]
	cmp	w4, 1
	beq	.L830
	cbz	w4, .L831
	cmp	w4, 2
	bne	.L826
	.loc 1 2994 0
	str	x19, [x19,448]
	.loc 1 2993 0
	mov	w5, 1
	strb	w5, [x19,416]
	.loc 1 2995 0
	ldrb	w5, [x3,4]
	strb	w5, [x19,417]
	.loc 1 2996 0
	ldrb	w5, [x3,5]
	strb	w5, [x19,418]
	.loc 1 2997 0
	ldr	w5, [x3,332]
	str	w5, [x19,428]
	.loc 1 2998 0
	ldr	w6, [x3,340]
	str	w6, [x19,436]
	.loc 1 2999 0
	ldr	w5, [x3,348]
	str	w5, [x19,432]
	.loc 1 3000 0
	str	wzr, [x19,312]
	.loc 1 3001 0
	ldrb	w7, [x3,1]
	cbz	w7, .L853
	.loc 1 3014 0
	ldr	w4, [x19,392]
	.loc 1 3016 0 discriminator 1
	orr	w0, w0, 2
	.loc 1 3013 0
	strb	w2, [x19,1]
	.loc 1 3014 0
	add	w5, w5, w4
	str	w5, [x19,320]
	.loc 1 3015 0
	str	w5, [x19,352]
	.loc 1 3016 0
	ldrb	w2, [x3,7]
	.loc 1 3016 0 is_stmt 0 discriminator 1
	cmp	w2, 1
	csel	w0, w0, wzr, eq
	.loc 1 3016 0 discriminator 4
	strb	w0, [x19,3]
	.loc 1 3018 0 is_stmt 1
	ldr	x0, [x1,1360]
	cmn	x0, #1
	beq	.L839
	.loc 1 3018 0 is_stmt 0 discriminator 1
	ldr	x2, [x19,232]
	cmn	x2, #1
	beq	.L854
.L839:
	.loc 1 3023 0 is_stmt 1
	ldr	w2, [x19,396]
.L857:
	cmp	w2, w6
	.loc 1 3026 0
	mov	x0, x19
	.loc 1 3023 0
	csel	w2, w2, w6, cs
	str	w2, [x19,316]
	.loc 1 3024 0
	ldr	w1, [x1,1444]
	str	w1, [x19,304]
	.loc 1 3026 0
	bl	CombineFldsToFrm
.LVL455:
.L826:
	.loc 1 3030 0
	ldp	x19, x20, [sp,16]
	.cfi_remember_state
	.cfi_restore 20
	.cfi_restore 19
.LVL456:
	ldp	x21, x22, [sp,32]
	.cfi_restore 22
	.cfi_restore 21
	ldr	x23, [sp,48]
	.cfi_restore 23
	ldp	x29, x30, [sp], 64
	.cfi_restore 30
	.cfi_restore 29
	.cfi_def_cfa 31, 0
	ret
.LVL457:
.L831:
	.cfi_restore_state
	.loc 1 2936 0
	strb	w2, [x19,1]
	.loc 1 2949 0
	add	x0, x19, 8
	.loc 1 2938 0
	strb	wzr, [x19,336]
	.loc 1 2949 0
	add	x1, x1, 1136
	.loc 1 2939 0
	str	x19, [x19,368]
	.loc 1 2949 0
	mov	x2, 280
	.loc 1 2940 0
	ldrb	w23, [x3,4]
	strb	w23, [x19,337]
	.loc 1 2941 0
	ldrb	w22, [x3,5]
	strb	w22, [x19,338]
	.loc 1 2942 0
	ldr	w4, [x3,328]
	str	w4, [x19,348]
	.loc 1 2943 0
	ldr	w20, [x3,340]
	str	w20, [x19,356]
	.loc 1 2944 0
	ldr	w21, [x3,348]
	str	w21, [x19,352]
	.loc 1 2946 0
	ldr	w4, [x3,332]
	str	w4, [x19,388]
	.loc 1 2947 0
	ldr	w3, [x3,336]
	str	w3, [x19,428]
	.loc 1 2949 0
	bl	memcpy
.LVL458:
.LBB251:
.LBB252:
	.loc 1 1826 0
	strb	w23, [x19,377]
	.loc 1 1828 0
	mov	w0, 1
	.loc 1 1827 0
	strb	w22, [x19,378]
	.loc 1 1828 0
	strb	w0, [x19,376]
	.loc 1 1835 0
	mov	w0, 2
	.loc 1 1829 0
	str	w21, [x19,392]
	.loc 1 1830 0
	str	w20, [x19,396]
	.loc 1 1831 0
	str	x19, [x19,408]
	.loc 1 1833 0
	strb	w23, [x19,417]
	.loc 1 1834 0
	strb	w22, [x19,418]
	.loc 1 1835 0
	strb	w0, [x19,416]
	.loc 1 1836 0
	str	w21, [x19,432]
	.loc 1 1837 0
	str	w20, [x19,436]
	.loc 1 1838 0
	str	x19, [x19,448]
.LBE252:
.LBE251:
	.loc 1 3030 0
	ldp	x19, x20, [sp,16]
	.cfi_remember_state
	.cfi_restore 19
	.cfi_restore 20
.LVL459:
	ldp	x21, x22, [sp,32]
	.cfi_restore 21
	.cfi_restore 22
	ldr	x23, [sp,48]
	.cfi_restore 23
	ldp	x29, x30, [sp], 64
	.cfi_restore 29
	.cfi_restore 30
	.cfi_def_cfa 31, 0
	ret
.LVL460:
.L830:
	.cfi_restore_state
	.loc 1 2955 0
	strb	w4, [x19,376]
	.loc 1 2956 0
	str	x19, [x19,408]
	.loc 1 2957 0
	ldrb	w5, [x3,4]
	strb	w5, [x19,377]
	.loc 1 2958 0
	ldrb	w5, [x3,5]
	strb	w5, [x19,378]
	.loc 1 2959 0
	ldr	w5, [x3,332]
	str	w5, [x19,388]
	.loc 1 2960 0
	ldr	w6, [x3,340]
	str	w6, [x19,396]
	.loc 1 2961 0
	ldr	w5, [x3,348]
	str	w5, [x19,392]
	.loc 1 2962 0
	str	wzr, [x19,312]
	.loc 1 2963 0
	ldrb	w7, [x3,1]
	cbz	w7, .L855
	.loc 1 2976 0
	ldr	w4, [x19,432]
	.loc 1 2978 0 discriminator 1
	orr	w0, w0, 1
	.loc 1 2975 0
	strb	w2, [x19,1]
	.loc 1 2976 0
	add	w5, w5, w4
	str	w5, [x19,320]
	.loc 1 2977 0
	str	w5, [x19,352]
	.loc 1 2978 0
	ldrb	w2, [x3,7]
	.loc 1 2978 0 is_stmt 0 discriminator 1
	cmp	w2, 1
	csel	w0, w0, wzr, eq
	.loc 1 2978 0 discriminator 4
	strb	w0, [x19,3]
	.loc 1 2980 0 is_stmt 1
	ldr	x0, [x1,1360]
	cmn	x0, #1
	beq	.L835
	.loc 1 2980 0 is_stmt 0 discriminator 1
	ldr	x2, [x19,232]
	cmn	x2, #1
	beq	.L856
.L835:
	.loc 1 2985 0 is_stmt 1
	ldr	w2, [x19,436]
	.loc 1 3026 0
	mov	x0, x19
	.loc 1 3023 0
	cmp	w2, w6
	csel	w2, w2, w6, cs
	str	w2, [x19,316]
	.loc 1 3024 0
	ldr	w1, [x1,1444]
	str	w1, [x19,304]
	.loc 1 3026 0
	bl	CombineFldsToFrm
.LVL461:
	.loc 1 3030 0
	ldr	x23, [sp,48]
	.cfi_remember_state
	.cfi_restore 23
	ldp	x19, x20, [sp,16]
	.cfi_restore 19
	.cfi_restore 20
.LVL462:
	ldp	x21, x22, [sp,32]
	.cfi_restore 21
	.cfi_restore 22
	ldp	x29, x30, [sp], 64
	.cfi_restore 29
	.cfi_restore 30
	.cfi_def_cfa 31, 0
	ret
.LVL463:
.L853:
	.cfi_restore_state
	.loc 1 3004 0
	strb	w4, [x19,1]
	.loc 1 3008 0
	add	x0, x19, 8
	.loc 1 3005 0
	str	w5, [x19,320]
	.loc 1 3008 0
	add	x1, x1, 1136
	.loc 1 3006 0
	str	w5, [x19,352]
	.loc 1 3008 0
	mov	x2, 280
	.loc 1 3007 0
	ldrb	w3, [x3,7]
	.loc 1 3007 0 is_stmt 0 discriminator 1
	cmp	w3, 1
	csel	w7, wzr, w4, ne
	.loc 1 3007 0 discriminator 4
	strb	w7, [x19,3]
	.loc 1 3008 0 is_stmt 1
	bl	memcpy
.LVL464:
	.loc 1 3030 0
	ldr	x23, [sp,48]
	.cfi_remember_state
	.cfi_restore 23
	ldp	x19, x20, [sp,16]
	.cfi_restore 19
	.cfi_restore 20
.LVL465:
	ldp	x21, x22, [sp,32]
	.cfi_restore 21
	.cfi_restore 22
	ldp	x29, x30, [sp], 64
	.cfi_restore 29
	.cfi_restore 30
	.cfi_def_cfa 31, 0
	ret
.LVL466:
.L855:
	.cfi_restore_state
	.loc 1 2966 0
	strb	w4, [x19,1]
	.loc 1 2970 0
	add	x0, x19, 8
	.loc 1 2967 0
	str	w5, [x19,320]
	.loc 1 2970 0
	add	x1, x1, 1136
	.loc 1 2968 0
	str	w5, [x19,352]
	.loc 1 2970 0
	mov	x2, 280
	.loc 1 2969 0
	ldrb	w3, [x3,7]
	cmp	w3, 1
	cset	w3, eq
	strb	w3, [x19,3]
	.loc 1 2970 0
	bl	memcpy
.LVL467:
	b	.L826
.L856:
	.loc 1 2982 0
	str	x0, [x19,232]
	b	.L835
.L854:
	.loc 1 3020 0
	str	x0, [x19,232]
	.loc 1 3023 0
	ldr	w2, [x19,396]
	b	.L857
	.cfi_endproc
.LFE2162:
	.size	UpdateCurrFrameInfo, .-UpdateCurrFrameInfo
	.align	2
	.global	SimpleSlideDPB
	.type	SimpleSlideDPB, %function
SimpleSlideDPB:
.LFB2163:
	.loc 1 3040 0
	.cfi_startproc
.LVL468:
	stp	x29, x30, [sp, -32]!
	.cfi_def_cfa_offset 32
	.cfi_offset 29, -32
	.cfi_offset 30, -24
	add	x29, sp, 0
	.cfi_def_cfa_register 29
	str	x19, [sp,16]
	.cfi_offset 19, -16
	.loc 1 3040 0
	mov	x19, x0
	.loc 1 3041 0
	add	x0, x0, 32768
.LVL469:
	ldr	w2, [x0,2100]
	ldr	w1, [x0,2096]
	cmp	w2, w1
	bcs	.L873
.L859:
	.loc 1 3048 0
	add	x0, x19, 53248
	.loc 1 3051 0
	ldr	w1, [x0,1440]
	.loc 1 3048 0
	strb	wzr, [x0,1124]
	.loc 1 3051 0
	cbz	w1, .L858
	.loc 1 3053 0
	mov	w1, 1
	strb	w1, [x0,1125]
.L858:
	.loc 1 3055 0
	ldr	x19, [sp,16]
	.cfi_remember_state
	.cfi_restore 19
.LVL470:
	ldp	x29, x30, [sp], 32
	.cfi_restore 30
	.cfi_restore 29
	.cfi_def_cfa 31, 0
	ret
.LVL471:
.L873:
	.cfi_restore_state
	.loc 1 3044 0
	ldr	x0, [x0,1712]
.LBB255:
.LBB256:
	.loc 1 655 0
	ldrb	w1, [x0,1]
	tbz	x1, 0, .L860
	.loc 1 658 0
	ldrb	w2, [x0,2]
	.loc 1 659 0
	strb	wzr, [x0,377]
	.loc 1 658 0
	and	w2, w2, 2
	.loc 1 660 0
	strb	wzr, [x0,378]
	.loc 1 658 0
	strb	w2, [x0,2]
.L860:
	.loc 1 663 0
	tbz	x1, 1, .L861
	.loc 1 666 0
	ldrb	w2, [x0,2]
	.loc 1 667 0
	strb	wzr, [x0,417]
	.loc 1 666 0
	and	w2, w2, 1
	.loc 1 668 0
	strb	wzr, [x0,418]
	.loc 1 666 0
	strb	w2, [x0,2]
.L861:
	.loc 1 671 0
	cmp	w1, 3
	beq	.L874
.L862:
	.loc 1 682 0
	add	x3, x19, 57344
	.loc 1 679 0
	strb	wzr, [x0,2]
	.loc 1 682 0
	ldr	w1, [x0,288]
	mov	w2, 0
	ldr	w0, [x3,676]
	bl	FSP_SetRef
.LVL472:
.LBE256:
.LBE255:
	.loc 1 3045 0
	mov	x0, x19
	mov	w1, 0
	bl	RemoveFrameStoreOutDPB
.LVL473:
	b	.L859
.L874:
.LBB258:
.LBB257:
	.loc 1 673 0
	strb	wzr, [x0,338]
	.loc 1 674 0
	strb	wzr, [x0,337]
	b	.L862
.LBE257:
.LBE258:
	.cfi_endproc
.LFE2163:
	.size	SimpleSlideDPB, .-SimpleSlideDPB
	.align	2
	.global	ReleaseNAL
	.type	ReleaseNAL, %function
ReleaseNAL:
.LFB2165:
	.loc 1 3486 0
	.cfi_startproc
.LVL474:
	stp	x29, x30, [sp, -64]!
	.cfi_def_cfa_offset 64
	.cfi_offset 29, -64
	.cfi_offset 30, -56
	add	x29, sp, 0
	.cfi_def_cfa_register 29
	stp	x19, x20, [sp,16]
	stp	x21, x22, [sp,32]
	str	x23, [sp,48]
	.cfi_offset 19, -48
	.cfi_offset 20, -40
	.cfi_offset 21, -32
	.cfi_offset 22, -24
	.cfi_offset 23, -16
	.loc 1 3486 0
	mov	x20, x1
	mov	w22, w0
	.loc 1 3489 0
	cbz	x1, .L884
	.loc 1 3502 0
	adrp	x21, .LC11
	.loc 1 3491 0
	strb	wzr, [x1,1]
	.loc 1 3492 0
	strb	wzr, [x1,4]
	add	x19, x1, 8
	add	x23, x1, 72
	.loc 1 3502 0
	add	x21, x21, :lo12:.LC11
.L879:
	.loc 1 3497 0
	ldr	x1, [x19]
	.loc 1 3499 0
	mov	w0, w22
	.loc 1 3497 0
	cbz	x1, .L878
	.loc 1 3499 0
	ldr	w1, [x19,28]
	bl	SM_ReleaseStreamSeg
.LVL475:
	.loc 1 3502 0
	ldr	x2, [x19]
	mov	w0, 7
	ldr	w3, [x19,8]
	mov	x1, x21
	bl	dprint_linux_kernel
.LVL476:
	.loc 1 3503 0
	str	xzr, [x19]
	.loc 1 3504 0
	str	wzr, [x19,20]
	.loc 1 3505 0
	str	wzr, [x19,8]
.L878:
	add	x19, x19, 32
	.loc 1 3494 0 discriminator 1
	cmp	x19, x23
	bne	.L879
	.loc 1 3509 0
	strb	wzr, [x20]
	.loc 1 3510 0
	str	wzr, [x20,76]
.L875:
	.loc 1 3513 0
	ldp	x19, x20, [sp,16]
	.cfi_remember_state
	.cfi_restore 20
	.cfi_restore 19
.LVL477:
	ldp	x21, x22, [sp,32]
	.cfi_restore 22
	.cfi_restore 21
.LVL478:
	ldr	x23, [sp,48]
	.cfi_restore 23
	ldp	x29, x30, [sp], 64
	.cfi_restore 30
	.cfi_restore 29
	.cfi_def_cfa 31, 0
	ret
.LVL479:
.L884:
	.cfi_restore_state
.LBB261:
.LBB262:
	.loc 1 3489 0 discriminator 1
	adrp	x1, .LC12
.LVL480:
	adrp	x2, .LC13
	add	x1, x1, :lo12:.LC12
	add	x2, x2, :lo12:.LC13
	mov	w3, 3489
	mov	w0, 0
	bl	dprint_linux_kernel
.LVL481:
	b	.L875
.LBE262:
.LBE261:
	.cfi_endproc
.LFE2165:
	.size	ReleaseNAL, .-ReleaseNAL
	.align	2
	.global	H264_ArrangeVahbMem
	.type	H264_ArrangeVahbMem, %function
H264_ArrangeVahbMem:
.LFB2166:
	.loc 1 3541 0
	.cfi_startproc
.LVL482:
	stp	x29, x30, [sp, -96]!
	.cfi_def_cfa_offset 96
	.cfi_offset 29, -96
	.cfi_offset 30, -88
	add	x29, sp, 0
	.cfi_def_cfa_register 29
	stp	x19, x20, [sp,16]
	str	x21, [sp,32]
	.cfi_offset 19, -80
	.cfi_offset 20, -72
	.cfi_offset 21, -64
	.loc 1 3541 0
	mov	x19, x0
	adrp	x20, __stack_chk_guard
	.loc 1 3549 0
	str	w2, [x29,80]
	.loc 1 3550 0
	ldr	x0, [x0,8]
.LVL483:
	.loc 1 3545 0
	stp	xzr, xzr, [x29,64]
	.loc 1 3541 0
	ldr	x3, [x20,#:lo12:__stack_chk_guard]
.LVL484:
	.loc 1 3550 0
	ldr	w0, [x0,28]
	.loc 1 3541 0
	str	x3, [x29,88]
	.loc 1 3546 0
	str	w1, [x29,68]
	.loc 1 3550 0
	cmp	w0, 24
	.loc 1 3547 0
	str	w2, [x29,72]
	.loc 1 3548 0
	str	w1, [x29,76]
	.loc 1 3550 0
	beq	.L886
	.loc 1 3550 0 is_stmt 0 discriminator 1
	add	x0, x19, 32768
	.loc 1 3551 0 is_stmt 1
	mov	w1, 5
.LVL485:
	.loc 1 3552 0 discriminator 1
	sxtb	w4, w4
.LVL486:
	.loc 1 3551 0
	strb	w1, [x29,66]
	.loc 1 3550 0 discriminator 1
	ldr	w0, [x0,2096]
	add	w0, w0, 1
	.loc 1 3550 0 is_stmt 0 discriminator 4
	strb	w0, [x29,65]
.LVL487:
.L889:
	.loc 1 3555 0 is_stmt 1
	add	x21, x19, 57344
	add	x1, x29, 64
.LVL488:
	.loc 1 3552 0 discriminator 4
	strb	w4, [x29,67]
	.loc 1 3555 0
	ldr	w0, [x21,676]
	bl	FSP_ConfigInstance
.LVL489:
	cbnz	w0, .L887
	.loc 1 3557 0
	ldr	x2, [x19,8]
	add	x3, x29, 60
	ldr	w0, [x21,676]
	ldr	w1, [x2,20]
	ldr	w2, [x2,24]
	bl	FSP_PartitionFsMemory
.LVL490:
	.loc 1 3571 0
	cmp	w0, wzr
	mov	w0, -20
	csinc	w0, w0, wzr, ne
.L888:
	.loc 1 3572 0
	ldr	x2, [x29,88]
	ldr	x1, [x20,#:lo12:__stack_chk_guard]
	cmp	x2, x1
	bne	.L894
	ldp	x19, x20, [sp,16]
	.cfi_remember_state
	.cfi_restore 20
	.cfi_restore 19
.LVL491:
	ldr	x21, [sp,32]
	.cfi_restore 21
	ldp	x29, x30, [sp], 96
	.cfi_restore 30
	.cfi_restore 29
	.cfi_def_cfa 31, 0
	ret
.LVL492:
.L886:
	.cfi_restore_state
	.loc 1 3551 0
	mov	w0, 5
	.loc 1 3552 0 discriminator 2
	mov	w4, 1
.LVL493:
	.loc 1 3551 0
	strb	w0, [x29,66]
	b	.L889
.LVL494:
.L887:
	.loc 1 3567 0
	adrp	x1, .LC29
	mov	w0, 0
	add	x1, x1, :lo12:.LC29
	bl	dprint_linux_kernel
.LVL495:
	.loc 1 3568 0
	mov	w0, -20
	b	.L888
.L894:
	.loc 1 3572 0
	bl	__stack_chk_fail
.LVL496:
	.cfi_endproc
.LFE2166:
	.size	H264_ArrangeVahbMem, .-H264_ArrangeVahbMem
	.align	2
	.global	RepairList
	.type	RepairList, %function
RepairList:
.LFB2167:
	.loc 1 3584 0
	.cfi_startproc
.LVL497:
	stp	x29, x30, [sp, -32]!
	.cfi_def_cfa_offset 32
	.cfi_offset 29, -32
	.cfi_offset 30, -24
	.loc 1 3589 0
	add	x8, x0, 28672
	.loc 1 3584 0
	add	x29, sp, 0
	.cfi_def_cfa_register 29
	str	x19, [sp,16]
	.cfi_offset 19, -16
	.loc 1 3584 0
	mov	x19, x0
	.loc 1 3589 0
	ldrb	w2, [x8,56]
	cmp	w2, 1
	beq	.L897
	cbz	w2, .L914
	cmp	w2, 2
	.loc 1 3675 0
	mov	w0, 0
	.loc 1 3589 0
	bne	.L930
	.loc 1 3676 0
	ldr	x19, [sp,16]
	.cfi_remember_state
	.cfi_restore 19
.LVL498:
	ldp	x29, x30, [sp], 32
	.cfi_restore 30
	.cfi_restore 29
	.cfi_def_cfa 31, 0
	ret
.LVL499:
.L930:
	.cfi_restore_state
	.loc 1 3601 0
	adrp	x1, .LC30
	mov	w0, 1
	add	x1, x1, :lo12:.LC30
	bl	dprint_linux_kernel
.LVL500:
	.loc 1 3602 0
	mov	x0, x19
	bl	ClearCurrSlice
.LVL501:
	.loc 1 3676 0
	ldr	x19, [sp,16]
	.cfi_remember_state
	.cfi_restore 19
.LVL502:
	.loc 1 3603 0
	mov	w0, -1
	.loc 1 3676 0
	ldp	x29, x30, [sp], 32
	.cfi_restore 29
	.cfi_restore 30
	.cfi_def_cfa 31, 0
	ret
.LVL503:
.L914:
	.cfi_restore_state
	.loc 1 3592 0
	mov	w10, 1
.LVL504:
.L898:
	add	x6, x19, 32768
	add	x8, x8, 100
	add	x6, x6, 2512
	.loc 1 3595 0
	mov	x9, 0
	mov	x2, 0
	mov	w7, 0
	.loc 1 3668 0
	mov	w12, 1
	.loc 1 3669 0
	add	x11, x19, 53248
.L911:
	.loc 1 3608 0
	ldr	w1, [x8]
	cbz	w1, .L900
	.loc 1 3614 0
	ldr	x4, [x6]
	add	x3, x9, 4096
	sub	w1, w1, #1
	cbnz	x4, .L901
	add	x5, x3, 315
	add	x0, x6, 8
	add	x5, x5, x1, uxtw
	add	x5, x19, x5, lsl 3
	b	.L903
.L905:
	ldr	x4, [x0],8
	cbnz	x4, .L901
.L903:
	.loc 1 3611 0 discriminator 1
	cmp	x0, x5
	bne	.L905
	.loc 1 3631 0
	ldr	x0, [x19,8]
	ldr	w0, [x0,16]
	cmp	w0, 2
	bne	.L931
	.loc 1 3644 0
	ldr	x2, [x11,1416]
	add	x2, x2, 336
.L904:
	add	x3, x3, 315
	.loc 1 3595 0
	mov	x0, x6
	add	x3, x3, x1, uxtw
	add	x3, x19, x3, lsl 3
	b	.L908
.L907:
	add	x0, x0, 8
	.loc 1 3648 0 discriminator 1
	cmp	x0, x3
	beq	.L909
.L908:
	.loc 1 3651 0
	ldr	x1, [x0]
	cbnz	x1, .L907
	.loc 1 3653 0
	str	x2, [x0]
	add	x0, x0, 8
	.loc 1 3648 0 discriminator 1
	cmp	x0, x3
	bne	.L908
.L909:
	.loc 1 3606 0 discriminator 2
	add	w7, w7, 1
	add	x8, x8, 4
	.loc 1 3606 0 is_stmt 0 discriminator 1
	cmp	w10, w7
	add	x6, x6, 264
	add	x9, x9, 33
	mov	w7, 1
	bhi	.L911
.L933:
	.loc 1 3675 0 is_stmt 1
	mov	w0, 0
	.loc 1 3676 0
	ldr	x19, [sp,16]
	.cfi_remember_state
	.cfi_restore 19
.LVL505:
	ldp	x29, x30, [sp], 32
	.cfi_restore 29
	.cfi_restore 30
	.cfi_def_cfa 31, 0
	ret
.LVL506:
.L900:
	.cfi_restore_state
	.loc 1 3659 0
	ldr	x0, [x19,8]
	ldr	w0, [x0,16]
	cmp	w0, 2
	bne	.L932
	.loc 1 3668 0
	str	w12, [x8]
	.loc 1 3606 0 discriminator 2
	add	w7, w7, 1
	.loc 1 3606 0 is_stmt 0 discriminator 1
	cmp	w10, w7
	add	x8, x8, 4
	.loc 1 3669 0 is_stmt 1
	ldr	x0, [x11,1416]
	add	x9, x9, 33
	mov	w7, 1
	add	x0, x0, 336
	str	x0, [x6]
	add	x6, x6, 264
	.loc 1 3606 0 discriminator 1
	bhi	.L911
	b	.L933
.L901:
	.loc 1 3624 0
	mov	x2, x4
	b	.L904
.LVL507:
.L897:
	.loc 1 3595 0
	mov	w10, 2
.LVL508:
	b	.L898
.L932:
	.loc 1 3661 0
	adrp	x1, .LC32
	mov	w2, w7
	add	x1, x1, :lo12:.LC32
	mov	w3, 0
	mov	w0, 1
	bl	dprint_linux_kernel
.LVL509:
	.loc 1 3662 0
	mov	x0, x19
	bl	ClearCurrSlice
.LVL510:
	.loc 1 3676 0
	ldr	x19, [sp,16]
	.cfi_remember_state
	.cfi_restore 19
.LVL511:
	.loc 1 3663 0
	mov	w0, -1
	.loc 1 3676 0
	ldp	x29, x30, [sp], 32
	.cfi_restore 29
	.cfi_restore 30
	.cfi_def_cfa 31, 0
	ret
.LVL512:
.L931:
	.cfi_restore_state
	.loc 1 3637 0
	adrp	x1, .LC31
	mov	w3, 0
	add	x1, x1, :lo12:.LC31
	mov	w0, 1
	bl	dprint_linux_kernel
.LVL513:
	.loc 1 3638 0
	mov	x0, x19
	bl	ClearCurrSlice
.LVL514:
	.loc 1 3676 0
	ldr	x19, [sp,16]
	.cfi_restore 19
.LVL515:
	.loc 1 3639 0
	mov	w0, -1
	.loc 1 3676 0
	ldp	x29, x30, [sp], 32
	.cfi_restore 29
	.cfi_restore 30
	.cfi_def_cfa 31, 0
	ret
	.cfi_endproc
.LFE2167:
	.size	RepairList, .-RepairList
	.align	2
	.global	GetShortTermPicPoint
	.type	GetShortTermPicPoint, %function
GetShortTermPicPoint:
.LFB2168:
	.loc 1 3688 0
	.cfi_startproc
.LVL516:
	.loc 1 3690 0
	add	x2, x0, 28672
	.loc 1 3690 0 is_stmt 0 discriminator 2
	mov	w5, 0
.LVL517:
	.loc 1 3690 0
	ldrb	w3, [x2,57]
	cbz	w3, .L935
	.loc 1 3690 0 discriminator 1
	ldrb	w2, [x2,58]
	.loc 1 3690 0 discriminator 4
	mov	w5, 2
.LVL518:
	cmp	w2, wzr
	csinc	w5, w5, wzr, ne
.LVL519:
.L935:
	.loc 1 3692 0 is_stmt 1 discriminator 1
	add	x2, x0, 32768
	ldr	w3, [x2,2104]
	cbz	w3, .L943
	sub	w3, w3, #1
	add	x2, x2, 1840
	add	x4, x3, 4096
	add	x4, x4, 231
	add	x4, x0, x4, lsl 3
	b	.L940
.LVL520:
.L953:
	.loc 1 3696 0
	cmp	w3, 3
	beq	.L952
.L938:
	add	x2, x2, 8
	.loc 1 3692 0 discriminator 1
	cmp	x2, x4
	beq	.L943
.LVL521:
.L940:
	.loc 1 3696 0
	ldr	x0, [x2]
.LVL522:
	ldrb	w3, [x0,2]
	.loc 1 3694 0
	cbz	w5, .L953
	.loc 1 3704 0
	tbz	x3, 0, .L939
	.loc 1 3705 0
	ldr	w6, [x0,376]
	and	w6, w6, 16776960
	cmp	w6, 65536
	beq	.L954
.L939:
	.loc 1 3710 0
	tbz	x3, 1, .L938
	.loc 1 3711 0
	ldr	w3, [x0,416]
	and	w3, w3, 16776960
	cmp	w3, 65536
	bne	.L938
	.loc 1 3711 0 is_stmt 0 discriminator 1
	ldr	w3, [x0,424]
	cmp	w3, w1
	bne	.L938
	.loc 1 3713 0 is_stmt 1
	add	x0, x0, 416
	.loc 1 3719 0
	ret
.L954:
	.loc 1 3705 0 discriminator 1
	ldr	w6, [x0,384]
	cmp	w6, w1
	bne	.L939
	.loc 1 3707 0
	add	x0, x0, 376
	.loc 1 3719 0
	ret
.L952:
	.loc 1 3697 0
	ldr	w3, [x0,336]
	and	w3, w3, 16776960
	cmp	w3, 65536
	bne	.L938
	.loc 1 3697 0 is_stmt 0 discriminator 1
	ldr	w3, [x0,344]
	cmp	w3, w1
	bne	.L938
	.loc 1 3699 0 is_stmt 1
	add	x0, x0, 336
	.loc 1 3719 0
	ret
.LVL523:
.L943:
	.loc 1 3718 0
	mov	x0, 0
.LVL524:
	.loc 1 3719 0
	ret
	.cfi_endproc
.LFE2168:
	.size	GetShortTermPicPoint, .-GetShortTermPicPoint
	.align	2
	.global	GetLongTermPicPoint
	.type	GetLongTermPicPoint, %function
GetLongTermPicPoint:
.LFB2169:
	.loc 1 3731 0
	.cfi_startproc
.LVL525:
	.loc 1 3733 0
	add	x2, x0, 28672
	.loc 1 3733 0 is_stmt 0 discriminator 2
	mov	w5, 0
.LVL526:
	.loc 1 3733 0
	ldrb	w3, [x2,57]
	cbz	w3, .L956
	.loc 1 3733 0 discriminator 1
	ldrb	w2, [x2,58]
	.loc 1 3733 0 discriminator 4
	mov	w5, 2
.LVL527:
	cmp	w2, wzr
	csinc	w5, w5, wzr, ne
.LVL528:
.L956:
	.loc 1 3735 0 is_stmt 1 discriminator 1
	add	x2, x0, 32768
	ldr	w3, [x2,2108]
	cbz	w3, .L964
	sub	w3, w3, #1
	add	x2, x2, 1968
	add	x4, x3, 4096
	add	x4, x4, 247
	add	x4, x0, x4, lsl 3
	b	.L961
.LVL529:
.L974:
	.loc 1 3739 0
	cmp	w3, 3
	beq	.L973
.L959:
	add	x2, x2, 8
	.loc 1 3735 0 discriminator 1
	cmp	x2, x4
	beq	.L964
.LVL530:
.L961:
	.loc 1 3739 0
	ldr	x0, [x2]
.LVL531:
	ldrb	w3, [x0,2]
	.loc 1 3737 0
	cbz	w5, .L974
	.loc 1 3745 0
	tbz	x3, 0, .L960
	.loc 1 3746 0
	ldr	w6, [x0,376]
	and	w6, w6, 16776960
	cmp	w6, 256
	beq	.L975
.L960:
	.loc 1 3749 0
	tbz	x3, 1, .L959
	.loc 1 3750 0
	ldr	w3, [x0,416]
	and	w3, w3, 16776960
	cmp	w3, 256
	bne	.L959
	.loc 1 3750 0 is_stmt 0 discriminator 1
	ldr	w3, [x0,420]
	cmp	w3, w1
	bne	.L959
	.loc 1 3751 0 is_stmt 1
	add	x0, x0, 416
	.loc 1 3756 0
	ret
.L975:
	.loc 1 3746 0 discriminator 1
	ldr	w6, [x0,380]
	cmp	w6, w1
	bne	.L960
	.loc 1 3747 0
	add	x0, x0, 376
	.loc 1 3756 0
	ret
.L973:
	.loc 1 3740 0
	ldr	w3, [x0,336]
	and	w3, w3, 16776960
	cmp	w3, 256
	bne	.L959
	.loc 1 3740 0 is_stmt 0 discriminator 1
	ldr	w3, [x0,340]
	cmp	w3, w1
	bne	.L959
	.loc 1 3741 0 is_stmt 1
	add	x0, x0, 336
	.loc 1 3756 0
	ret
.LVL532:
.L964:
	.loc 1 3755 0
	mov	x0, 0
.LVL533:
	.loc 1 3756 0
	ret
	.cfi_endproc
.LFE2169:
	.size	GetLongTermPicPoint, .-GetLongTermPicPoint
	.align	2
	.global	ReorderSTList
	.type	ReorderSTList, %function
ReorderSTList:
.LFB2170:
	.loc 1 3770 0
	.cfi_startproc
.LVL534:
	stp	x29, x30, [sp, -64]!
	.cfi_def_cfa_offset 64
	.cfi_offset 29, -64
	.cfi_offset 30, -56
	add	x29, sp, 0
	.cfi_def_cfa_register 29
	str	x19, [sp,16]
	.cfi_offset 19, -48
	.loc 1 3770 0
	mov	x19, x1
	.loc 1 3774 0
	mov	w1, w3
.LVL535:
	.loc 1 3770 0
	str	x4, [x29,40]
	.loc 1 3774 0
	str	x3, [x29,48]
	.loc 1 3770 0
	str	x2, [x29,56]
	.loc 1 3774 0
	bl	GetShortTermPicPoint
.LVL536:
	.loc 1 3776 0 discriminator 1
	ldr	x4, [x29,40]
.LVL537:
	.loc 1 3776 0 is_stmt 0
	ldr	x2, [x29,56]
.LVL538:
	.loc 1 3776 0 discriminator 1
	ldr	x3, [x29,48]
.LVL539:
	ldr	w5, [x4]
	.loc 1 3776 0
	add	w2, w2, 1
.LVL540:
	.loc 1 3776 0 discriminator 1
	cmp	w2, w5
	ble	.L977
	mov	w1, w2
.L978:
	.loc 1 3778 0 is_stmt 1
	add	x5, x19, x1, sxtw 3
	ldr	x5, [x5,-8]
	str	x5, [x19,w1,sxtw 3]
	.loc 1 3776 0 discriminator 3
	sub	w1, w1, #1
	.loc 1 3776 0 is_stmt 0 discriminator 1
	ldr	w5, [x4]
	cmp	w5, w1
	blt	.L978
.L977:
	.loc 1 3780 0 is_stmt 1
	add	w1, w5, 1
	str	w1, [x4]
.LVL541:
	str	x0, [x19,w5,sxtw 3]
	.loc 1 3782 0
	ldr	w0, [x4]
.LVL542:
	.loc 1 3784 0 discriminator 1
	cmp	w2, w0
	mov	w4, w0
.LVL543:
	blt	.L976
.L986:
	.loc 1 3786 0
	ldr	x1, [x19,w0,sxtw 3]
	.loc 1 3784 0 discriminator 2
	add	w0, w0, 1
	.loc 1 3786 0
	cbz	x1, .L980
	.loc 1 3788 0
	ldrb	w5, [x1,1]
	cbnz	w5, .L981
	.loc 1 3788 0 is_stmt 0 discriminator 1
	ldr	w5, [x1,8]
	cmp	w5, w3
	beq	.L980
.L981:
	.loc 1 3790 0 is_stmt 1
	str	x1, [x19,w4,sxtw 3]
	add	w4, w4, 1
.L980:
	.loc 1 3784 0 discriminator 1
	cmp	w2, w0
	bge	.L986
.L976:
	.loc 1 3796 0
	ldr	x19, [sp,16]
	.cfi_restore 19
.LVL544:
	ldp	x29, x30, [sp], 64
	.cfi_restore 30
	.cfi_restore 29
	.cfi_def_cfa 31, 0
	ret
	.cfi_endproc
.LFE2170:
	.size	ReorderSTList, .-ReorderSTList
	.align	2
	.global	ReorderLTList
	.type	ReorderLTList, %function
ReorderLTList:
.LFB2171:
	.loc 1 3810 0
	.cfi_startproc
.LVL545:
	stp	x29, x30, [sp, -64]!
	.cfi_def_cfa_offset 64
	.cfi_offset 29, -64
	.cfi_offset 30, -56
	add	x29, sp, 0
	.cfi_def_cfa_register 29
	str	x19, [sp,16]
	.cfi_offset 19, -48
	.loc 1 3810 0
	mov	x19, x1
	.loc 1 3814 0
	mov	w1, w3
.LVL546:
	.loc 1 3810 0
	str	x4, [x29,40]
	.loc 1 3814 0
	str	x3, [x29,48]
	.loc 1 3810 0
	str	x2, [x29,56]
	.loc 1 3814 0
	bl	GetLongTermPicPoint
.LVL547:
	.loc 1 3816 0 discriminator 1
	ldr	x4, [x29,40]
.LVL548:
	.loc 1 3816 0 is_stmt 0
	ldr	x2, [x29,56]
.LVL549:
	.loc 1 3816 0 discriminator 1
	ldr	x3, [x29,48]
.LVL550:
	ldr	w5, [x4]
	.loc 1 3816 0
	add	w2, w2, 1
.LVL551:
	.loc 1 3816 0 discriminator 1
	cmp	w2, w5
	ble	.L991
	mov	w1, w2
.L992:
	.loc 1 3818 0 is_stmt 1
	add	x5, x19, x1, sxtw 3
	ldr	x5, [x5,-8]
	str	x5, [x19,w1,sxtw 3]
	.loc 1 3816 0 discriminator 3
	sub	w1, w1, #1
	.loc 1 3816 0 is_stmt 0 discriminator 1
	ldr	w5, [x4]
	cmp	w5, w1
	blt	.L992
.L991:
	.loc 1 3820 0 is_stmt 1
	add	w1, w5, 1
	str	w1, [x4]
.LVL552:
	str	x0, [x19,w5,sxtw 3]
	.loc 1 3822 0
	ldr	w0, [x4]
.LVL553:
	.loc 1 3824 0 discriminator 1
	cmp	w2, w0
	mov	w4, w0
.LVL554:
	blt	.L990
.L1002:
	.loc 1 3826 0
	ldr	x1, [x19,w0,sxtw 3]
	.loc 1 3824 0 discriminator 2
	add	w0, w0, 1
	.loc 1 3826 0
	cbz	x1, .L994
	.loc 1 3828 0
	ldrb	w5, [x1,1]
	cbz	w5, .L995
	.loc 1 3828 0 is_stmt 0 discriminator 1
	ldr	w5, [x1,4]
	cmp	w5, w3
	beq	.L994
.L995:
	.loc 1 3830 0 is_stmt 1
	str	x1, [x19,w4,sxtw 3]
	add	w4, w4, 1
.L994:
	.loc 1 3824 0 discriminator 1
	cmp	w2, w0
	bge	.L1002
.L990:
	.loc 1 3836 0
	ldr	x19, [sp,16]
	.cfi_restore 19
.LVL555:
	ldp	x29, x30, [sp], 64
	.cfi_restore 30
	.cfi_restore 29
	.cfi_def_cfa 31, 0
	ret
	.cfi_endproc
.LFE2171:
	.size	ReorderLTList, .-ReorderLTList
	.align	2
	.global	ReorderRefPiclist
	.type	ReorderRefPiclist, %function
ReorderRefPiclist:
.LFB2172:
	.loc 1 3850 0
	.cfi_startproc
.LVL556:
	stp	x29, x30, [sp, -128]!
	.cfi_def_cfa_offset 128
	.cfi_offset 29, -128
	.cfi_offset 30, -120
	.loc 1 3854 0
	add	x2, x0, 28672
.LVL557:
	.loc 1 3850 0
	add	x29, sp, 0
	.cfi_def_cfa_register 29
	stp	x21, x22, [sp,32]
	.cfi_offset 21, -96
	.cfi_offset 22, -88
	mov	x21, x0
	adrp	x0, __stack_chk_guard
.LVL558:
	stp	x23, x24, [sp,48]
	stp	x27, x28, [sp,80]
	stp	x19, x20, [sp,16]
	stp	x25, x26, [sp,64]
	.cfi_offset 23, -80
	.cfi_offset 24, -72
	.cfi_offset 27, -48
	.cfi_offset 28, -40
	.cfi_offset 19, -112
	.cfi_offset 20, -104
	.cfi_offset 25, -64
	.cfi_offset 26, -56
	.loc 1 3850 0
	mov	x24, x1
	ldr	x1, [x0,#:lo12:__stack_chk_guard]
.LVL559:
	.loc 1 3854 0
	ldrb	w0, [x2,57]
	.loc 1 3850 0
	mov	w22, w3
	str	x1, [x29,120]
	mov	x23, x4
	.loc 1 3853 0
	str	wzr, [x29,116]
.LVL560:
	.loc 1 3850 0
	mov	x27, x5
	str	x6, [x29,104]
	.loc 1 3854 0 discriminator 2
	mov	w1, 0
.LVL561:
	.loc 1 3854 0 is_stmt 0
	cbz	w0, .L1008
	.loc 1 3854 0 discriminator 1
	ldrb	w0, [x2,58]
	.loc 1 3854 0 discriminator 4
	mov	w1, 2
.LVL562:
	cmp	w0, wzr
	csinc	w1, w1, wzr, ne
.LVL563:
.L1008:
	.loc 1 3859 0 is_stmt 1
	ldr	w0, [x2,68]
	mov	w5, 2208
	.loc 1 3860 0
	ldr	x4, [x21,21632]
	.loc 1 3862 0
	mov	w19, 1
	ldr	x3, [x21,21624]
	.loc 1 3859 0
	umull	x0, w0, w5
	.loc 1 3867 0
	ldr	w25, [x2,76]
	.loc 1 3860 0
	add	x0, x4, x0
	mov	w4, 4000
	ldr	w0, [x0,28]
	umull	x0, w0, w4
	.loc 1 3862 0
	add	x0, x3, x0
	ldr	w0, [x0,2196]
	add	w0, w0, 4
	lsl	w19, w19, w0
.LVL564:
	.loc 1 3864 0
	cbz	w1, .L1010
	.loc 1 3872 0
	lsl	w25, w25, 1
	.loc 1 3871 0
	lsl	w19, w19, 1
	.loc 1 3872 0
	add	w25, w25, 1
.L1010:
	.loc 1 3876 0 discriminator 1
	cmn	w22, #2
	beq	.L1007
	.loc 1 3878 0
	ldr	w0, [x23]
	cmp	w0, 3
	beq	.L1007
	add	w20, w22, 1
	mov	w26, w25
	lsl	x20, x20, 2
	mov	x28, 0
	b	.L1013
.L1014:
	.loc 1 3922 0
	ldr	x0, [x29,104]
.LVL565:
	mov	x1, x24
.LVL566:
	mov	w2, w22
	add	x4, x29, 116
	ldr	w3, [x0,x28]
	mov	x0, x21
.LVL567:
	bl	ReorderLTList
.LVL568:
	.loc 1 3876 0 discriminator 1
	cmp	x28, x20
	beq	.L1007
.L1019:
	.loc 1 3878 0
	add	x28, x28, 4
	ldr	w0, [x23,x28]
	cmp	w0, 3
	beq	.L1007
.LVL569:
.L1013:
	.loc 1 3883 0
	cmp	w0, 1
	bhi	.L1014
	.loc 1 3885 0
	cbnz	w0, .L1015
	.loc 1 3887 0
	ldr	w0, [x27,x28]
	mvn	w0, w0
	add	w26, w26, w0
	.loc 1 3889 0
	add	w0, w26, w19
	cmp	w26, wzr
	csel	w26, w0, w26, lt
.L1016:
	.loc 1 3911 0
	cmp	w25, w26
	sub	w3, w26, w19
	.loc 1 3918 0
	csel	w3, w3, w26, lt
	mov	x0, x21
	mov	x1, x24
.LVL570:
	mov	w2, w22
	add	x4, x29, 116
	bl	ReorderSTList
.LVL571:
	.loc 1 3876 0 discriminator 1
	cmp	x28, x20
	bne	.L1019
.LVL572:
.L1007:
	.loc 1 3927 0
	adrp	x0, __stack_chk_guard
	ldr	x1, [x29,120]
.LVL573:
	ldr	x0, [x0,#:lo12:__stack_chk_guard]
	cmp	x1, x0
	bne	.L1031
	ldp	x19, x20, [sp,16]
	.cfi_remember_state
	.cfi_restore 20
	.cfi_restore 19
.LVL574:
	ldp	x21, x22, [sp,32]
	.cfi_restore 22
	.cfi_restore 21
.LVL575:
	ldp	x23, x24, [sp,48]
	.cfi_restore 24
	.cfi_restore 23
.LVL576:
	ldp	x25, x26, [sp,64]
	.cfi_restore 26
	.cfi_restore 25
	ldp	x27, x28, [sp,80]
	.cfi_restore 28
	.cfi_restore 27
.LVL577:
	ldp	x29, x30, [sp], 128
	.cfi_restore 30
	.cfi_restore 29
	.cfi_def_cfa 31, 0
	ret
.LVL578:
.L1015:
	.cfi_restore_state
	.loc 1 3898 0
	ldr	w0, [x27,x28]
	add	w0, w0, 1
	add	w26, w26, w0
	.loc 1 3900 0
	sub	w0, w26, w19
	cmp	w19, w26
	csel	w26, w0, w26, le
	b	.L1016
.LVL579:
.L1031:
	.loc 1 3927 0
	bl	__stack_chk_fail
.LVL580:
	.cfi_endproc
.LFE2172:
	.size	ReorderRefPiclist, .-ReorderRefPiclist
	.align	2
	.global	ReorderListX
	.type	ReorderListX, %function
ReorderListX:
.LFB2173:
	.loc 1 3939 0
	.cfi_startproc
.LVL581:
	stp	x29, x30, [sp, -48]!
	.cfi_def_cfa_offset 48
	.cfi_offset 29, -48
	.cfi_offset 30, -40
	add	x29, sp, 0
	.cfi_def_cfa_register 29
	stp	x19, x20, [sp,16]
	.cfi_offset 19, -32
	.cfi_offset 20, -24
	.loc 1 3940 0
	add	x19, x0, 28672
	.loc 1 3939 0
	str	x21, [sp,32]
	.cfi_offset 21, -16
	.loc 1 3940 0
	ldrb	w2, [x19,56]
	cmp	w2, 2
	beq	.L1032
	.loc 1 3942 0
	add	x21, x0, 24576
	mov	x20, x0
	ldrb	w1, [x21,3364]
	cbnz	w1, .L1044
.L1035:
	.loc 1 3952 0
	ldr	w0, [x19,112]
	.loc 1 3954 0
	cmp	w2, 1
	.loc 1 3952 0
	add	w0, w0, 1
	str	w0, [x19,100]
	.loc 1 3954 0
	bne	.L1032
.LBB265:
.LBB266:
	.loc 1 3956 0
	ldrb	w0, [x21,3365]
	cbnz	w0, .L1045
.L1037:
	.loc 1 3966 0
	ldr	w0, [x19,116]
	add	w0, w0, 1
	str	w0, [x19,104]
.LVL582:
.L1032:
.LBE266:
.LBE265:
	.loc 1 3970 0
	ldp	x19, x20, [sp,16]
	.cfi_remember_state
	.cfi_restore 20
	.cfi_restore 19
.LVL583:
	ldr	x21, [sp,32]
	.cfi_restore 21
	ldp	x29, x30, [sp], 48
	.cfi_restore 30
	.cfi_restore 29
	.cfi_def_cfa 31, 0
	ret
.LVL584:
.L1044:
	.cfi_restore_state
	.loc 1 3944 0
	add	x1, x0, 32768
	ldr	w3, [x19,112]
	add	x2, x19, 100
	add	x1, x1, 2512
	add	x4, x21, 3368
	add	x5, x21, 3632
	add	x6, x21, 3896
	bl	ReorderRefPiclist
.LVL585:
	ldrb	w2, [x19,56]
	b	.L1035
.L1045:
.LBB268:
.LBB267:
	.loc 1 3958 0
	add	x1, x20, 32768
	ldr	w3, [x19,116]
	mov	x0, x20
	add	x1, x1, 2776
	add	x2, x19, 104
	add	x4, x21, 3500
	add	x5, x21, 3764
	add	x6, x21, 4024
	bl	ReorderRefPiclist
.LVL586:
	b	.L1037
.LBE267:
.LBE268:
	.cfi_endproc
.LFE2173:
	.size	ReorderListX, .-ReorderListX
	.align	2
	.global	GenPiclistfromFrmlist
	.type	GenPiclistfromFrmlist, %function
GenPiclistfromFrmlist:
.LFB2184:
	.loc 1 4222 0
	.cfi_startproc
.LVL587:
	stp	x29, x30, [sp, -96]!
	.cfi_def_cfa_offset 96
	.cfi_offset 29, -96
	.cfi_offset 30, -88
	cmp	w2, 31
	add	x29, sp, 0
	.cfi_def_cfa_register 29
	stp	x19, x20, [sp,16]
	stp	x21, x22, [sp,32]
	stp	x23, x24, [sp,48]
	stp	x25, x26, [sp,64]
	str	x27, [sp,80]
	.cfi_offset 19, -80
	.cfi_offset 20, -72
	.cfi_offset 21, -64
	.cfi_offset 22, -56
	.cfi_offset 23, -48
	.cfi_offset 24, -40
	.cfi_offset 25, -32
	.cfi_offset 26, -24
	.cfi_offset 27, -16
	mov	w22, 31
	.loc 1 4222 0
	mov	x19, x1
	mov	x25, x3
	mov	x24, x4
	csel	w22, w2, w22, ls
.LVL588:
	.loc 1 4233 0
	cbnz	w5, .L1070
	.loc 1 4242 0
	cmp	w0, 1
	.loc 1 4239 0
	adrp	x23, IsSTRefFlg
	add	x23, x23, :lo12:IsSTRefFlg
.LVL589:
	.loc 1 4242 0
	beq	.L1113
.L1111:
	.loc 1 4276 0
	cmp	w0, 2
	bne	.L1057
	mov	w21, 0
	mov	w20, 0
.L1060:
	.loc 1 4278 0
	cmp	w20, w22
	cset	w26, cc
	cmp	w21, w22
	bcc	.L1064
	cbz	w26, .L1057
.L1065:
	.loc 1 4294 0 discriminator 1
	cbnz	w26, .L1096
	b	.L1060
.LVL590:
.L1066:
	.loc 1 4294 0 is_stmt 0
	add	w20, w20, 1
	.loc 1 4294 0 discriminator 1
	cmp	w22, w20
	bls	.L1060
.LVL591:
.L1096:
	.loc 1 4296 0 is_stmt 1
	ldr	x0, [x19,w20,uxtw 3]
.LVL592:
	add	x26, x19, x20, uxtw 3
	ldrb	w1, [x0,1]
	tbz	x1, 0, .L1066
	.loc 1 4298 0
	add	x0, x0, 376
	blr	x23
.LVL593:
	cbz	w0, .L1066
	.loc 1 4301 0
	ldr	w1, [x24]
	.loc 1 4303 0
	add	w20, w20, 1
	.loc 1 4301 0
	ldr	x0, [x26]
	add	x0, x0, 376
	str	x0, [x25,w1,uxtw 3]
	.loc 1 4302 0
	ldr	w0, [x24]
	add	w0, w0, 1
	str	w0, [x24]
	.loc 1 4304 0
	b	.L1060
.LVL594:
.L1057:
	.loc 1 4312 0
	mov	w0, 0
.LVL595:
	ldr	x27, [sp,80]
	.cfi_remember_state
	.cfi_restore 27
	ldp	x19, x20, [sp,16]
	.cfi_restore 20
	.cfi_restore 19
.LVL596:
	ldp	x21, x22, [sp,32]
	.cfi_restore 22
	.cfi_restore 21
.LVL597:
	ldp	x23, x24, [sp,48]
	.cfi_restore 24
	.cfi_restore 23
.LVL598:
	ldp	x25, x26, [sp,64]
	.cfi_restore 26
	.cfi_restore 25
.LVL599:
	ldp	x29, x30, [sp], 96
	.cfi_restore 30
	.cfi_restore 29
	.cfi_def_cfa 31, 0
	ret
.LVL600:
.L1070:
	.cfi_restore_state
	.loc 1 4242 0
	cmp	w0, 1
	.loc 1 4235 0
	adrp	x23, IsLTRefFlg
	add	x23, x23, :lo12:IsLTRefFlg
.LVL601:
	.loc 1 4242 0
	bne	.L1111
.L1113:
	mov	w21, 0
	mov	w20, 0
.L1048:
	.loc 1 4244 0
	cmp	w20, w22
	cset	w0, cc
.LVL602:
	cmp	w21, w22
	cset	w26, cc
	cbnz	w26, .L1073
.L1114:
	cbnz	w0, .L1053
	b	.L1057
.L1050:
	.loc 1 4246 0
	add	w20, w20, 1
	.loc 1 4246 0 is_stmt 0 discriminator 1
	cmp	w20, w22
	bcs	.L1054
.L1053:
	.loc 1 4248 0 is_stmt 1
	ldr	x0, [x19,w20,uxtw 3]
	add	x27, x19, x20, uxtw 3
	ldrb	w1, [x0,1]
	tbz	x1, 0, .L1050
	.loc 1 4250 0
	add	x0, x0, 376
	blr	x23
.LVL603:
	cbz	w0, .L1050
	.loc 1 4253 0
	ldr	w1, [x24]
	.loc 1 4255 0
	add	w20, w20, 1
	.loc 1 4253 0
	ldr	x0, [x27]
	add	x0, x0, 376
	str	x0, [x25,w1,uxtw 3]
	.loc 1 4254 0
	ldr	w0, [x24]
	add	w0, w0, 1
	str	w0, [x24]
.LVL604:
.L1054:
	.loc 1 4260 0 discriminator 1
	cbnz	w26, .L1095
	b	.L1048
.L1055:
	.loc 1 4260 0 is_stmt 0
	add	w21, w21, 1
	.loc 1 4260 0 discriminator 1
	cmp	w21, w22
	bcs	.L1048
.L1095:
	.loc 1 4262 0 is_stmt 1
	ldr	x0, [x19,w21,uxtw 3]
	add	x26, x19, x21, uxtw 3
	ldrb	w1, [x0,1]
	tbz	x1, 1, .L1055
	.loc 1 4264 0
	add	x0, x0, 416
	blr	x23
.LVL605:
	cbz	w0, .L1055
	.loc 1 4267 0
	ldr	w1, [x24]
	.loc 1 4244 0
	cmp	w20, w22
	.loc 1 4267 0
	ldr	x0, [x26]
	.loc 1 4269 0
	add	w21, w21, 1
	.loc 1 4267 0
	add	x0, x0, 416
	str	x0, [x25,w1,uxtw 3]
	.loc 1 4268 0
	ldr	w0, [x24]
	add	w0, w0, 1
	str	w0, [x24]
	.loc 1 4244 0
	cset	w0, cc
	cmp	w21, w22
	cset	w26, cc
	cbz	w26, .L1114
.LVL606:
.L1073:
	.loc 1 4246 0 discriminator 1
	cbnz	w0, .L1053
	b	.L1054
.L1116:
	.loc 1 4284 0
	add	x0, x0, 416
	blr	x23
.LVL607:
	cbnz	w0, .L1115
.LVL608:
.L1061:
	.loc 1 4280 0
	add	w21, w21, 1
	.loc 1 4280 0 is_stmt 0 discriminator 1
	cmp	w22, w21
	bls	.L1065
.LVL609:
.L1064:
	.loc 1 4282 0 is_stmt 1
	ldr	x0, [x19,w21,uxtw 3]
.LVL610:
	add	x27, x19, x21, uxtw 3
	ldrb	w1, [x0,1]
	tbz	x1, 1, .L1061
	b	.L1116
.LVL611:
.L1115:
	.loc 1 4287 0
	ldr	w1, [x24]
	.loc 1 4289 0
	add	w21, w21, 1
	.loc 1 4287 0
	ldr	x0, [x27]
	add	x0, x0, 416
	str	x0, [x25,w1,uxtw 3]
	.loc 1 4288 0
	ldr	w0, [x24]
	add	w0, w0, 1
	str	w0, [x24]
	.loc 1 4290 0
	b	.L1065
	.cfi_endproc
.LFE2184:
	.size	GenPiclistfromFrmlist, .-GenPiclistfromFrmlist
	.align	2
	.global	InitListX
	.type	InitListX, %function
InitListX:
.LFB2185:
	.loc 1 4324 0
	.cfi_startproc
.LVL612:
	sub	sp, sp, #416
	.cfi_def_cfa_offset 416
	stp	x29, x30, [sp, -96]!
	.cfi_def_cfa_offset 512
	.cfi_offset 29, -512
	.cfi_offset 30, -504
	add	x29, sp, 0
	.cfi_def_cfa_register 29
	stp	x19, x20, [sp,16]
	stp	x23, x24, [sp,48]
	.cfi_offset 19, -496
	.cfi_offset 20, -488
	.cfi_offset 23, -464
	.cfi_offset 24, -456
	adrp	x19, __stack_chk_guard
	.loc 1 4334 0
	add	x23, x0, 28672
	.loc 1 4324 0
	stp	x25, x26, [sp,64]
	stp	x21, x22, [sp,32]
	stp	x27, x28, [sp,80]
	.cfi_offset 25, -448
	.cfi_offset 26, -440
	.cfi_offset 21, -480
	.cfi_offset 22, -472
	.cfi_offset 27, -432
	.cfi_offset 28, -424
	.loc 1 4324 0
	mov	x20, x0
	ldr	x1, [x19,#:lo12:__stack_chk_guard]
	.loc 1 4334 0
	ldrb	w0, [x23,56]
.LVL613:
	.loc 1 4336 0
	add	x25, x20, 53248
	.loc 1 4324 0
	str	x1, [x29,504]
	.loc 1 4334 0
	cbnz	w0, .L1118
	.loc 1 4336 0
	ldrb	w0, [x25,1123]
	.loc 1 4338 0 discriminator 1
	add	x22, x20, 32768
	.loc 1 4336 0
	cbnz	w0, .L1445
	.loc 1 4338 0 discriminator 1
	ldr	w1, [x22,2104]
	cbz	w1, .L1193
	sub	w1, w1, #1
	add	x0, x22, 1840
	add	x3, x1, 4096
	mov	x24, 0
	add	x3, x3, 231
	add	x3, x20, x3, lsl 3
	b	.L1124
.L1123:
	add	x0, x0, 8
	cmp	x0, x3
	beq	.L1446
.L1124:
	.loc 1 4340 0
	ldr	x21, [x0]
	ldrb	w2, [x21,2]
	cmp	w2, 3
	bne	.L1123
	.loc 1 4341 0
	ldr	w1, [x21,336]
	and	w1, w1, 16776960
	cmp	w1, 65536
	bne	.L1123
	.loc 1 4343 0
	uxtw	x2, w24
	add	x0, x0, 8
	add	x2, x2, 4096
	add	x1, x21, 336
	add	x2, x2, 314
	.loc 1 4338 0 discriminator 1
	cmp	x0, x3
	.loc 1 4343 0
	add	w24, w24, 1
	str	x1, [x20,x2,lsl 3]
	.loc 1 4338 0 discriminator 1
	bne	.L1124
.L1446:
	uxtw	x1, w24
.L1122:
	.loc 1 4347 0
	adrp	x3, compare_pic_by_pic_num_desc
	add	x0, x22, 2512
	add	x3, x3, :lo12:compare_pic_by_pic_num_desc
	mov	x2, 8
	bl	qsort
.LVL614:
	.loc 1 4348 0
	str	w24, [x23,100]
	.loc 1 4351 0 discriminator 1
	ldr	w3, [x22,2108]
	cbz	w3, .L1194
	sub	w3, w3, #1
	add	x0, x22, 1968
	add	x3, x3, 4096
	mov	w1, w24
	add	x3, x3, 247
	add	x3, x20, x3, lsl 3
	b	.L1127
.L1126:
	add	x0, x0, 8
	cmp	x0, x3
	beq	.L1447
.L1127:
	.loc 1 4353 0
	ldr	x21, [x0]
	ldrb	w2, [x21,2]
	cmp	w2, 3
	bne	.L1126
	.loc 1 4353 0 is_stmt 0 discriminator 1
	ldr	w2, [x21,336]
	and	w2, w2, 16776960
	cmp	w2, 256
	bne	.L1126
	.loc 1 4355 0 is_stmt 1
	uxtw	x2, w1
	add	x0, x0, 8
	add	x2, x2, 4096
	add	x21, x21, 336
	add	x2, x2, 314
	.loc 1 4351 0 discriminator 1
	cmp	x0, x3
	.loc 1 4355 0
	add	w1, w1, 1
	str	x21, [x20,x2,lsl 3]
	.loc 1 4351 0 discriminator 1
	bne	.L1127
.L1447:
	mov	w21, w1
	sub	w1, w1, w24
.L1125:
	.loc 1 4358 0
	add	x0, x24, 4096
	adrp	x3, compare_pic_by_lt_pic_num_asc
	add	x0, x0, 314
	mov	x2, 8
	add	x3, x3, :lo12:compare_pic_by_lt_pic_num_asc
	add	x0, x20, x0, lsl 3
	bl	qsort
.LVL615:
	.loc 1 4359 0
	str	w21, [x23,100]
	mov	w0, w21
	.loc 1 4384 0
	str	wzr, [x23,104]
	.loc 1 4386 0
	cbnz	w0, .L1197
.L1458:
	.loc 1 4390 0
	ldr	x0, [x20,8]
	ldr	w0, [x0,16]
	cmp	w0, 2
	bne	.L1149
	.loc 1 4392 0
	ldrb	w0, [x25,1123]
	cbz	w0, .L1448
	.loc 1 4396 0
	cmp	w0, 1
	.loc 1 4398 0
	ldr	x0, [x25,1416]
	.loc 1 4396 0
	beq	.L1449
	.loc 1 4402 0
	add	x0, x0, 416
	str	x0, [x22,2512]
.L1151:
	mov	w1, 0
	mov	w0, 1
	b	.L1148
.L1118:
	.loc 1 4418 0 discriminator 1
	add	x22, x20, 32768
	.loc 1 4416 0
	ldrb	w0, [x25,1123]
	.loc 1 4418 0 discriminator 1
	ldr	w1, [x22,2104]
	.loc 1 4416 0
	cbz	w0, .L1154
	.loc 1 4471 0 discriminator 1
	cbz	w1, .L1450
	sub	w1, w1, #1
	add	x0, x22, 1840
	add	x3, x1, 4096
	mov	w21, 0
	add	x3, x3, 231
	add	x24, x29, 120
	.loc 1 4475 0
	add	x5, x25, 1444
	add	x3, x20, x3, lsl 3
.L1173:
	.loc 1 4473 0
	ldr	x1, [x0]
	ldrb	w2, [x1,1]
	cbz	w2, .L1172
	.loc 1 4475 0
	ldr	w4, [x5]
	ldr	w2, [x1,304]
	cmp	w4, w2
	blt	.L1172
	.loc 1 4477 0
	str	x1, [x24,w21,uxtw 3]
	add	w21, w21, 1
.L1172:
	add	x0, x0, 8
	.loc 1 4471 0 discriminator 1
	cmp	x0, x3
	bne	.L1173
	uxtw	x1, w21
.L1156:
	.loc 1 4481 0
	adrp	x3, compare_fs_by_poc_desc
	mov	x0, x24
	mov	x2, 8
	add	x3, x3, :lo12:compare_fs_by_poc_desc
	bl	qsort
.LVL616:
	.loc 1 4483 0 discriminator 1
	ldr	w26, [x22,2104]
	cbz	w26, .L1174
	sub	w3, w26, #1
	add	x0, x22, 1840
	add	x3, x3, 4096
	mov	w27, w21
	add	x3, x3, 231
	.loc 1 4487 0
	add	x4, x25, 1444
	add	x3, x20, x3, lsl 3
.L1176:
	.loc 1 4485 0
	ldr	x1, [x0]
	ldrb	w2, [x1,1]
	cbz	w2, .L1175
	.loc 1 4487 0
	ldr	w2, [x4]
	ldr	w26, [x1,304]
	cmp	w2, w26
	bge	.L1175
	.loc 1 4489 0
	str	x1, [x24,w27,uxtw 3]
	add	w27, w27, 1
.L1175:
	add	x0, x0, 8
	.loc 1 4483 0 discriminator 1
	cmp	x0, x3
	bne	.L1176
	.loc 1 4493 0
	adrp	x3, compare_fs_by_poc_asc
	sub	w1, w27, w21
	mov	x2, 8
	add	x3, x3, :lo12:compare_fs_by_poc_asc
	mov	x26, x1
	add	x0, x24, x21, uxtw 3
	bl	qsort
.LVL617:
	.loc 1 4497 0
	add	x6, x29, 248
	.loc 1 4495 0 discriminator 1
	cbz	w21, .L1177
	.loc 1 4497 0
	ldr	x0, [x24]
	.loc 1 4495 0 discriminator 1
	cmp	w21, 1
	.loc 1 4497 0
	str	x0, [x6,w26,uxtw 3]
	.loc 1 4495 0 discriminator 1
	bls	.L1177
.L1191:
	.loc 1 4497 0
	add	w0, w26, 1
	ldr	x1, [x24,8]
	.loc 1 4495 0 discriminator 1
	cmp	w21, 2
	.loc 1 4497 0
	str	x1, [x6,w0,uxtw 3]
	.loc 1 4495 0 discriminator 1
	bls	.L1177
	.loc 1 4497 0
	add	w0, w26, 2
	ldr	x1, [x24,16]
	.loc 1 4495 0 discriminator 1
	cmp	w21, 3
	.loc 1 4497 0
	str	x1, [x6,w0,uxtw 3]
	.loc 1 4495 0 discriminator 1
	beq	.L1177
	.loc 1 4497 0
	add	w0, w26, 3
	ldr	x1, [x24,24]
	.loc 1 4495 0 discriminator 1
	cmp	w21, 4
	.loc 1 4497 0
	str	x1, [x6,w0,uxtw 3]
	.loc 1 4495 0 discriminator 1
	beq	.L1177
	.loc 1 4497 0
	add	w0, w26, 4
	ldr	x1, [x24,32]
	.loc 1 4495 0 discriminator 1
	cmp	w21, 5
	.loc 1 4497 0
	str	x1, [x6,w0,uxtw 3]
	.loc 1 4495 0 discriminator 1
	beq	.L1177
	.loc 1 4497 0
	add	w0, w26, 5
	ldr	x1, [x24,40]
	.loc 1 4495 0 discriminator 1
	cmp	w21, 6
	.loc 1 4497 0
	str	x1, [x6,w0,uxtw 3]
	.loc 1 4495 0 discriminator 1
	beq	.L1177
	.loc 1 4497 0
	add	w0, w26, 6
	ldr	x1, [x24,48]
	.loc 1 4495 0 discriminator 1
	cmp	w21, 7
	.loc 1 4497 0
	str	x1, [x6,w0,uxtw 3]
	.loc 1 4495 0 discriminator 1
	beq	.L1177
	.loc 1 4497 0
	add	w0, w26, 7
	ldr	x1, [x24,56]
	.loc 1 4495 0 discriminator 1
	cmp	w21, 8
	.loc 1 4497 0
	str	x1, [x6,w0,uxtw 3]
	.loc 1 4495 0 discriminator 1
	beq	.L1177
	.loc 1 4497 0
	add	w0, w26, 8
	ldr	x1, [x24,64]
	.loc 1 4495 0 discriminator 1
	cmp	w21, 9
	.loc 1 4497 0
	str	x1, [x6,w0,uxtw 3]
	.loc 1 4495 0 discriminator 1
	beq	.L1177
	.loc 1 4497 0
	add	w0, w26, 9
	ldr	x1, [x24,72]
	.loc 1 4495 0 discriminator 1
	cmp	w21, 10
	.loc 1 4497 0
	str	x1, [x6,w0,uxtw 3]
	.loc 1 4495 0 discriminator 1
	beq	.L1177
	.loc 1 4497 0
	add	w0, w26, 10
	ldr	x1, [x24,80]
	.loc 1 4495 0 discriminator 1
	cmp	w21, 11
	.loc 1 4497 0
	str	x1, [x6,w0,uxtw 3]
	.loc 1 4495 0 discriminator 1
	beq	.L1177
	.loc 1 4497 0
	add	w0, w26, 11
	ldr	x1, [x24,88]
	.loc 1 4495 0 discriminator 1
	cmp	w21, 12
	.loc 1 4497 0
	str	x1, [x6,w0,uxtw 3]
	.loc 1 4495 0 discriminator 1
	beq	.L1177
	.loc 1 4497 0
	add	w0, w26, 12
	ldr	x1, [x24,96]
	.loc 1 4495 0 discriminator 1
	cmp	w21, 13
	.loc 1 4497 0
	str	x1, [x6,w0,uxtw 3]
	.loc 1 4495 0 discriminator 1
	beq	.L1177
	.loc 1 4497 0
	add	w0, w26, 13
	ldr	x1, [x24,104]
	.loc 1 4495 0 discriminator 1
	cmp	w21, 14
	.loc 1 4497 0
	str	x1, [x6,w0,uxtw 3]
	.loc 1 4495 0 discriminator 1
	beq	.L1177
	.loc 1 4497 0
	add	w0, w26, 14
	ldr	x1, [x24,112]
	.loc 1 4495 0 discriminator 1
	cmp	w21, 15
	.loc 1 4497 0
	str	x1, [x6,w0,uxtw 3]
	.loc 1 4495 0 discriminator 1
	beq	.L1177
	.loc 1 4497 0
	add	w26, w26, 15
	ldr	x0, [x24,120]
	str	x0, [x6,w26,uxtw 3]
.L1177:
	.loc 1 4499 0 discriminator 1
	cmp	w21, w27
	bcs	.L1178
	.loc 1 4501 0
	ldr	x1, [x24,w21,uxtw 3]
	.loc 1 4499 0 discriminator 3
	add	w0, w21, 1
	.loc 1 4501 0
	str	x1, [x6]
	.loc 1 4499 0 discriminator 1
	cmp	w27, w0
	bls	.L1178
	.loc 1 4501 0
	ldr	x1, [x24,w0,uxtw 3]
	.loc 1 4499 0 discriminator 3
	add	w0, w21, 2
	.loc 1 4501 0
	str	x1, [x6,8]
	.loc 1 4499 0 discriminator 1
	cmp	w27, w0
	bls	.L1178
	.loc 1 4501 0
	ldr	x1, [x24,w0,uxtw 3]
	.loc 1 4499 0 discriminator 3
	add	w0, w21, 3
	.loc 1 4501 0
	str	x1, [x6,16]
	.loc 1 4499 0 discriminator 1
	cmp	w27, w0
	bls	.L1178
	.loc 1 4501 0
	ldr	x1, [x24,w0,uxtw 3]
	.loc 1 4499 0 discriminator 3
	add	w0, w21, 4
	.loc 1 4501 0
	str	x1, [x6,24]
	.loc 1 4499 0 discriminator 1
	cmp	w27, w0
	bls	.L1178
	.loc 1 4501 0
	ldr	x1, [x24,w0,uxtw 3]
	.loc 1 4499 0 discriminator 3
	add	w0, w21, 5
	.loc 1 4501 0
	str	x1, [x6,32]
	.loc 1 4499 0 discriminator 1
	cmp	w27, w0
	bls	.L1178
	.loc 1 4501 0
	ldr	x1, [x24,w0,uxtw 3]
	.loc 1 4499 0 discriminator 3
	add	w0, w21, 6
	.loc 1 4501 0
	str	x1, [x6,40]
	.loc 1 4499 0 discriminator 1
	cmp	w27, w0
	bls	.L1178
	.loc 1 4501 0
	ldr	x1, [x24,w0,uxtw 3]
	.loc 1 4499 0 discriminator 3
	add	w0, w21, 7
	.loc 1 4501 0
	str	x1, [x6,48]
	.loc 1 4499 0 discriminator 1
	cmp	w27, w0
	bls	.L1178
	.loc 1 4501 0
	ldr	x1, [x24,w0,uxtw 3]
	.loc 1 4499 0 discriminator 3
	add	w0, w21, 8
	.loc 1 4501 0
	str	x1, [x6,56]
	.loc 1 4499 0 discriminator 1
	cmp	w27, w0
	bls	.L1178
	.loc 1 4501 0
	ldr	x1, [x24,w0,uxtw 3]
	.loc 1 4499 0 discriminator 3
	add	w0, w21, 9
	.loc 1 4501 0
	str	x1, [x6,64]
	.loc 1 4499 0 discriminator 1
	cmp	w27, w0
	bls	.L1178
	.loc 1 4501 0
	ldr	x1, [x24,w0,uxtw 3]
	.loc 1 4499 0 discriminator 3
	add	w0, w21, 10
	.loc 1 4501 0
	str	x1, [x6,72]
	.loc 1 4499 0 discriminator 1
	cmp	w27, w0
	bls	.L1178
	.loc 1 4501 0
	ldr	x1, [x24,w0,uxtw 3]
	.loc 1 4499 0 discriminator 3
	add	w0, w21, 11
	.loc 1 4501 0
	str	x1, [x6,80]
	.loc 1 4499 0 discriminator 1
	cmp	w27, w0
	bls	.L1178
	.loc 1 4501 0
	ldr	x1, [x24,w0,uxtw 3]
	.loc 1 4499 0 discriminator 3
	add	w0, w21, 12
	.loc 1 4501 0
	str	x1, [x6,88]
	.loc 1 4499 0 discriminator 1
	cmp	w27, w0
	bls	.L1178
	.loc 1 4501 0
	ldr	x1, [x24,w0,uxtw 3]
	.loc 1 4499 0 discriminator 3
	add	w0, w21, 13
	.loc 1 4501 0
	str	x1, [x6,96]
	.loc 1 4499 0 discriminator 1
	cmp	w27, w0
	bls	.L1178
	.loc 1 4501 0
	ldr	x1, [x24,w0,uxtw 3]
	.loc 1 4499 0 discriminator 3
	add	w0, w21, 14
	.loc 1 4501 0
	str	x1, [x6,104]
	.loc 1 4499 0 discriminator 1
	cmp	w27, w0
	bls	.L1178
	.loc 1 4501 0
	ldr	x0, [x24,w0,uxtw 3]
	.loc 1 4499 0 discriminator 3
	add	w21, w21, 15
	.loc 1 4501 0
	str	x0, [x6,112]
	.loc 1 4499 0 discriminator 1
	cmp	w27, w21
	bls	.L1178
	.loc 1 4501 0
	ldr	x0, [x24,w21,uxtw 3]
	str	x0, [x6,120]
.L1178:
	.loc 1 4504 0
	str	wzr, [x23,100]
	add	x26, x23, 100
	.loc 1 4505 0
	str	wzr, [x23,104]
	.loc 1 4506 0
	add	x28, x22, 2512
	mov	x1, x24
	str	x6, [x29,96]
	ldrb	w0, [x25,1123]
	.loc 1 4505 0
	add	x6, x23, 104
	.loc 1 4506 0
	mov	w2, w27
	mov	x3, x28
	mov	x4, x26
	mov	w5, 0
	.loc 1 4505 0
	mov	x21, x6
	str	x6, [x29,104]
	.loc 1 4506 0
	bl	GenPiclistfromFrmlist
.LVL618:
	.loc 1 4507 0
	add	x24, x22, 2776
	ldr	x6, [x29,96]
	mov	x4, x21
	ldrb	w0, [x25,1123]
	mov	w2, w27
	mov	x1, x6
	mov	x3, x24
	mov	w5, 0
	bl	GenPiclistfromFrmlist
.LVL619:
	.loc 1 4510 0 discriminator 1
	ldr	w21, [x22,2108]
	cbz	w21, .L1200
	.loc 1 4512 0
	ldr	x0, [x22,1968]
	.loc 1 4510 0 discriminator 1
	cmp	w21, 1
	.loc 1 4512 0
	str	x0, [x29,376]
	add	x27, x29, 376
	.loc 1 4510 0 discriminator 1
	bls	.L1180
	.loc 1 4512 0
	ldr	x0, [x22,1976]
	.loc 1 4510 0 discriminator 1
	cmp	w21, 2
	.loc 1 4512 0
	str	x0, [x29,384]
	.loc 1 4510 0 discriminator 1
	beq	.L1180
	.loc 1 4512 0
	ldr	x0, [x22,1984]
	.loc 1 4510 0 discriminator 1
	cmp	w21, 3
	.loc 1 4512 0
	str	x0, [x27,16]
	.loc 1 4510 0 discriminator 1
	beq	.L1180
	.loc 1 4512 0
	ldr	x0, [x22,1992]
	.loc 1 4510 0 discriminator 1
	cmp	w21, 4
	.loc 1 4512 0
	str	x0, [x27,24]
	.loc 1 4510 0 discriminator 1
	beq	.L1180
	.loc 1 4512 0
	ldr	x0, [x22,2000]
	.loc 1 4510 0 discriminator 1
	cmp	w21, 5
	.loc 1 4512 0
	str	x0, [x27,32]
	.loc 1 4510 0 discriminator 1
	beq	.L1180
	.loc 1 4512 0
	ldr	x0, [x22,2008]
	.loc 1 4510 0 discriminator 1
	cmp	w21, 6
	.loc 1 4512 0
	str	x0, [x27,40]
	.loc 1 4510 0 discriminator 1
	beq	.L1180
	.loc 1 4512 0
	ldr	x0, [x22,2016]
	.loc 1 4510 0 discriminator 1
	cmp	w21, 7
	.loc 1 4512 0
	str	x0, [x27,48]
	.loc 1 4510 0 discriminator 1
	beq	.L1180
	.loc 1 4512 0
	ldr	x0, [x22,2024]
	.loc 1 4510 0 discriminator 1
	cmp	w21, 8
	.loc 1 4512 0
	str	x0, [x27,56]
	.loc 1 4510 0 discriminator 1
	beq	.L1180
	.loc 1 4512 0
	ldr	x0, [x22,2032]
	.loc 1 4510 0 discriminator 1
	cmp	w21, 9
	.loc 1 4512 0
	str	x0, [x27,64]
	.loc 1 4510 0 discriminator 1
	beq	.L1180
	.loc 1 4512 0
	ldr	x0, [x22,2040]
	.loc 1 4510 0 discriminator 1
	cmp	w21, 10
	.loc 1 4512 0
	str	x0, [x29,448]
	.loc 1 4510 0 discriminator 1
	beq	.L1180
	.loc 1 4512 0
	ldr	x0, [x22,2048]
	.loc 1 4510 0 discriminator 1
	cmp	w21, 11
	.loc 1 4512 0
	str	x0, [x29,456]
	.loc 1 4510 0 discriminator 1
	beq	.L1180
	.loc 1 4512 0
	ldr	x0, [x22,2056]
	.loc 1 4510 0 discriminator 1
	cmp	w21, 12
	.loc 1 4512 0
	str	x0, [x27,88]
	.loc 1 4510 0 discriminator 1
	beq	.L1180
	.loc 1 4512 0
	ldr	x0, [x22,2064]
	.loc 1 4510 0 discriminator 1
	cmp	w21, 13
	.loc 1 4512 0
	str	x0, [x27,96]
	.loc 1 4510 0 discriminator 1
	beq	.L1180
	.loc 1 4512 0
	ldr	x0, [x22,2072]
	.loc 1 4510 0 discriminator 1
	cmp	w21, 14
	.loc 1 4512 0
	str	x0, [x27,104]
	.loc 1 4510 0 discriminator 1
	beq	.L1180
	.loc 1 4512 0
	ldr	x0, [x22,2080]
	.loc 1 4510 0 discriminator 1
	cmp	w21, 15
	.loc 1 4512 0
	str	x0, [x27,112]
	.loc 1 4510 0 discriminator 1
	beq	.L1180
	.loc 1 4512 0
	ldr	x0, [x22,2088]
	str	x0, [x27,120]
.L1180:
	uxtw	x1, w21
.L1179:
	.loc 1 4515 0
	adrp	x3, compare_fs_by_lt_pic_idx_asc
	mov	x0, x27
	mov	x2, 8
	add	x3, x3, :lo12:compare_fs_by_lt_pic_idx_asc
	bl	qsort
.LVL620:
	.loc 1 4517 0
	ldrb	w0, [x25,1123]
	mov	x1, x27
	mov	w2, w21
	mov	x3, x28
	mov	x4, x26
	mov	w5, 1
	bl	GenPiclistfromFrmlist
.LVL621:
	.loc 1 4518 0
	ldrb	w0, [x25,1123]
	mov	x1, x27
	ldr	x4, [x29,104]
	mov	w2, w21
	mov	x3, x24
	mov	w5, 1
	bl	GenPiclistfromFrmlist
.LVL622:
	ldr	w0, [x23,100]
	ldr	w1, [x23,104]
	cmp	w1, w0
	cset	w2, eq
.L1171:
	.loc 1 4521 0 discriminator 1
	cmp	w0, 1
	bls	.L1181
	cbz	w2, .L1181
	add	x2, x22, 2512
	mov	w3, 0
.L1182:
.LBB269:
	.loc 1 4527 0
	ldr	x5, [x2]
	ldr	x4, [x2,264]
	cmp	x5, x4
	bne	.L1181
	.loc 1 4525 0 discriminator 2
	add	w3, w3, 1
	add	x2, x2, 8
	.loc 1 4525 0 is_stmt 0 discriminator 1
	cmp	w0, w3
	bhi	.L1182
	.loc 1 4535 0 is_stmt 1
	ldr	x2, [x22,2776]
.LVL623:
	.loc 1 4536 0
	ldr	x3, [x22,2784]
	str	x3, [x22,2776]
	.loc 1 4537 0
	str	x2, [x22,2784]
.L1181:
.LBE269:
	.loc 1 4541 0 discriminator 1
	orr	w2, w0, w1
.LVL624:
	cbz	w2, .L1451
.L1148:
	.loc 1 4550 0
	ldr	w2, [x23,112]
	.loc 1 4551 0
	ldr	w3, [x23,116]
	.loc 1 4550 0
	add	w2, w2, 1
	cmp	w0, w2
	.loc 1 4551 0
	add	w3, w3, 1
	.loc 1 4550 0
	csel	w2, w0, w2, ls
	.loc 1 4551 0
	cmp	w1, w3
	csel	w3, w1, w3, ls
	.loc 1 4550 0
	str	w2, [x23,100]
	.loc 1 4551 0
	str	w3, [x23,104]
	.loc 1 4554 0 discriminator 1
	cmp	w2, 32
	bhi	.L1188
	uxtw	x0, w2
	mov	w1, 32
	add	x0, x0, 4096
	sub	w1, w1, w2
	add	x2, x0, 315
	add	x0, x0, 314
	add	x1, x2, x1
	add	x0, x20, x0, lsl 3
	add	x1, x20, x1, lsl 3
.L1187:
	.loc 1 4556 0
	str	xzr, [x0],8
	.loc 1 4554 0 discriminator 1
	cmp	x0, x1
	bne	.L1187
.L1188:
	.loc 1 4558 0 discriminator 1
	cmp	w3, 32
	bhi	.L1186
	uxtw	x0, w3
	mov	w1, 32
	add	x0, x0, 4096
	sub	w1, w1, w3
	add	x2, x0, 348
	add	x0, x0, 347
	add	x1, x2, x1
	add	x0, x20, x0, lsl 3
	add	x1, x20, x1, lsl 3
.L1189:
	.loc 1 4560 0
	str	xzr, [x0],8
	.loc 1 4558 0 discriminator 1
	cmp	x0, x1
	bne	.L1189
.L1186:
	.loc 1 4563 0
	mov	w0, 0
.L1153:
	.loc 1 4564 0
	ldr	x2, [x29,504]
	ldr	x1, [x19,#:lo12:__stack_chk_guard]
	cmp	x2, x1
	bne	.L1452
	ldp	x19, x20, [sp,16]
	.cfi_remember_state
	.cfi_restore 20
	.cfi_restore 19
.LVL625:
	ldp	x21, x22, [sp,32]
	.cfi_restore 22
	.cfi_restore 21
	ldp	x23, x24, [sp,48]
	.cfi_restore 24
	.cfi_restore 23
	ldp	x25, x26, [sp,64]
	.cfi_restore 26
	.cfi_restore 25
	ldp	x27, x28, [sp,80]
	.cfi_restore 28
	.cfi_restore 27
	ldp	x29, x30, [sp], 96
	.cfi_restore 30
	.cfi_restore 29
	.cfi_def_cfa 31, 416
	add	sp, sp, 416
	.cfi_def_cfa_offset 320
	ret
.LVL626:
.L1154:
	.cfi_restore_state
	.loc 1 4418 0 discriminator 1
	cbz	w1, .L1198
	sub	w1, w1, #1
	add	x0, x22, 1840
	add	x4, x1, 4096
	mov	w21, 0
	add	x4, x4, 231
	add	x4, x20, x4, lsl 3
	b	.L1159
.L1158:
	add	x0, x0, 8
	cmp	x0, x4
	beq	.L1453
.L1159:
	.loc 1 4420 0
	ldr	x2, [x0]
	ldrb	w1, [x2,2]
	cmp	w1, 3
	bne	.L1158
	.loc 1 4422 0
	ldr	w3, [x25,1448]
	ldr	w1, [x2,348]
	cmp	w3, w1
	blt	.L1158
	.loc 1 4424 0
	uxtw	x1, w21
	add	x0, x0, 8
	add	x1, x1, 4096
	add	x3, x2, 336
	add	x1, x1, 314
	.loc 1 4418 0 discriminator 1
	cmp	x0, x4
	.loc 1 4424 0
	add	w21, w21, 1
	str	x3, [x20,x1,lsl 3]
	.loc 1 4418 0 discriminator 1
	bne	.L1159
.L1453:
	uxtw	x1, w21
.L1157:
	.loc 1 4428 0
	adrp	x3, compare_pic_by_poc_desc
	add	x0, x22, 2512
	mov	x2, 8
	add	x3, x3, :lo12:compare_pic_by_poc_desc
	bl	qsort
.LVL627:
	.loc 1 4430 0 discriminator 1
	ldr	w24, [x22,2104]
	cbz	w24, .L1160
	sub	w1, w24, #1
	add	x2, x22, 1840
	add	x1, x1, 4096
	mov	w26, w21
	add	x1, x1, 231
	add	x1, x20, x1, lsl 3
	b	.L1162
.L1161:
	add	x2, x2, 8
	cmp	x2, x1
	beq	.L1454
.L1162:
	.loc 1 4432 0
	ldr	x0, [x2]
	ldrb	w24, [x0,2]
	cmp	w24, 3
	bne	.L1161
	.loc 1 4434 0
	ldr	w4, [x25,1448]
	ldr	w3, [x0,348]
	cmp	w4, w3
	bge	.L1161
	.loc 1 4436 0
	uxtw	x4, w26
	add	x2, x2, 8
	add	x4, x4, 4096
	add	x3, x0, 336
	add	x4, x4, 314
	.loc 1 4430 0 discriminator 1
	cmp	x2, x1
	.loc 1 4436 0
	add	w26, w26, 1
	str	x3, [x20,x4,lsl 3]
	.loc 1 4430 0 discriminator 1
	bne	.L1162
.L1454:
	.loc 1 4440 0
	uxtw	x28, w21
	uxtw	x27, w26
	add	x0, x28, 4096
	adrp	x3, compare_pic_by_poc_asc
	add	x0, x0, 314
	add	x27, x27, 4096
	sub	w1, w26, w21
	mov	x2, 8
	add	x0, x20, x0, lsl 3
	add	x3, x3, :lo12:compare_pic_by_poc_asc
	add	x27, x27, 314
	mov	x24, x1
	bl	qsort
.LVL628:
	add	x27, x20, x27, lsl 3
	.loc 1 4442 0 discriminator 1
	cbz	w21, .L1164
.L1190:
	mov	x3, 0
.L1165:
	lsl	x2, x3, 3
	.loc 1 4444 0
	add	w0, w24, w3
	add	x2, x2, 32768
	add	x0, x0, 4096
	add	x2, x2, 2512
	add	x0, x0, 347
	add	x3, x3, 1
	.loc 1 4442 0 discriminator 1
	cmp	w21, w3
	.loc 1 4444 0
	ldr	x2, [x20,x2]
	str	x2, [x20,x0,lsl 3]
	.loc 1 4442 0 discriminator 1
	bhi	.L1165
.L1164:
	.loc 1 4446 0 discriminator 1
	cmp	w26, w21
	bls	.L1166
	add	x0, x28, 4096
	mvn	w21, w21
	add	x25, x0, 315
	add	w21, w21, w26
	add	x2, x0, 314
	add	x25, x25, x21
	neg	x1, x28, lsl 3
	add	x0, x20, x2, lsl 3
	add	x25, x20, x25, lsl 3
.L1167:
	add	x2, x0, x1
	.loc 1 4448 0
	ldr	x3, [x0]
	add	x0, x0, 8
	.loc 1 4446 0 discriminator 1
	cmp	x0, x25
	.loc 1 4448 0
	str	x3, [x2,264]
	.loc 1 4446 0 discriminator 1
	bne	.L1167
.L1166:
	.loc 1 4451 0
	str	w26, [x23,104]
	str	w26, [x23,100]
	.loc 1 4454 0 discriminator 1
	ldr	w1, [x22,2108]
	cbz	w1, .L1199
	sub	w1, w1, #1
	add	x0, x22, 1968
	add	x3, x1, 4096
	mov	w25, w26
	add	x3, x3, 247
	add	x3, x20, x3, lsl 3
	b	.L1170
.L1169:
	add	x0, x0, 8
	cmp	x0, x3
	beq	.L1455
.L1170:
	.loc 1 4456 0
	ldr	x2, [x0]
	ldrb	w1, [x2,1]
	cmp	w1, 3
	bne	.L1169
	.loc 1 4458 0
	ldrb	w1, [x2,337]
	cmp	w1, 1
	bne	.L1169
	add	x1, x20, x25, uxtw 3
	.loc 1 4460 0
	add	x1, x1, 32768
	add	x0, x0, 8
	add	x2, x2, 336
	.loc 1 4454 0 discriminator 1
	cmp	x0, x3
	.loc 1 4461 0
	add	w25, w25, 1
	.loc 1 4460 0
	str	x2, [x1,2512]
	.loc 1 4461 0
	str	x2, [x1,2776]
	.loc 1 4454 0 discriminator 1
	bne	.L1170
.L1455:
	sub	w1, w25, w26
.L1168:
	.loc 1 4465 0
	adrp	x2, compare_pic_by_lt_pic_num_asc
	mov	x0, x27
	add	x21, x2, :lo12:compare_pic_by_lt_pic_num_asc
	mov	x2, 8
	mov	x3, x21
	bl	qsort
.LVL629:
	.loc 1 4466 0
	ldr	w0, [x23,100]
	mov	x2, 8
	mov	x3, x21
	sub	w1, w25, w0
	uxtw	x0, w0
	add	x0, x0, 4096
	add	x0, x0, 347
	add	x0, x20, x0, lsl 3
	bl	qsort
.LVL630:
	.loc 1 4467 0
	str	w25, [x23,104]
	mov	w1, w25
	mov	w0, w25
	str	w25, [x23,100]
	mov	w2, 1
	b	.L1171
.L1445:
	.loc 1 4363 0 discriminator 1
	ldr	w0, [x22,2104]
	cbz	w0, .L1456
	.loc 1 4365 0
	ldr	x1, [x22,1840]
	ldrb	w2, [x1,2]
	cbnz	w2, .L1457
	mov	w21, 0
	add	x24, x29, 120
.L1129:
	.loc 1 4363 0 discriminator 1
	cmp	w0, 1
	bls	.L1130
	.loc 1 4365 0
	ldr	x1, [x22,1848]
	ldrb	w2, [x1,2]
	cbz	w2, .L1131
	.loc 1 4367 0
	str	x1, [x24,w21,uxtw 3]
	add	w21, w21, 1
.L1131:
	.loc 1 4363 0 discriminator 1
	cmp	w0, 2
	beq	.L1130
	.loc 1 4365 0
	ldr	x1, [x22,1856]
	ldrb	w2, [x1,2]
	cbz	w2, .L1132
	.loc 1 4367 0
	str	x1, [x24,w21,uxtw 3]
	add	w21, w21, 1
.L1132:
	.loc 1 4363 0 discriminator 1
	cmp	w0, 3
	beq	.L1130
	.loc 1 4365 0
	ldr	x1, [x22,1864]
	ldrb	w2, [x1,2]
	cbz	w2, .L1133
	.loc 1 4367 0
	str	x1, [x24,w21,uxtw 3]
	add	w21, w21, 1
.L1133:
	.loc 1 4363 0 discriminator 1
	cmp	w0, 4
	beq	.L1130
	.loc 1 4365 0
	ldr	x1, [x22,1872]
	ldrb	w2, [x1,2]
	cbz	w2, .L1134
	.loc 1 4367 0
	str	x1, [x24,w21,uxtw 3]
	add	w21, w21, 1
.L1134:
	.loc 1 4363 0 discriminator 1
	cmp	w0, 5
	beq	.L1130
	.loc 1 4365 0
	ldr	x1, [x22,1880]
	ldrb	w2, [x1,2]
	cbz	w2, .L1135
	.loc 1 4367 0
	str	x1, [x24,w21,uxtw 3]
	add	w21, w21, 1
.L1135:
	.loc 1 4363 0 discriminator 1
	cmp	w0, 6
	beq	.L1130
	.loc 1 4365 0
	ldr	x1, [x22,1888]
	ldrb	w2, [x1,2]
	cbz	w2, .L1136
	.loc 1 4367 0
	str	x1, [x24,w21,uxtw 3]
	add	w21, w21, 1
.L1136:
	.loc 1 4363 0 discriminator 1
	cmp	w0, 7
	beq	.L1130
	.loc 1 4365 0
	ldr	x1, [x22,1896]
	ldrb	w2, [x1,2]
	cbz	w2, .L1137
	.loc 1 4367 0
	str	x1, [x24,w21,uxtw 3]
	add	w21, w21, 1
.L1137:
	.loc 1 4363 0 discriminator 1
	cmp	w0, 8
	beq	.L1130
	.loc 1 4365 0
	ldr	x1, [x22,1904]
	ldrb	w2, [x1,2]
	cbz	w2, .L1138
	.loc 1 4367 0
	str	x1, [x24,w21,uxtw 3]
	add	w21, w21, 1
.L1138:
	.loc 1 4363 0 discriminator 1
	cmp	w0, 9
	beq	.L1130
	.loc 1 4365 0
	ldr	x1, [x22,1912]
	ldrb	w2, [x1,2]
	cbz	w2, .L1139
	.loc 1 4367 0
	str	x1, [x24,w21,uxtw 3]
	add	w21, w21, 1
.L1139:
	.loc 1 4363 0 discriminator 1
	cmp	w0, 10
	beq	.L1130
	.loc 1 4365 0
	ldr	x1, [x22,1920]
	ldrb	w2, [x1,2]
	cbz	w2, .L1140
	.loc 1 4367 0
	str	x1, [x24,w21,uxtw 3]
	add	w21, w21, 1
.L1140:
	.loc 1 4363 0 discriminator 1
	cmp	w0, 11
	beq	.L1130
	.loc 1 4365 0
	ldr	x1, [x22,1928]
	ldrb	w2, [x1,2]
	cbz	w2, .L1141
	.loc 1 4367 0
	str	x1, [x24,w21,uxtw 3]
	add	w21, w21, 1
.L1141:
	.loc 1 4363 0 discriminator 1
	cmp	w0, 12
	beq	.L1130
	.loc 1 4365 0
	ldr	x1, [x22,1936]
	ldrb	w2, [x1,2]
	cbz	w2, .L1142
	.loc 1 4367 0
	str	x1, [x24,w21,uxtw 3]
	add	w21, w21, 1
.L1142:
	.loc 1 4363 0 discriminator 1
	cmp	w0, 13
	beq	.L1130
	.loc 1 4365 0
	ldr	x1, [x22,1944]
	ldrb	w2, [x1,2]
	cbz	w2, .L1143
	.loc 1 4367 0
	str	x1, [x24,w21,uxtw 3]
	add	w21, w21, 1
.L1143:
	.loc 1 4363 0 discriminator 1
	cmp	w0, 14
	beq	.L1130
	.loc 1 4365 0
	ldr	x1, [x22,1952]
	ldrb	w2, [x1,2]
	cbz	w2, .L1144
	.loc 1 4367 0
	str	x1, [x24,w21,uxtw 3]
	add	w21, w21, 1
.L1144:
	.loc 1 4363 0 discriminator 1
	cmp	w0, 15
	beq	.L1130
	.loc 1 4365 0
	ldr	x0, [x22,1960]
	ldrb	w1, [x0,2]
	cbz	w1, .L1130
	.loc 1 4367 0
	str	x0, [x24,w21,uxtw 3]
	add	w21, w21, 1
.L1130:
	uxtw	x1, w21
.L1121:
	.loc 1 4370 0
	adrp	x3, compare_fs_by_frame_num_desc
	mov	x0, x24
	mov	x2, 8
	add	x3, x3, :lo12:compare_fs_by_frame_num_desc
	.loc 1 4372 0
	add	x26, x23, 100
	.loc 1 4373 0
	add	x28, x22, 2512
	.loc 1 4370 0
	bl	qsort
.LVL631:
	.loc 1 4372 0
	str	wzr, [x23,100]
	.loc 1 4373 0
	mov	w2, w21
	mov	x1, x24
	ldrb	w0, [x25,1123]
	mov	x3, x28
	mov	x4, x26
	mov	w5, 0
	bl	GenPiclistfromFrmlist
.LVL632:
	.loc 1 4376 0 discriminator 1
	ldr	w21, [x22,2108]
	cbz	w21, .L1196
	.loc 1 4378 0
	ldr	x0, [x22,1968]
	.loc 1 4376 0 discriminator 1
	cmp	w21, 1
	.loc 1 4378 0
	str	x0, [x29,376]
	add	x27, x29, 376
	.loc 1 4376 0 discriminator 1
	bls	.L1147
	.loc 1 4378 0
	ldr	x0, [x22,1976]
	.loc 1 4376 0 discriminator 1
	cmp	w21, 2
	.loc 1 4378 0
	str	x0, [x29,384]
	.loc 1 4376 0 discriminator 1
	beq	.L1147
	.loc 1 4378 0
	ldr	x0, [x22,1984]
	.loc 1 4376 0 discriminator 1
	cmp	w21, 3
	.loc 1 4378 0
	str	x0, [x27,16]
	.loc 1 4376 0 discriminator 1
	beq	.L1147
	.loc 1 4378 0
	ldr	x0, [x22,1992]
	.loc 1 4376 0 discriminator 1
	cmp	w21, 4
	.loc 1 4378 0
	str	x0, [x27,24]
	.loc 1 4376 0 discriminator 1
	beq	.L1147
	.loc 1 4378 0
	ldr	x0, [x22,2000]
	.loc 1 4376 0 discriminator 1
	cmp	w21, 5
	.loc 1 4378 0
	str	x0, [x27,32]
	.loc 1 4376 0 discriminator 1
	beq	.L1147
	.loc 1 4378 0
	ldr	x0, [x22,2008]
	.loc 1 4376 0 discriminator 1
	cmp	w21, 6
	.loc 1 4378 0
	str	x0, [x27,40]
	.loc 1 4376 0 discriminator 1
	beq	.L1147
	.loc 1 4378 0
	ldr	x0, [x22,2016]
	.loc 1 4376 0 discriminator 1
	cmp	w21, 7
	.loc 1 4378 0
	str	x0, [x27,48]
	.loc 1 4376 0 discriminator 1
	beq	.L1147
	.loc 1 4378 0
	ldr	x0, [x22,2024]
	.loc 1 4376 0 discriminator 1
	cmp	w21, 8
	.loc 1 4378 0
	str	x0, [x27,56]
	.loc 1 4376 0 discriminator 1
	beq	.L1147
	.loc 1 4378 0
	ldr	x0, [x22,2032]
	.loc 1 4376 0 discriminator 1
	cmp	w21, 9
	.loc 1 4378 0
	str	x0, [x27,64]
	.loc 1 4376 0 discriminator 1
	beq	.L1147
	.loc 1 4378 0
	ldr	x0, [x22,2040]
	.loc 1 4376 0 discriminator 1
	cmp	w21, 10
	.loc 1 4378 0
	str	x0, [x29,448]
	.loc 1 4376 0 discriminator 1
	beq	.L1147
	.loc 1 4378 0
	ldr	x0, [x22,2048]
	.loc 1 4376 0 discriminator 1
	cmp	w21, 11
	.loc 1 4378 0
	str	x0, [x29,456]
	.loc 1 4376 0 discriminator 1
	beq	.L1147
	.loc 1 4378 0
	ldr	x0, [x22,2056]
	.loc 1 4376 0 discriminator 1
	cmp	w21, 12
	.loc 1 4378 0
	str	x0, [x27,88]
	.loc 1 4376 0 discriminator 1
	beq	.L1147
	.loc 1 4378 0
	ldr	x0, [x22,2064]
	.loc 1 4376 0 discriminator 1
	cmp	w21, 13
	.loc 1 4378 0
	str	x0, [x27,96]
	.loc 1 4376 0 discriminator 1
	beq	.L1147
	.loc 1 4378 0
	ldr	x0, [x22,2072]
	.loc 1 4376 0 discriminator 1
	cmp	w21, 14
	.loc 1 4378 0
	str	x0, [x27,104]
	.loc 1 4376 0 discriminator 1
	beq	.L1147
	.loc 1 4378 0
	ldr	x0, [x22,2080]
	.loc 1 4376 0 discriminator 1
	cmp	w21, 15
	.loc 1 4378 0
	str	x0, [x27,112]
	.loc 1 4376 0 discriminator 1
	beq	.L1147
	.loc 1 4378 0
	ldr	x0, [x22,2088]
	str	x0, [x27,120]
.L1147:
	uxtw	x1, w21
.L1146:
	.loc 1 4381 0
	adrp	x3, compare_fs_by_lt_pic_idx_asc
	mov	x0, x27
	mov	x2, 8
	add	x3, x3, :lo12:compare_fs_by_lt_pic_idx_asc
	bl	qsort
.LVL633:
	.loc 1 4382 0
	ldrb	w0, [x25,1123]
	mov	x1, x27
	mov	w2, w21
	mov	x3, x28
	mov	x4, x26
	mov	w5, 1
	bl	GenPiclistfromFrmlist
.LVL634:
	.loc 1 4384 0
	str	wzr, [x23,104]
	ldr	w0, [x23,100]
	.loc 1 4386 0
	cbz	w0, .L1458
.L1197:
	mov	w1, 0
	b	.L1148
.L1448:
	.loc 1 4394 0
	ldr	x0, [x25,1416]
	add	x0, x0, 336
	str	x0, [x22,2512]
	b	.L1151
.L1457:
	.loc 1 4367 0
	add	x24, x29, 120
	mov	w21, 1
	str	x1, [x24]
	b	.L1129
.L1449:
	.loc 1 4398 0
	add	x0, x0, 376
	str	x0, [x22,2512]
	b	.L1151
.L1174:
	.loc 1 4493 0
	adrp	x3, compare_fs_by_poc_asc
	mov	x1, 0
	mov	x2, 8
	add	x3, x3, :lo12:compare_fs_by_poc_asc
	add	x0, x24, x21, uxtw 3
	bl	qsort
.LVL635:
	.loc 1 4495 0 discriminator 1
	cbz	w21, .L1202
	.loc 1 4497 0
	add	x6, x29, 248
	ldr	x0, [x24]
	.loc 1 4495 0 discriminator 1
	cmp	w21, 1
	mov	w27, w21
	.loc 1 4497 0
	str	x0, [x6]
	.loc 1 4495 0 discriminator 1
	bhi	.L1191
	mov	w27, 1
	b	.L1178
.L1200:
	.loc 1 4510 0 discriminator 1
	mov	x1, 0
	add	x27, x29, 376
	b	.L1179
.L1193:
	.loc 1 4338 0 discriminator 1
	mov	x1, 0
	mov	x24, 0
	b	.L1122
.L1450:
	.loc 1 4471 0 discriminator 1
	mov	x1, 0
	mov	w21, 0
	add	x24, x29, 120
	b	.L1156
.L1198:
	.loc 1 4418 0 discriminator 1
	mov	x1, 0
	mov	w21, 0
	b	.L1157
.L1160:
	.loc 1 4440 0
	uxtw	x28, w21
	adrp	x3, compare_pic_by_poc_asc
	add	x27, x28, 4096
	mov	x1, 0
	add	x27, x27, 314
	mov	x2, 8
	add	x3, x3, :lo12:compare_pic_by_poc_asc
	.loc 1 4442 0 discriminator 1
	mov	w26, w21
	.loc 1 4440 0
	add	x27, x20, x27, lsl 3
	mov	x0, x27
	bl	qsort
.LVL636:
	.loc 1 4442 0 discriminator 1
	cbnz	w21, .L1190
	b	.L1166
.L1199:
	.loc 1 4454 0 discriminator 1
	mov	w25, w26
	mov	x1, 0
	b	.L1168
.L1194:
	.loc 1 4351 0 discriminator 1
	mov	w21, w24
	mov	x1, 0
	b	.L1125
.L1456:
	.loc 1 4363 0 discriminator 1
	mov	x1, 0
	mov	w21, 0
	add	x24, x29, 120
	b	.L1121
.L1196:
	.loc 1 4376 0 discriminator 1
	mov	x1, 0
	add	x27, x29, 376
	b	.L1146
.L1149:
	.loc 1 4408 0
	adrp	x1, .LC33
	mov	w0, 1
	add	x1, x1, :lo12:.LC33
	bl	dprint_linux_kernel
.LVL637:
	.loc 1 4409 0
	mov	x0, x20
	bl	ClearCurrSlice
.LVL638:
	.loc 1 4410 0
	mov	w0, -1
	b	.L1153
.L1451:
	.loc 1 4543 0
	adrp	x1, .LC34
	mov	w0, 1
	add	x1, x1, :lo12:.LC34
	bl	dprint_linux_kernel
.LVL639:
	.loc 1 4544 0
	mov	x0, x20
	bl	ClearCurrSlice
.LVL640:
	.loc 1 4545 0
	mov	w0, -1
	b	.L1153
.L1452:
	.loc 1 4564 0
	bl	__stack_chk_fail
.LVL641:
.L1202:
	.loc 1 4495 0 discriminator 1
	mov	w27, 0
	add	x6, x29, 248
	b	.L1178
	.cfi_endproc
.LFE2185:
	.size	InitListX, .-InitListX
	.align	2
	.global	DumpList
	.type	DumpList, %function
DumpList:
.LFB2186:
	.loc 1 4578 0
	.cfi_startproc
.LVL642:
	.loc 1 4584 0
	adrp	x1, g_PrintEnable
	.loc 1 4578 0
	stp	x29, x30, [sp, -16]!
	.cfi_def_cfa_offset 16
	.cfi_offset 29, -16
	.cfi_offset 30, -8
	add	x29, sp, 0
	.cfi_def_cfa_register 29
	.loc 1 4584 0
	ldr	w1, [x1,#:lo12:g_PrintEnable]
	tbz	x1, 13, .L1459
	bl	DumpList.part.5
.LVL643:
.L1459:
	.loc 1 4641 0
	ldp	x29, x30, [sp], 16
	.cfi_restore 30
	.cfi_restore 29
	.cfi_def_cfa 31, 0
	ret
	.cfi_endproc
.LFE2186:
	.size	DumpList, .-DumpList
	.align	2
	.global	FindNearestPOCPicId
	.type	FindNearestPOCPicId, %function
FindNearestPOCPicId:
.LFB2187:
	.loc 1 4653 0
	.cfi_startproc
.LVL644:
	.loc 1 4658 0
	add	x3, x0, 32768
	ldr	w4, [x3,2100]
	cbz	w4, .L1483
	.loc 1 4663 0
	add	x0, x0, 53248
.LVL645:
	.loc 1 4665 0
	ldr	x2, [x3,1712]
	.loc 1 4668 0 discriminator 1
	cmp	w4, 1
	.loc 1 4663 0
	ldr	w1, [x0,1444]
	.loc 1 4666 0
	ldr	w5, [x2,304]
.LVL646:
	sub	w5, w1, w5
	sxtw	x5, w5
	eor	x0, x5, x5, asr 63
	sub	x5, x0, x5, asr 63
	mov	w2, w5
	.loc 1 4668 0 discriminator 1
	bls	.L1484
	.loc 1 4672 0
	ldr	x7, [x3,1720]
	.loc 1 4673 0
	mov	w0, 0
.LVL647:
	.loc 1 4672 0
	ldr	w6, [x7,304]
	sub	w6, w1, w6
	sxtw	x6, w6
	eor	x8, x6, x6, asr 63
	sub	x6, x8, x6, asr 63
	.loc 1 4673 0
	cmp	w5, w6
	bgt	.L1528
.L1467:
	.loc 1 4668 0 discriminator 1
	cmp	w4, 2
	beq	.L1465
	.loc 1 4672 0
	ldr	x6, [x3,1728]
	ldr	w5, [x6,304]
	sub	w5, w1, w5
	sxtw	x5, w5
	eor	x7, x5, x5, asr 63
	sub	x5, x7, x5, asr 63
	.loc 1 4673 0
	cmp	w2, w5
	bgt	.L1529
.L1469:
	.loc 1 4668 0 discriminator 1
	cmp	w4, 3
	beq	.L1465
	.loc 1 4672 0
	ldr	x6, [x3,1736]
	ldr	w5, [x6,304]
	sub	w5, w1, w5
	sxtw	x5, w5
	eor	x7, x5, x5, asr 63
	sub	x5, x7, x5, asr 63
	.loc 1 4673 0
	cmp	w2, w5
	bgt	.L1530
.L1470:
	.loc 1 4668 0 discriminator 1
	cmp	w4, 4
	beq	.L1465
	.loc 1 4672 0
	ldr	x6, [x3,1744]
	ldr	w5, [x6,304]
	sub	w5, w1, w5
	sxtw	x5, w5
	eor	x7, x5, x5, asr 63
	sub	x5, x7, x5, asr 63
	.loc 1 4673 0
	cmp	w2, w5
	bgt	.L1531
.L1471:
	.loc 1 4668 0 discriminator 1
	cmp	w4, 5
	beq	.L1465
	.loc 1 4672 0
	ldr	x6, [x3,1752]
	ldr	w5, [x6,304]
	sub	w5, w1, w5
	sxtw	x5, w5
	eor	x7, x5, x5, asr 63
	sub	x5, x7, x5, asr 63
	.loc 1 4673 0
	cmp	w2, w5
	bgt	.L1532
.L1472:
	.loc 1 4668 0 discriminator 1
	cmp	w4, 6
	beq	.L1465
	.loc 1 4672 0
	ldr	x6, [x3,1760]
	ldr	w5, [x6,304]
	sub	w5, w1, w5
	sxtw	x5, w5
	eor	x7, x5, x5, asr 63
	sub	x5, x7, x5, asr 63
	.loc 1 4673 0
	cmp	w2, w5
	bgt	.L1533
.L1473:
	.loc 1 4668 0 discriminator 1
	cmp	w4, 7
	beq	.L1465
	.loc 1 4672 0
	ldr	x6, [x3,1768]
	ldr	w5, [x6,304]
	sub	w5, w1, w5
	sxtw	x5, w5
	eor	x7, x5, x5, asr 63
	sub	x5, x7, x5, asr 63
	.loc 1 4673 0
	cmp	w2, w5
	bgt	.L1534
.L1474:
	.loc 1 4668 0 discriminator 1
	cmp	w4, 8
	beq	.L1465
	.loc 1 4672 0
	ldr	x6, [x3,1776]
	ldr	w5, [x6,304]
	sub	w5, w1, w5
	sxtw	x5, w5
	eor	x7, x5, x5, asr 63
	sub	x5, x7, x5, asr 63
	.loc 1 4673 0
	cmp	w2, w5
	bgt	.L1535
.L1475:
	.loc 1 4668 0 discriminator 1
	cmp	w4, 9
	beq	.L1465
	.loc 1 4672 0
	ldr	x6, [x3,1784]
	ldr	w5, [x6,304]
	sub	w5, w1, w5
	sxtw	x5, w5
	eor	x7, x5, x5, asr 63
	sub	x5, x7, x5, asr 63
	.loc 1 4673 0
	cmp	w2, w5
	bgt	.L1536
.L1476:
	.loc 1 4668 0 discriminator 1
	cmp	w4, 10
	beq	.L1465
	.loc 1 4672 0
	ldr	x6, [x3,1792]
	ldr	w5, [x6,304]
	sub	w5, w1, w5
	sxtw	x5, w5
	eor	x7, x5, x5, asr 63
	sub	x5, x7, x5, asr 63
	.loc 1 4673 0
	cmp	w2, w5
	bgt	.L1537
.L1477:
	.loc 1 4668 0 discriminator 1
	cmp	w4, 11
	beq	.L1465
	.loc 1 4672 0
	ldr	x6, [x3,1800]
	ldr	w5, [x6,304]
	sub	w5, w1, w5
	sxtw	x5, w5
	eor	x7, x5, x5, asr 63
	sub	x5, x7, x5, asr 63
	.loc 1 4673 0
	cmp	w2, w5
	bgt	.L1538
.L1478:
	.loc 1 4668 0 discriminator 1
	cmp	w4, 12
	beq	.L1465
	.loc 1 4672 0
	ldr	x6, [x3,1808]
	ldr	w5, [x6,304]
	sub	w5, w1, w5
	sxtw	x5, w5
	eor	x7, x5, x5, asr 63
	sub	x5, x7, x5, asr 63
	.loc 1 4673 0
	cmp	w2, w5
	bgt	.L1539
.L1479:
	.loc 1 4668 0 discriminator 1
	cmp	w4, 13
	beq	.L1465
	.loc 1 4672 0
	ldr	x6, [x3,1816]
	ldr	w5, [x6,304]
	sub	w5, w1, w5
	sxtw	x5, w5
	eor	x7, x5, x5, asr 63
	sub	x5, x7, x5, asr 63
	.loc 1 4673 0
	cmp	w2, w5
	bgt	.L1540
.L1480:
	.loc 1 4668 0 discriminator 1
	cmp	w4, 14
	beq	.L1465
	.loc 1 4672 0
	ldr	x6, [x3,1824]
	ldr	w5, [x6,304]
	sub	w5, w1, w5
	sxtw	x5, w5
	eor	x7, x5, x5, asr 63
	sub	x5, x7, x5, asr 63
	.loc 1 4673 0
	cmp	w2, w5
	bgt	.L1541
.L1481:
	.loc 1 4668 0 discriminator 1
	cmp	w4, 15
	beq	.L1465
	.loc 1 4672 0
	ldr	x3, [x3,1832]
	ldr	w4, [x3,304]
	sub	w1, w1, w4
.LVL648:
	sxtw	x1, w1
	eor	x4, x1, x1, asr 63
	sub	x1, x4, x1, asr 63
	.loc 1 4673 0
	cmp	w2, w1
	ble	.L1465
	.loc 1 4675 0
	ldr	w0, [x3,88]
.LVL649:
.L1465:
.LVL650:
	.loc 1 4683 0
	ret
.LVL651:
.L1541:
	.loc 1 4675 0
	ldr	w0, [x6,88]
.LVL652:
	mov	w2, w5
	b	.L1481
.LVL653:
.L1540:
	ldr	w0, [x6,88]
.LVL654:
	mov	w2, w5
	b	.L1480
.LVL655:
.L1539:
	ldr	w0, [x6,88]
.LVL656:
	mov	w2, w5
	b	.L1479
.LVL657:
.L1538:
	ldr	w0, [x6,88]
.LVL658:
	mov	w2, w5
	b	.L1478
.LVL659:
.L1537:
	ldr	w0, [x6,88]
.LVL660:
	mov	w2, w5
	b	.L1477
.LVL661:
.L1536:
	ldr	w0, [x6,88]
.LVL662:
	mov	w2, w5
	b	.L1476
.LVL663:
.L1535:
	ldr	w0, [x6,88]
.LVL664:
	mov	w2, w5
	b	.L1475
.LVL665:
.L1534:
	ldr	w0, [x6,88]
.LVL666:
	mov	w2, w5
	b	.L1474
.LVL667:
.L1533:
	ldr	w0, [x6,88]
.LVL668:
	mov	w2, w5
	b	.L1473
.LVL669:
.L1532:
	ldr	w0, [x6,88]
.LVL670:
	mov	w2, w5
	b	.L1472
.LVL671:
.L1531:
	ldr	w0, [x6,88]
.LVL672:
	mov	w2, w5
	b	.L1471
.LVL673:
.L1530:
	ldr	w0, [x6,88]
.LVL674:
	mov	w2, w5
	b	.L1470
.LVL675:
.L1529:
	ldr	w0, [x6,88]
.LVL676:
	mov	w2, w5
	b	.L1469
.LVL677:
.L1528:
	ldr	w0, [x7,88]
.LVL678:
	mov	w2, w6
	b	.L1467
.L1484:
	.loc 1 4664 0
	mov	w0, 0
.LVL679:
.LVL680:
	.loc 1 4683 0
	ret
.LVL681:
.L1483:
	.loc 1 4660 0
	mov	w0, -1
.LVL682:
	.loc 1 4683 0
	ret
	.cfi_endproc
.LFE2187:
	.size	FindNearestPOCPicId, .-FindNearestPOCPicId
	.align	2
	.global	FindMinRefIdx
	.type	FindMinRefIdx, %function
FindMinRefIdx:
.LFB2188:
	.loc 1 4697 0
	.cfi_startproc
.LVL683:
	.loc 1 4701 0
	add	x1, x0, 28672
	ldrb	w2, [x1,56]
	cmp	w2, 2
	beq	.L1542
	.loc 1 4706 0
	add	x2, x0, 53248
	add	x0, x0, 32768
.LVL684:
	ldrb	w2, [x2,1123]
	cbnz	w2, .L1572
.LBB272:
.LBB273:
	.loc 1 4711 0 discriminator 1
	ldr	w6, [x1,100]
	add	x7, x0, 2384
	mov	w5, 0
.LVL685:
.L1546:
	cbz	w6, .L1550
	add	x2, x0, 2512
	mov	w4, 32
	mov	w1, 0
	b	.L1548
.L1547:
	.loc 1 4711 0 is_stmt 0 discriminator 2
	add	w1, w1, 1
	.loc 1 4711 0 discriminator 1
	cmp	w1, w6
	beq	.L1573
.L1548:
	.loc 1 4713 0 is_stmt 1
	ldr	x3, [x2]
	add	x2, x2, 8
	ldr	x3, [x3,32]
	ldr	w3, [x3,328]
	cmp	w3, w5
	bne	.L1547
	.loc 1 4716 0
	cmp	w4, w1
	csel	w4, w4, w1, ls
	.loc 1 4711 0 discriminator 2
	add	w1, w1, 1
	.loc 1 4717 0
	str	w4, [x7]
	.loc 1 4711 0 discriminator 1
	cmp	w1, w6
	.loc 1 4718 0
	str	w4, [x7,4]
	.loc 1 4711 0 discriminator 1
	bne	.L1548
.L1573:
	.loc 1 4722 0
	cmp	w4, 32
	bne	.L1549
.L1550:
	.loc 1 4724 0
	str	wzr, [x7]
	.loc 1 4725 0
	str	wzr, [x7,4]
.L1549:
	.loc 1 4708 0 discriminator 2
	add	w5, w5, 1
	add	x7, x7, 8
	.loc 1 4708 0 is_stmt 0 discriminator 1
	cmp	w5, 16
	bne	.L1546
.LVL686:
.L1542:
.LBE273:
.LBE272:
	.loc 1 4752 0 is_stmt 1
	ret
.LVL687:
.L1572:
	.loc 1 4734 0 discriminator 1
	ldr	w8, [x1,100]
	add	x9, x0, 2384
	mov	w7, 0
.LVL688:
	cbz	w8, .L1554
.LVL689:
.L1575:
	add	x3, x0, 2512
	mov	w6, 32
	mov	w2, 0
	b	.L1552
.L1551:
	.loc 1 4734 0 is_stmt 0 discriminator 2
	add	w2, w2, 1
	.loc 1 4734 0 discriminator 1
	cmp	w2, w8
	beq	.L1574
.L1552:
	.loc 1 4736 0 is_stmt 1
	ldr	x1, [x3]
	add	x3, x3, 8
	ldr	x5, [x1,32]
	ldrb	w4, [x1]
	ldr	w1, [x5,328]
	cmp	w4, 2
	cset	w4, eq
	orr	w1, w4, w1, lsl 1
	cmp	w1, w7
	bne	.L1551
	.loc 1 4739 0
	cmp	w6, w2
	csel	w6, w6, w2, ls
	.loc 1 4734 0 discriminator 2
	add	w2, w2, 1
	.loc 1 4740 0
	str	w6, [x9]
	.loc 1 4734 0 discriminator 1
	cmp	w2, w8
	bne	.L1552
.L1574:
	.loc 1 4744 0
	cmp	w6, 32
	beq	.L1554
	.loc 1 4731 0 discriminator 2
	add	w7, w7, 1
	add	x9, x9, 4
	.loc 1 4731 0 is_stmt 0 discriminator 1
	cmp	w7, 32
	beq	.L1542
.L1576:
	.loc 1 4734 0 is_stmt 1 discriminator 1
	cbnz	w8, .L1575
.L1554:
	.loc 1 4731 0 discriminator 2
	add	w7, w7, 1
	.loc 1 4746 0
	str	wzr, [x9]
	.loc 1 4731 0 discriminator 1
	cmp	w7, 32
	add	x9, x9, 4
	bne	.L1576
	b	.L1542
	.cfi_endproc
.LFE2188:
	.size	FindMinRefIdx, .-FindMinRefIdx
	.align	2
	.global	DecList
	.type	DecList, %function
DecList:
.LFB2189:
	.loc 1 4766 0
	.cfi_startproc
.LVL690:
	stp	x29, x30, [sp, -64]!
	.cfi_def_cfa_offset 64
	.cfi_offset 29, -64
	.cfi_offset 30, -56
	add	x29, sp, 0
	.cfi_def_cfa_register 29
	stp	x19, x20, [sp,16]
	.cfi_offset 19, -48
	.cfi_offset 20, -40
.LBB284:
.LBB285:
	.loc 1 4658 0
	add	x19, x0, 32768
.LBE285:
.LBE284:
	.loc 1 4766 0
	str	x23, [sp,48]
	stp	x21, x22, [sp,32]
	.cfi_offset 23, -16
	.cfi_offset 21, -32
	.cfi_offset 22, -24
.LBB291:
.LBB286:
	.loc 1 4658 0
	ldr	w3, [x19,2100]
	cbz	w3, .L1601
	.loc 1 4665 0
	ldr	x2, [x19,1712]
	.loc 1 4663 0
	add	x1, x0, 53248
	.loc 1 4668 0 discriminator 1
	cmp	w3, 1
	.loc 1 4666 0
	ldr	w5, [x2,304]
	.loc 1 4663 0
	ldr	w1, [x1,1444]
.LVL691:
	.loc 1 4666 0
	sub	w5, w1, w5
	sxtw	x5, w5
	eor	x2, x5, x5, asr 63
	sub	x5, x2, x5, asr 63
	mov	w2, w5
	.loc 1 4668 0 discriminator 1
	bls	.L1602
	.loc 1 4672 0
	ldr	x7, [x19,1720]
	.loc 1 4673 0
	mov	w4, 0
.LVL692:
	.loc 1 4672 0
	ldr	w6, [x7,304]
	sub	w6, w1, w6
	sxtw	x6, w6
	eor	x8, x6, x6, asr 63
	sub	x6, x8, x6, asr 63
	.loc 1 4673 0
	cmp	w6, w5
	blt	.L1653
.L1580:
	.loc 1 4668 0 discriminator 1
	cmp	w3, 2
	beq	.L1578
	.loc 1 4672 0
	ldr	x6, [x19,1728]
	ldr	w5, [x6,304]
	sub	w5, w1, w5
	sxtw	x5, w5
	eor	x7, x5, x5, asr 63
	sub	x5, x7, x5, asr 63
	.loc 1 4673 0
	cmp	w2, w5
	bgt	.L1654
.L1582:
	.loc 1 4668 0 discriminator 1
	cmp	w3, 3
	beq	.L1578
	.loc 1 4672 0
	ldr	x6, [x19,1736]
	ldr	w5, [x6,304]
	sub	w5, w1, w5
	sxtw	x5, w5
	eor	x7, x5, x5, asr 63
	sub	x5, x7, x5, asr 63
	.loc 1 4673 0
	cmp	w2, w5
	bgt	.L1655
.L1583:
	.loc 1 4668 0 discriminator 1
	cmp	w3, 4
	beq	.L1578
	.loc 1 4672 0
	ldr	x6, [x19,1744]
	ldr	w5, [x6,304]
	sub	w5, w1, w5
	sxtw	x5, w5
	eor	x7, x5, x5, asr 63
	sub	x5, x7, x5, asr 63
	.loc 1 4673 0
	cmp	w2, w5
	bgt	.L1656
.L1584:
	.loc 1 4668 0 discriminator 1
	cmp	w3, 5
	beq	.L1578
	.loc 1 4672 0
	ldr	x6, [x19,1752]
	ldr	w5, [x6,304]
	sub	w5, w1, w5
	sxtw	x5, w5
	eor	x7, x5, x5, asr 63
	sub	x5, x7, x5, asr 63
	.loc 1 4673 0
	cmp	w2, w5
	bgt	.L1657
.L1585:
	.loc 1 4668 0 discriminator 1
	cmp	w3, 6
	beq	.L1578
	.loc 1 4672 0
	ldr	x6, [x19,1760]
	ldr	w5, [x6,304]
	sub	w5, w1, w5
	sxtw	x5, w5
	eor	x7, x5, x5, asr 63
	sub	x5, x7, x5, asr 63
	.loc 1 4673 0
	cmp	w2, w5
	bgt	.L1658
.L1586:
	.loc 1 4668 0 discriminator 1
	cmp	w3, 7
	beq	.L1578
	.loc 1 4672 0
	ldr	x6, [x19,1768]
	ldr	w5, [x6,304]
	sub	w5, w1, w5
	sxtw	x5, w5
	eor	x7, x5, x5, asr 63
	sub	x5, x7, x5, asr 63
	.loc 1 4673 0
	cmp	w2, w5
	bgt	.L1659
.L1587:
	.loc 1 4668 0 discriminator 1
	cmp	w3, 8
	beq	.L1578
	.loc 1 4672 0
	ldr	x6, [x19,1776]
	ldr	w5, [x6,304]
	sub	w5, w1, w5
	sxtw	x5, w5
	eor	x7, x5, x5, asr 63
	sub	x5, x7, x5, asr 63
	.loc 1 4673 0
	cmp	w2, w5
	bgt	.L1660
.L1588:
	.loc 1 4668 0 discriminator 1
	cmp	w3, 9
	beq	.L1578
	.loc 1 4672 0
	ldr	x6, [x19,1784]
	ldr	w5, [x6,304]
	sub	w5, w1, w5
	sxtw	x5, w5
	eor	x7, x5, x5, asr 63
	sub	x5, x7, x5, asr 63
	.loc 1 4673 0
	cmp	w2, w5
	bgt	.L1661
.L1589:
	.loc 1 4668 0 discriminator 1
	cmp	w3, 10
	beq	.L1578
	.loc 1 4672 0
	ldr	x6, [x19,1792]
	ldr	w5, [x6,304]
	sub	w5, w1, w5
	sxtw	x5, w5
	eor	x7, x5, x5, asr 63
	sub	x5, x7, x5, asr 63
	.loc 1 4673 0
	cmp	w2, w5
	bgt	.L1662
.L1590:
	.loc 1 4668 0 discriminator 1
	cmp	w3, 11
	beq	.L1578
	.loc 1 4672 0
	ldr	x6, [x19,1800]
	ldr	w5, [x6,304]
	sub	w5, w1, w5
	sxtw	x5, w5
	eor	x7, x5, x5, asr 63
	sub	x5, x7, x5, asr 63
	.loc 1 4673 0
	cmp	w2, w5
	bgt	.L1663
.L1591:
	.loc 1 4668 0 discriminator 1
	cmp	w3, 12
	beq	.L1578
	.loc 1 4672 0
	ldr	x6, [x19,1808]
	ldr	w5, [x6,304]
	sub	w5, w1, w5
	sxtw	x5, w5
	eor	x7, x5, x5, asr 63
	sub	x5, x7, x5, asr 63
	.loc 1 4673 0
	cmp	w2, w5
	bgt	.L1664
.L1592:
	.loc 1 4668 0 discriminator 1
	cmp	w3, 13
	beq	.L1578
	.loc 1 4672 0
	ldr	x6, [x19,1816]
	ldr	w5, [x6,304]
	sub	w5, w1, w5
	sxtw	x5, w5
	eor	x7, x5, x5, asr 63
	sub	x5, x7, x5, asr 63
	.loc 1 4673 0
	cmp	w2, w5
	bgt	.L1665
.L1593:
	.loc 1 4668 0 discriminator 1
	cmp	w3, 14
	beq	.L1578
	.loc 1 4672 0
	ldr	x6, [x19,1824]
	ldr	w5, [x6,304]
	sub	w5, w1, w5
	sxtw	x5, w5
	eor	x7, x5, x5, asr 63
	sub	x5, x7, x5, asr 63
	.loc 1 4673 0
	cmp	w2, w5
	bgt	.L1666
.L1594:
	.loc 1 4668 0 discriminator 1
	cmp	w3, 15
	beq	.L1578
	.loc 1 4672 0
	ldr	x3, [x19,1832]
	ldr	w5, [x3,304]
	sub	w1, w1, w5
.LVL693:
	sxtw	x1, w1
	eor	x5, x1, x1, asr 63
	sub	x1, x5, x1, asr 63
	.loc 1 4673 0
	cmp	w2, w1
	bgt	.L1667
.LVL694:
.L1578:
.LBE286:
.LBE291:
	.loc 1 4769 0
	add	x20, x0, 28672
	.loc 1 4770 0
	mov	w21, -1
	.loc 1 4772 0
	ldrb	w1, [x20,56]
.LVL695:
	.loc 1 4769 0
	str	w4, [x20,1688]
.LVL696:
	.loc 1 4770 0
	str	w21, [x20,1684]
	.loc 1 4772 0
	cmp	w1, 2
	beq	.L1668
.L1596:
	mov	x22, x0
	.loc 1 4779 0
	bl	InitListX
.LVL697:
	.loc 1 4780 0
	cbnz	w0, .L1669
	.loc 1 4786 0
	adrp	x1, .LC36
.LBB292:
.LBB293:
	.loc 1 4584 0
	adrp	x23, g_PrintEnable
.LBE293:
.LBE292:
	.loc 1 4786 0
	mov	w0, 13
	add	x1, x1, :lo12:.LC36
	bl	dprint_linux_kernel
.LVL698:
.LBB296:
.LBB294:
	.loc 1 4584 0
	ldr	w0, [x23,#:lo12:g_PrintEnable]
	tbnz	x0, 13, .L1670
.L1599:
.LBE294:
.LBE296:
	.loc 1 4789 0
	mov	x0, x22
	bl	ReorderListX
.LVL699:
	.loc 1 4790 0
	mov	x0, x22
	bl	RepairList
.LVL700:
	.loc 1 4791 0
	cbnz	w0, .L1604
.LBB297:
.LBB298:
	.loc 1 4797 0
	mov	x0, x22
	bl	FindMinRefIdx
.LVL701:
	.loc 1 4799 0
	ldr	x0, [x19,2512]
	cbz	x0, .L1605
	.loc 1 4799 0 is_stmt 0 discriminator 1
	ldr	x0, [x0,32]
	ldr	w0, [x0,88]
.L1600:
	.loc 1 4800 0 is_stmt 1
	adrp	x1, .LC37
	.loc 1 4799 0 discriminator 4
	str	w0, [x20,1684]
	.loc 1 4800 0
	add	x1, x1, :lo12:.LC37
	mov	w0, 13
.LBB299:
.LBB300:
	.loc 1 4584 0
	mov	w21, 0
.LBE300:
.LBE299:
	.loc 1 4800 0
	bl	dprint_linux_kernel
.LVL702:
.LBB302:
.LBB301:
	.loc 1 4584 0
	ldr	w0, [x23,#:lo12:g_PrintEnable]
	tbz	x0, 13, .L1597
	mov	x0, x22
	bl	DumpList.part.5
.LVL703:
.L1597:
.LBE301:
.LBE302:
.LBE298:
.LBE297:
	.loc 1 4804 0
	mov	w0, w21
	ldr	x23, [sp,48]
	.cfi_remember_state
	.cfi_restore 23
	ldp	x19, x20, [sp,16]
	.cfi_restore 20
	.cfi_restore 19
	ldp	x21, x22, [sp,32]
	.cfi_restore 22
	.cfi_restore 21
.LVL704:
	ldp	x29, x30, [sp], 64
	.cfi_restore 30
	.cfi_restore 29
	.cfi_def_cfa 31, 0
	ret
.LVL705:
.L1667:
	.cfi_restore_state
	.loc 1 4769 0
	add	x20, x0, 28672
.LBB304:
.LBB287:
	.loc 1 4675 0
	ldr	w4, [x3,88]
.LVL706:
.LBE287:
.LBE304:
	.loc 1 4770 0
	mov	w21, -1
	.loc 1 4772 0
	ldrb	w1, [x20,56]
	.loc 1 4769 0
	str	w4, [x20,1688]
	.loc 1 4770 0
	str	w21, [x20,1684]
	.loc 1 4772 0
	cmp	w1, 2
	bne	.L1596
.L1668:
	.loc 1 4774 0
	str	wzr, [x20,100]
	.loc 1 4776 0
	mov	w21, 0
	.loc 1 4775 0
	str	wzr, [x20,104]
	.loc 1 4804 0
	mov	w0, w21
.LVL707:
	ldp	x19, x20, [sp,16]
	.cfi_remember_state
	.cfi_restore 19
	.cfi_restore 20
	ldp	x21, x22, [sp,32]
	.cfi_restore 21
	.cfi_restore 22
	ldr	x23, [sp,48]
	.cfi_restore 23
	ldp	x29, x30, [sp], 64
	.cfi_restore 29
	.cfi_restore 30
	.cfi_def_cfa 31, 0
	ret
.LVL708:
.L1666:
	.cfi_restore_state
.LBB305:
.LBB288:
	.loc 1 4675 0
	ldr	w4, [x6,88]
.LVL709:
	mov	w2, w5
	b	.L1594
.LVL710:
.L1665:
	ldr	w4, [x6,88]
.LVL711:
	mov	w2, w5
	b	.L1593
.LVL712:
.L1664:
	ldr	w4, [x6,88]
.LVL713:
	mov	w2, w5
	b	.L1592
.LVL714:
.L1663:
	ldr	w4, [x6,88]
.LVL715:
	mov	w2, w5
	b	.L1591
.LVL716:
.L1662:
	ldr	w4, [x6,88]
.LVL717:
	mov	w2, w5
	b	.L1590
.LVL718:
.L1661:
	ldr	w4, [x6,88]
.LVL719:
	mov	w2, w5
	b	.L1589
.LVL720:
.L1660:
	ldr	w4, [x6,88]
.LVL721:
	mov	w2, w5
	b	.L1588
.LVL722:
.L1659:
	ldr	w4, [x6,88]
.LVL723:
	mov	w2, w5
	b	.L1587
.LVL724:
.L1658:
	ldr	w4, [x6,88]
.LVL725:
	mov	w2, w5
	b	.L1586
.LVL726:
.L1657:
	ldr	w4, [x6,88]
.LVL727:
	mov	w2, w5
	b	.L1585
.LVL728:
.L1656:
	ldr	w4, [x6,88]
.LVL729:
	mov	w2, w5
	b	.L1584
.LVL730:
.L1655:
	ldr	w4, [x6,88]
.LVL731:
	mov	w2, w5
	b	.L1583
.LVL732:
.L1654:
	ldr	w4, [x6,88]
.LVL733:
	mov	w2, w5
	b	.L1582
.LVL734:
.L1653:
	ldr	w4, [x7,88]
.LVL735:
	mov	w2, w6
	b	.L1580
.LVL736:
.L1670:
.LBE288:
.LBE305:
.LBB306:
.LBB295:
	mov	x0, x22
	bl	DumpList.part.5
.LVL737:
	b	.L1599
.L1605:
.LBE295:
.LBE306:
.LBB307:
.LBB303:
	.loc 1 4799 0 discriminator 2
	mov	w0, -1
	b	.L1600
.LVL738:
.L1602:
.LBE303:
.LBE307:
.LBB308:
.LBB289:
	.loc 1 4664 0
	mov	w4, 0
.LVL739:
	b	.L1578
.LVL740:
.L1604:
.LBE289:
.LBE308:
	.loc 1 4793 0
	mov	w21, -1
	b	.L1597
.LVL741:
.L1601:
.LBB309:
.LBB290:
	.loc 1 4660 0
	mov	w4, -1
	b	.L1578
.LVL742:
.L1669:
.LBE290:
.LBE309:
	.loc 1 4782 0
	adrp	x1, .LC35
	mov	w2, 4782
	add	x1, x1, :lo12:.LC35
	mov	w0, 0
	bl	dprint_linux_kernel
.LVL743:
	.loc 1 4783 0
	b	.L1597
	.cfi_endproc
.LFE2189:
	.size	DecList, .-DecList
	.align	2
	.global	NoPicOut
	.type	NoPicOut, %function
NoPicOut:
.LFB2190:
	.loc 1 4816 0
	.cfi_startproc
.LVL744:
	.loc 1 4820 0 discriminator 1
	add	x4, x0, 53248
	ldr	w2, [x4,3604]
	cbz	w2, .L1678
	sub	w2, w2, #1
	mov	x3, 36273
	mov	w5, 464
	add	x1, x0, 32768
	add	x1, x1, 3041
	umaddl	x3, w2, w5, x3
	add	x0, x0, x3
.LVL745:
	b	.L1677
.L1728:
	.loc 1 4822 0 discriminator 1
	ldrb	w2, [x1,3]
	cmp	w2, 1
	beq	.L1675
	add	x1, x1, 464
	.loc 1 4820 0 discriminator 1
	cmp	x1, x0
	beq	.L1678
.L1677:
	add	x2, x1, 307
	.loc 1 4822 0
	ldr	w2, [x2]
	cmp	w2, 1
	bne	.L1728
.L1675:
	.loc 1 4824 0
	strb	wzr, [x1]
	.loc 1 4825 0
	strb	wzr, [x1,1]
	add	x1, x1, 464
	.loc 1 4820 0 discriminator 1
	cmp	x1, x0
	bne	.L1677
.LVL746:
.L1678:
	.loc 1 4830 0 discriminator 1
	ldr	w0, [x4,3608]
.LVL747:
	cbz	w0, .L1671
	.loc 1 4832 0
	str	wzr, [x4,3536]
	.loc 1 4830 0 discriminator 1
	cmp	w0, 1
	bls	.L1671
	.loc 1 4832 0
	str	wzr, [x4,3540]
	.loc 1 4830 0 discriminator 1
	cmp	w0, 2
	beq	.L1671
	.loc 1 4832 0
	str	wzr, [x4,3544]
	.loc 1 4830 0 discriminator 1
	cmp	w0, 3
	beq	.L1671
	.loc 1 4832 0
	str	wzr, [x4,3548]
	.loc 1 4830 0 discriminator 1
	cmp	w0, 4
	beq	.L1671
	.loc 1 4832 0
	str	wzr, [x4,3552]
	.loc 1 4830 0 discriminator 1
	cmp	w0, 5
	beq	.L1671
	.loc 1 4832 0
	str	wzr, [x4,3556]
	.loc 1 4830 0 discriminator 1
	cmp	w0, 6
	beq	.L1671
	.loc 1 4832 0
	str	wzr, [x4,3560]
	.loc 1 4830 0 discriminator 1
	cmp	w0, 7
	beq	.L1671
	.loc 1 4832 0
	str	wzr, [x4,3564]
	.loc 1 4830 0 discriminator 1
	cmp	w0, 8
	beq	.L1671
	.loc 1 4832 0
	str	wzr, [x4,3568]
	.loc 1 4830 0 discriminator 1
	cmp	w0, 9
	beq	.L1671
	.loc 1 4832 0
	str	wzr, [x4,3572]
	.loc 1 4830 0 discriminator 1
	cmp	w0, 10
	beq	.L1671
	.loc 1 4832 0
	str	wzr, [x4,3576]
	.loc 1 4830 0 discriminator 1
	cmp	w0, 11
	beq	.L1671
	.loc 1 4832 0
	str	wzr, [x4,3580]
	.loc 1 4830 0 discriminator 1
	cmp	w0, 12
	beq	.L1671
	.loc 1 4832 0
	str	wzr, [x4,3584]
	.loc 1 4830 0 discriminator 1
	cmp	w0, 13
	beq	.L1671
	.loc 1 4832 0
	str	wzr, [x4,3588]
	.loc 1 4830 0 discriminator 1
	cmp	w0, 14
	beq	.L1671
	.loc 1 4832 0
	str	wzr, [x4,3592]
	.loc 1 4830 0 discriminator 1
	cmp	w0, 15
	beq	.L1671
	.loc 1 4832 0
	str	wzr, [x4,3596]
	.loc 1 4830 0 discriminator 1
	cmp	w0, 16
	beq	.L1671
	.loc 1 4832 0
	str	wzr, [x4,3600]
.L1671:
	.loc 1 4836 0
	ret
	.cfi_endproc
.LFE2190:
	.size	NoPicOut, .-NoPicOut
	.align	2
	.global	GetBackPicFromVOQueue
	.type	GetBackPicFromVOQueue, %function
GetBackPicFromVOQueue:
.LFB2192:
	.loc 1 4923 0
	.cfi_startproc
.LVL748:
	stp	x29, x30, [sp, -80]!
	.cfi_def_cfa_offset 80
	.cfi_offset 29, -80
	.cfi_offset 30, -72
	add	x29, sp, 0
	.cfi_def_cfa_register 29
	stp	x23, x24, [sp,48]
	.cfi_offset 23, -32
	.cfi_offset 24, -24
	.loc 1 4931 0 discriminator 1
	add	x24, x0, 53248
	.loc 1 4923 0
	mov	x23, x0
	.loc 1 4928 0
	add	x0, x0, 16
.LVL749:
	.loc 1 4923 0
	str	x25, [sp,64]
	stp	x19, x20, [sp,16]
	stp	x21, x22, [sp,32]
	.cfi_offset 25, -16
	.cfi_offset 19, -64
	.cfi_offset 20, -56
	.cfi_offset 21, -48
	.cfi_offset 22, -40
	.loc 1 4928 0
	bl	ResetVoQueue
.LVL750:
	.loc 1 4931 0 discriminator 1
	ldr	w0, [x24,3604]
	cbz	w0, .L1736
	add	x20, x23, 32768
	.loc 1 4939 0
	add	x23, x23, 57344
.LVL751:
	add	x20, x20, 3296
	.loc 1 4931 0 discriminator 1
	mov	w22, 0
.LVL752:
	.loc 1 4939 0
	add	x23, x23, 676
	.loc 1 4931 0 discriminator 1
	add	x25, x24, 3604
.L1735:
	.loc 1 4933 0
	strb	wzr, [x20,-255]
	add	x21, x20, 32
	.loc 1 4934 0
	strb	wzr, [x20,-254]
	mov	x19, x20
.L1734:
	.loc 1 4937 0
	ldr	x0, [x19]
	.loc 1 4939 0
	mov	x1, x0
	.loc 1 4937 0
	cbz	x0, .L1733
	.loc 1 4939 0
	ldr	w0, [x23]
	bl	FreeUsdByDec
.LVL753:
	.loc 1 4940 0
	str	xzr, [x19]
.L1733:
	add	x19, x19, 8
	.loc 1 4935 0 discriminator 1
	cmp	x19, x21
	bne	.L1734
	.loc 1 4931 0 discriminator 1
	ldr	w0, [x25]
	.loc 1 4931 0 is_stmt 0 discriminator 2
	add	w22, w22, 1
	add	x20, x20, 464
	.loc 1 4931 0 discriminator 1
	cmp	w0, w22
	bhi	.L1735
.LVL754:
.L1736:
	.loc 1 4946 0 is_stmt 1 discriminator 1
	ldr	w0, [x24,3608]
	cbz	w0, .L1729
	.loc 1 4948 0
	str	wzr, [x24,3536]
	.loc 1 4946 0 discriminator 1
	cmp	w0, 1
	bls	.L1729
	.loc 1 4948 0
	str	wzr, [x24,3540]
	.loc 1 4946 0 discriminator 1
	cmp	w0, 2
	beq	.L1729
	.loc 1 4948 0
	str	wzr, [x24,3544]
	.loc 1 4946 0 discriminator 1
	cmp	w0, 3
	beq	.L1729
	.loc 1 4948 0
	str	wzr, [x24,3548]
	.loc 1 4946 0 discriminator 1
	cmp	w0, 4
	beq	.L1729
	.loc 1 4948 0
	str	wzr, [x24,3552]
	.loc 1 4946 0 discriminator 1
	cmp	w0, 5
	beq	.L1729
	.loc 1 4948 0
	str	wzr, [x24,3556]
	.loc 1 4946 0 discriminator 1
	cmp	w0, 6
	beq	.L1729
	.loc 1 4948 0
	str	wzr, [x24,3560]
	.loc 1 4946 0 discriminator 1
	cmp	w0, 7
	beq	.L1729
	.loc 1 4948 0
	str	wzr, [x24,3564]
	.loc 1 4946 0 discriminator 1
	cmp	w0, 8
	beq	.L1729
	.loc 1 4948 0
	str	wzr, [x24,3568]
	.loc 1 4946 0 discriminator 1
	cmp	w0, 9
	beq	.L1729
	.loc 1 4948 0
	str	wzr, [x24,3572]
	.loc 1 4946 0 discriminator 1
	cmp	w0, 10
	beq	.L1729
	.loc 1 4948 0
	str	wzr, [x24,3576]
	.loc 1 4946 0 discriminator 1
	cmp	w0, 11
	beq	.L1729
	.loc 1 4948 0
	str	wzr, [x24,3580]
	.loc 1 4946 0 discriminator 1
	cmp	w0, 12
	beq	.L1729
	.loc 1 4948 0
	str	wzr, [x24,3584]
	.loc 1 4946 0 discriminator 1
	cmp	w0, 13
	beq	.L1729
	.loc 1 4948 0
	str	wzr, [x24,3588]
	.loc 1 4946 0 discriminator 1
	cmp	w0, 14
	beq	.L1729
	.loc 1 4948 0
	str	wzr, [x24,3592]
	.loc 1 4946 0 discriminator 1
	cmp	w0, 15
	beq	.L1729
	.loc 1 4948 0
	str	wzr, [x24,3596]
	.loc 1 4946 0 discriminator 1
	cmp	w0, 16
	beq	.L1729
	.loc 1 4948 0
	str	wzr, [x24,3600]
.L1729:
	.loc 1 4952 0
	ldp	x19, x20, [sp,16]
	.cfi_restore 20
	.cfi_restore 19
	ldp	x21, x22, [sp,32]
	.cfi_restore 22
	.cfi_restore 21
.LVL755:
	ldp	x23, x24, [sp,48]
	.cfi_restore 24
	.cfi_restore 23
.LVL756:
	ldr	x25, [sp,64]
	.cfi_restore 25
	ldp	x29, x30, [sp], 80
	.cfi_restore 30
	.cfi_restore 29
	.cfi_def_cfa 31, 0
	ret
	.cfi_endproc
.LFE2192:
	.size	GetBackPicFromVOQueue, .-GetBackPicFromVOQueue
	.align	2
	.global	GetReRangeFlag
	.type	GetReRangeFlag, %function
GetReRangeFlag:
.LFB2193:
	.loc 1 4964 0
	.cfi_startproc
.LVL757:
	stp	x29, x30, [sp, -80]!
	.cfi_def_cfa_offset 80
	.cfi_offset 29, -80
	.cfi_offset 30, -72
	add	x29, sp, 0
	.cfi_def_cfa_register 29
	stp	x19, x20, [sp,16]
	.cfi_offset 19, -64
	.cfi_offset 20, -56
	mov	x20, x0
	.loc 1 4977 0
	add	x0, x0, 28672
.LVL758:
	.loc 1 4964 0
	stp	x21, x22, [sp,32]
	str	x23, [sp,48]
	.cfi_offset 21, -48
	.cfi_offset 22, -40
	.cfi_offset 23, -32
	.loc 1 4964 0
	adrp	x22, __stack_chk_guard
	mov	x23, x1
	.loc 1 4982 0
	add	x21, x20, 20480
	.loc 1 4977 0
	ldr	w4, [x0,68]
	mov	w0, 2208
	.loc 1 4978 0
	ldr	x3, [x20,21632]
	ldr	x19, [x20,21624]
	.loc 1 4977 0
	umull	x4, w4, w0
	.loc 1 4964 0
	ldr	x0, [x22,#:lo12:__stack_chk_guard]
	.loc 1 4978 0
	add	x4, x3, x4
	.loc 1 4964 0
	str	x0, [x29,72]
	.loc 1 4978 0
	mov	w3, 4000
	.loc 1 4983 0
	ldr	w2, [x21,1128]
	.loc 1 4982 0
	ldr	w5, [x21,1124]
	.loc 1 4978 0
	ldr	w0, [x4,28]
	umull	x3, w0, w3
	.loc 1 4985 0
	mov	w0, 2
	.loc 1 4978 0
	add	x19, x19, x3
.LVL759:
	.loc 1 4985 0
	ldrb	w1, [x19,18]
.LVL760:
	ldr	w3, [x19,3252]
	sub	w0, w0, w1
	.loc 1 4984 0
	ldr	w1, [x19,3248]
	.loc 1 4985 0
	madd	w0, w3, w0, w0
.LVL761:
	.loc 1 4984 0
	add	w1, w1, 1
.LVL762:
	.loc 1 4988 0
	cmp	w0, w2
	bne	.L1788
	cmp	w1, w5
	bne	.L1788
	.loc 1 4988 0 is_stmt 0 discriminator 1
	add	x4, x20, 32768
	ldr	w3, [x19,3272]
	ldr	w4, [x4,2096]
	add	w4, w4, 1
	cmp	w3, w4
	bls	.L1792
.L1788:
	.loc 1 4991 0 is_stmt 1
	adrp	x3, g_event_report
	ldr	x7, [x3,#:lo12:g_event_report]
	cbz	x7, .L1793
.LBB310:
	.loc 1 4991 0 is_stmt 0 discriminator 1
	add	x6, x20, 57344
	lsl	w3, w1, 4
	lsl	w2, w2, 4
	lsl	w4, w0, 4
	lsl	w5, w5, 4
	strh	w2, [x29,66]
	ldr	w0, [x6,676]
.LVL763:
	mov	w1, 2
.LVL764:
	strh	w3, [x29,68]
	add	x2, x29, 64
	strh	w5, [x29,64]
	mov	w3, 8
	strh	w4, [x29,70]
	blr	x7
.LVL765:
.L1793:
	mov	w2, 1
	ldr	w3, [x19,3272]
.LBE310:
	.loc 1 4990 0 is_stmt 1
	mov	w0, w2
.LVL766:
.L1789:
	.loc 1 4996 0
	add	x1, x20, 24576
.LVL767:
	.loc 1 4997 0
	ldr	w6, [x21,1196]
	ldr	w5, [x19,36]
	.loc 1 5009 0
	ldr	x4, [x29,72]
	.loc 1 4996 0
	ldr	w1, [x1,336]
	cmp	w1, w3
	cset	w3, ne
	.loc 1 4997 0
	cmp	w6, w5
	cset	w1, ne
	orr	w1, w3, w1
	.loc 1 4998 0
	orr	w2, w1, w2
	.loc 1 4999 0
	str	w2, [x23]
	.loc 1 5009 0
	ldr	x1, [x22,#:lo12:__stack_chk_guard]
	cmp	x4, x1
	bne	.L1794
	ldp	x19, x20, [sp,16]
	.cfi_remember_state
	.cfi_restore 20
	.cfi_restore 19
.LVL768:
.LVL769:
	ldp	x21, x22, [sp,32]
	.cfi_restore 22
	.cfi_restore 21
	ldr	x23, [sp,48]
	.cfi_restore 23
.LVL770:
	ldp	x29, x30, [sp], 80
	.cfi_restore 30
	.cfi_restore 29
	.cfi_def_cfa 31, 0
	ret
.LVL771:
.L1792:
	.cfi_restore_state
	mov	w2, 0
	.loc 1 4976 0
	mov	w0, 0
.LVL772:
	b	.L1789
.LVL773:
.L1794:
	.loc 1 5009 0
	bl	__stack_chk_fail
.LVL774:
	.cfi_endproc
.LFE2193:
	.size	GetReRangeFlag, .-GetReRangeFlag
	.align	2
	.global	DecPOC
	.type	DecPOC, %function
DecPOC:
.LFB2194:
	.loc 1 5021 0
	.cfi_startproc
.LVL775:
	.loc 1 5027 0
	add	x8, x0, 28672
	.loc 1 5029 0
	mov	w2, 2208
	.loc 1 5030 0
	ldr	x1, [x0,21632]
	.loc 1 5032 0
	mov	w6, 1
	.loc 1 5030 0
	ldr	x5, [x0,21624]
	.loc 1 5029 0
	ldr	w3, [x8,68]
	.loc 1 5027 0
	ldrb	w4, [x8,59]
	.loc 1 5029 0
	umull	x2, w3, w2
	.loc 1 5027 0
	cmp	w4, 5
	.loc 1 5030 0
	mov	w4, 4000
	add	x1, x1, x2
	.loc 1 5027 0
	cset	w2, eq
	.loc 1 5030 0
	ldr	w1, [x1,28]
	umull	x4, w1, w4
	add	x5, x5, x4
.LVL776:
	.loc 1 5034 0
	ldr	w1, [x5,2200]
	.loc 1 5032 0
	ldr	w4, [x5,2196]
	.loc 1 5034 0
	cmp	w1, w6
	.loc 1 5031 0
	ldr	w3, [x5,2204]
	.loc 1 5032 0
	add	w4, w4, 4
	lsl	w4, w6, w4
.LVL777:
	.loc 1 5034 0
	beq	.L1797
	cbz	w1, .L1798
	cmp	w1, 2
	bne	.L1795
	.loc 1 5196 0
	add	x0, x0, 24576
.LVL778:
	.loc 1 5194 0
	cbnz	w2, .L1851
	.loc 1 5201 0
	ldr	w1, [x0,3296]
	cbnz	w1, .L1830
	ldr	w1, [x0,3344]
	.loc 1 5206 0
	ldr	w2, [x0,3336]
	ldr	w3, [x0,3332]
	.loc 1 5208 0
	add	w4, w1, w4
.LVL779:
	cmp	w3, w2
	csel	w1, w4, w1, hi
.LVL780:
.L1832:
	str	w1, [x0,3340]
	.loc 1 5215 0
	add	w4, w1, w2
.LVL781:
	str	w4, [x0,3328]
	.loc 1 5222 0
	lsl	w4, w4, 1
	.loc 1 5216 0
	ldr	w3, [x8,88]
	.loc 1 5218 0
	cmp	w3, wzr
	cset	w3, eq
	sub	w4, w4, w3
	str	w4, [x0,3316]
	.loc 1 5225 0
	ldrb	w3, [x8,57]
	cbnz	w3, .L1835
	.loc 1 5227 0
	str	w4, [x0,3312]
	str	w4, [x0,3308]
	str	w4, [x0,3304]
.LVL782:
.L1829:
	.loc 1 5239 0
	str	w2, [x0,3332]
	.loc 1 5240 0
	str	w1, [x0,3344]
.LVL783:
.L1795:
	.loc 1 5250 0
	ret
.LVL784:
.L1798:
	.loc 1 5031 0
	add	w3, w3, 4
	add	x0, x0, 24576
.LVL785:
	lsl	w6, w6, w3
.LVL786:
	.loc 1 5038 0
	cbnz	w2, .L1804
	.loc 1 5045 0
	ldr	w2, [x0,3296]
	cbnz	w2, .L1802
	ldr	w4, [x0,3280]
.LVL787:
	ldr	w1, [x0,3284]
	mov	w3, w4
.L1803:
	.loc 1 5060 0
	ldr	w2, [x0,3272]
	cmp	w2, w1
	bcs	.L1801
	.loc 1 5061 0
	sub	w5, w1, w2
.LVL788:
	.loc 1 5060 0 discriminator 1
	cmp	w5, w6, lsr 1
	bcc	.L1801
	.loc 1 5063 0
	add	w3, w3, w6
	str	w3, [x0,3288]
.LVL789:
.L1805:
	.loc 1 5076 0
	ldrb	w1, [x8,57]
	cbnz	w1, .L1807
.L1854:
	.loc 1 5080 0
	ldr	w1, [x0,3276]
	.loc 1 5079 0
	add	w2, w3, w2
	str	w2, [x0,3304]
	.loc 1 5080 0
	add	w1, w2, w1
	str	w1, [x0,3308]
	.loc 1 5081 0
	cmp	w1, w2
	csel	w2, w1, w2, le
	str	w2, [x0,3316]
.L1808:
	.loc 1 5095 0
	ldr	w1, [x0,3336]
	ldr	w3, [x0,3332]
	.loc 1 5093 0
	str	w2, [x0,3312]
	.loc 1 5095 0
	cmp	w1, w3
	beq	.L1810
	.loc 1 5097 0
	str	w1, [x0,3332]
.L1810:
	.loc 1 5100 0
	ldr	w1, [x8,88]
	cbz	w1, .L1795
	.loc 1 5102 0
	ldr	w2, [x0,3272]
	.loc 1 5103 0
	ldr	w1, [x0,3288]
	.loc 1 5102 0
	str	w2, [x0,3284]
	.loc 1 5103 0
	str	w1, [x0,3280]
	.loc 1 5250 0
	ret
.LVL790:
.L1797:
	.loc 1 5111 0
	add	x0, x0, 24576
.LVL791:
	.loc 1 5109 0
	cbz	w2, .L1811
	.loc 1 5111 0
	str	wzr, [x0,3340]
.L1812:
	.loc 1 5133 0
	ldr	w1, [x5,2216]
	cbnz	w1, .L1852
	str	wzr, [x0,3328]
	ldr	w9, [x8,88]
.L1818:
	.loc 1 5146 0
	str	wzr, [x0,3360]
	.loc 1 5148 0 discriminator 1
	mov	w6, 0
	ldr	w1, [x5,2216]
	cmp	w1, wzr
	ble	.L1821
.L1837:
	add	x4, x5, 2220
.LVL792:
	mov	w3, 0
	mov	w2, 0
.L1820:
	.loc 1 5150 0
	ldr	w1, [x4],4
	.loc 1 5148 0 discriminator 3
	add	w2, w2, 1
	.loc 1 5150 0
	add	w3, w3, w1
	str	w3, [x0,3360]
	.loc 1 5148 0 discriminator 1
	ldr	w1, [x5,2216]
	cmp	w1, w2
	bgt	.L1820
	.loc 1 5152 0
	cbz	w6, .L1821
.LVL793:
.L1855:
	.loc 1 5154 0
	sub	w6, w6, #1
	.loc 1 5156 0
	ldr	w3, [x0,3360]
	.loc 1 5154 0
	udiv	w1, w6, w1
	str	w1, [x0,3352]
	.loc 1 5155 0
	ldr	w7, [x5,2216]
	udiv	w2, w6, w7
	.loc 1 5156 0
	mul	w1, w1, w3
	str	w1, [x0,3356]
	.loc 1 5155 0
	msub	w6, w2, w7, w6
	str	w6, [x0,3348]
	.loc 1 5157 0 discriminator 1
	tbnz	w6, #31, .L1822
	add	x3, x5, 2220
	mov	w2, 0
	.loc 1 5159 0
	add	x7, x0, 3356
.L1823:
	ldr	w4, [x3],4
.LVL794:
	.loc 1 5157 0 discriminator 3
	add	w2, w2, 1
	.loc 1 5157 0 is_stmt 0 discriminator 1
	cmp	w6, w2
	.loc 1 5159 0 is_stmt 1
	add	w1, w1, w4
	str	w1, [x7]
	.loc 1 5157 0 discriminator 1
	bge	.L1823
.LVL795:
.L1822:
	.loc 1 5166 0
	cbnz	w9, .L1824
	.loc 1 5168 0
	ldr	w2, [x5,2208]
	add	w1, w1, w2
	str	w1, [x0,3356]
.L1824:
	.loc 1 5170 0
	ldrb	w2, [x8,57]
	cbnz	w2, .L1825
	.loc 1 5173 0
	ldr	w3, [x0,3320]
	.loc 1 5174 0
	ldr	w2, [x0,3324]
	.loc 1 5173 0
	add	w1, w1, w3
	str	w1, [x0,3304]
	.loc 1 5174 0
	ldr	w3, [x5,2212]
	add	w3, w1, w3
	add	w2, w3, w2
	str	w2, [x0,3308]
	.loc 1 5175 0
	cmp	w2, w1
	csel	w1, w2, w1, le
	str	w1, [x0,3316]
.L1826:
	.loc 1 5189 0
	ldr	w3, [x0,3336]
	.loc 1 5190 0
	ldr	w2, [x0,3340]
	.loc 1 5187 0
	str	w1, [x0,3312]
	.loc 1 5189 0
	str	w3, [x0,3332]
	.loc 1 5190 0
	str	w2, [x0,3344]
	.loc 1 5250 0
	ret
.LVL796:
.L1802:
	.loc 1 5047 0
	ldr	w4, [x0,3300]
.LVL797:
	cbz	w4, .L1853
.LVL798:
.L1804:
	.loc 1 5060 0
	ldr	w2, [x0,3272]
	mov	w3, 0
	.loc 1 5040 0
	str	wzr, [x0,3280]
	.loc 1 5060 0
	mov	w4, 0
.LVL799:
	.loc 1 5041 0
	str	wzr, [x0,3284]
.L1801:
	.loc 1 5065 0
	cmp	w2, w1
	bls	.L1806
	.loc 1 5066 0
	sub	w1, w2, w1
	.loc 1 5065 0 discriminator 1
	cmp	w1, w6, lsr 1
	bls	.L1806
	.loc 1 5068 0
	sub	w3, w3, w6
	str	w3, [x0,3288]
	b	.L1805
.LVL800:
.L1851:
	mov	w1, 0
	.loc 1 5196 0
	str	wzr, [x0,3340]
	.loc 1 5197 0
	str	wzr, [x0,3308]
	str	wzr, [x0,3304]
	str	wzr, [x0,3312]
	str	wzr, [x0,3316]
	ldr	w2, [x0,3336]
	b	.L1829
.L1811:
	.loc 1 5116 0
	ldr	w1, [x0,3296]
	cbz	w1, .L1813
	.loc 1 5118 0
	str	wzr, [x0,3344]
	.loc 1 5119 0
	mov	w1, 0
	str	wzr, [x0,3332]
.L1814:
	.loc 1 5128 0
	str	w1, [x0,3340]
	b	.L1812
.LVL801:
.L1806:
	.loc 1 5072 0
	str	w4, [x0,3288]
	.loc 1 5076 0
	ldrb	w1, [x8,57]
	cbz	w1, .L1854
.L1807:
	.loc 1 5083 0
	ldrb	w1, [x8,58]
	.loc 1 5086 0
	add	w2, w3, w2
	.loc 1 5083 0
	cbnz	w1, .L1809
	.loc 1 5086 0
	str	w2, [x0,3304]
	str	w2, [x0,3316]
	b	.L1808
.LVL802:
.L1852:
	.loc 1 5135 0
	ldr	w6, [x0,3336]
	ldr	w1, [x0,3340]
	add	w6, w6, w1
	str	w6, [x0,3328]
	.loc 1 5141 0
	ldr	w9, [x8,88]
	cbnz	w9, .L1817
	.loc 1 5141 0 is_stmt 0 discriminator 1
	cbz	w6, .L1818
	.loc 1 5143 0 is_stmt 1
	sub	w6, w6, #1
	str	w6, [x0,3328]
.L1817:
	.loc 1 5146 0
	str	wzr, [x0,3360]
	.loc 1 5148 0 discriminator 1
	ldr	w1, [x5,2216]
	cmp	w1, wzr
	bgt	.L1837
	.loc 1 5152 0
	cbnz	w6, .L1855
.L1821:
	.loc 1 5164 0
	str	wzr, [x0,3356]
	mov	w1, 0
	b	.L1822
.L1825:
	.loc 1 5177 0
	ldrb	w2, [x8,58]
	cbnz	w2, .L1827
	.loc 1 5180 0
	ldr	w2, [x0,3320]
	add	w1, w1, w2
	str	w1, [x0,3304]
	str	w1, [x0,3316]
	b	.L1826
.L1813:
	.loc 1 5121 0
	ldr	w1, [x0,3332]
	ldr	w2, [x0,3336]
	cmp	w2, w1
	.loc 1 5124 0
	ldr	w1, [x0,3344]
	.loc 1 5121 0
	bcs	.L1814
	.loc 1 5124 0
	add	w4, w4, w1
.LVL803:
	str	w4, [x0,3340]
	b	.L1812
.LVL804:
.L1809:
	.loc 1 5091 0
	str	w2, [x0,3308]
	str	w2, [x0,3316]
	b	.L1808
.LVL805:
.L1835:
	.loc 1 5229 0
	ldrb	w3, [x8,58]
	.loc 1 5231 0
	str	w4, [x0,3312]
	.loc 1 5229 0
	cbnz	w3, .L1836
	.loc 1 5231 0
	str	w4, [x0,3304]
	b	.L1829
.LVL806:
.L1830:
	.loc 1 5206 0
	ldr	w2, [x0,3336]
	mov	w1, 0
	.loc 1 5203 0
	str	wzr, [x0,3332]
	.loc 1 5204 0
	str	wzr, [x0,3344]
	b	.L1832
.L1827:
	.loc 1 5185 0
	ldr	w3, [x5,2212]
	ldr	w2, [x0,3320]
	add	w1, w1, w3
	add	w1, w1, w2
	str	w1, [x0,3308]
	str	w1, [x0,3316]
	b	.L1826
.LVL807:
.L1853:
	.loc 1 5055 0
	ldr	w1, [x0,3304]
	mov	w3, 0
	.loc 1 5054 0
	str	wzr, [x0,3280]
	.loc 1 5055 0
	str	w1, [x0,3284]
	b	.L1803
.LVL808:
.L1836:
	.loc 1 5235 0
	str	w4, [x0,3308]
	b	.L1829
	.cfi_endproc
.LFE2194:
	.size	DecPOC, .-DecPOC
	.align	2
	.global	CalcPicNum
	.type	CalcPicNum, %function
CalcPicNum:
.LFB2195:
	.loc 1 5262 0
	.cfi_startproc
.LVL809:
	.loc 1 5262 0
	mov	x4, x0
	.loc 1 5263 0
	add	x0, x0, 28672
.LVL810:
	mov	w5, 2208
	.loc 1 5268 0
	add	x10, x4, 53248
	.loc 1 5265 0
	mov	w7, 1
	.loc 1 5263 0
	ldr	w0, [x0,68]
	ldr	x2, [x4,21632]
	.loc 1 5265 0
	ldr	x1, [x4,21624]
	.loc 1 5263 0
	umull	x0, w0, w5
	.loc 1 5268 0
	ldrb	w3, [x10,1123]
	.loc 1 5263 0
	add	x0, x2, x0
	mov	w2, 4000
	ldr	w0, [x0,28]
	umull	x0, w0, w2
	.loc 1 5265 0
	add	x0, x1, x0
	ldr	w0, [x0,2196]
	add	w0, w0, 4
	lsl	w7, w7, w0
.LVL811:
	.loc 1 5274 0 discriminator 1
	add	x0, x4, 32768
	.loc 1 5272 0
	cbz	w3, .L1857
	.loc 1 5268 0
	cmp	w3, 1
	add	x1, x0, 1840
	cset	w8, eq
	.loc 1 5269 0
	cmp	w3, 2
	.loc 1 5307 0 discriminator 1
	ldr	w3, [x0,2104]
	.loc 1 5269 0
	cset	w9, eq
	.loc 1 5307 0 discriminator 1
	mov	w2, 0
	cbz	w3, .L1877
.L1894:
	.loc 1 5309 0
	ldr	x3, [x1]
	.loc 1 5307 0 discriminator 2
	add	w2, w2, 1
	.loc 1 5309 0
	ldrb	w4, [x3,2]
.LVL812:
	cbz	w4, .L1871
	.loc 1 5311 0
	ldr	w5, [x3,292]
	ldr	w6, [x10,1432]
	.loc 1 5313 0
	sub	w4, w5, w7
	cmp	w5, w6
	csel	w4, w4, w5, hi
	str	w4, [x3,296]
	.loc 1 5319 0
	ldr	x3, [x1]
	ldrb	w4, [x3,2]
	tbz	x4, 0, .L1874
	.loc 1 5320 0
	ldr	w5, [x3,376]
	and	w5, w5, 16776960
	cmp	w5, 65536
	beq	.L1904
.L1874:
	.loc 1 5324 0
	tbz	x4, 1, .L1871
	.loc 1 5325 0
	ldr	w4, [x3,416]
	and	w4, w4, 16776960
	cmp	w4, 65536
	beq	.L1905
.L1871:
	.loc 1 5307 0 discriminator 1
	ldr	w3, [x0,2104]
	add	x1, x1, 8
	cmp	w3, w2
	bhi	.L1894
.LVL813:
.L1877:
	.loc 1 5332 0 discriminator 1
	ldr	w2, [x0,2108]
	add	x1, x0, 1968
	mov	w3, 0
	add	x0, x0, 2108
	cbz	w2, .L1856
.L1893:
	.loc 1 5334 0
	ldr	x4, [x1]
.LVL814:
	.loc 1 5332 0 discriminator 2
	add	w3, w3, 1
	.loc 1 5334 0
	ldrb	w2, [x4,2]
	cbz	w2, .L1879
	.loc 1 5336 0
	tbz	x2, 0, .L1880
	.loc 1 5337 0
	ldr	w5, [x4,376]
	and	w5, w5, 16776960
	cmp	w5, 256
	beq	.L1906
.L1880:
	.loc 1 5341 0
	tbz	x2, 1, .L1879
	.loc 1 5342 0
	ldr	w2, [x4,416]
	and	w2, w2, 16776960
	cmp	w2, 256
	beq	.L1907
.L1879:
	.loc 1 5332 0 discriminator 1
	ldr	w2, [x0]
	add	x1, x1, 8
	cmp	w2, w3
	bhi	.L1893
.LVL815:
.L1856:
	.loc 1 5349 0
	ret
.LVL816:
.L1904:
	.loc 1 5322 0
	ldr	w4, [x3,296]
	add	w4, w8, w4, lsl 1
	str	w4, [x3,384]
	ldr	x3, [x1]
	ldrb	w4, [x3,2]
	b	.L1874
.L1906:
	.loc 1 5339 0
	ldr	w2, [x4,300]
	add	w2, w8, w2, lsl 1
	str	w2, [x4,380]
	ldr	x4, [x1]
	ldrb	w2, [x4,2]
	b	.L1880
.L1907:
	.loc 1 5344 0
	ldr	w2, [x4,300]
	add	w2, w9, w2, lsl 1
	str	w2, [x4,420]
	b	.L1879
.L1905:
	.loc 1 5327 0
	ldr	w4, [x3,296]
	add	w4, w9, w4, lsl 1
	str	w4, [x3,424]
	b	.L1871
.LVL817:
.L1857:
	.loc 1 5274 0 discriminator 1
	ldr	w3, [x0,2104]
	mov	w2, 0
	add	x1, x0, 1840
	cbnz	w3, .L1892
.L1867:
	.loc 1 5294 0 discriminator 1
	ldr	w3, [x0,2108]
	add	x2, x0, 1968
	mov	w1, 0
	add	x0, x0, 2108
	cbz	w3, .L1856
	.loc 1 5296 0
	ldr	x3, [x2]
	.loc 1 5294 0 discriminator 2
	add	w1, w1, 1
	add	x2, x2, 8
	.loc 1 5296 0
	ldrb	w4, [x3,2]
.LVL818:
	cmp	w4, 3
	beq	.L1908
.L1868:
	.loc 1 5294 0 discriminator 1
	ldr	w3, [x0]
	cmp	w3, w1
	bls	.L1856
	.loc 1 5296 0
	ldr	x3, [x2]
	.loc 1 5294 0 discriminator 2
	add	w1, w1, 1
	add	x2, x2, 8
	.loc 1 5296 0
	ldrb	w4, [x3,2]
	cmp	w4, 3
	bne	.L1868
.L1908:
	.loc 1 5298 0
	ldr	w4, [x3,336]
	and	w4, w4, 16776960
	cmp	w4, 256
	bne	.L1868
	.loc 1 5300 0
	ldr	w4, [x3,300]
	str	w4, [x3,340]
	b	.L1868
.L1909:
	.loc 1 5278 0
	ldr	w4, [x3,336]
	and	w4, w4, 16776960
	cmp	w4, 65536
	bne	.L1863
	.loc 1 5280 0
	ldr	w5, [x3,292]
	ldr	w6, [x10,1432]
	.loc 1 5282 0
	sub	w4, w5, w7
	cmp	w5, w6
	csel	w4, w4, w5, hi
	str	w4, [x3,296]
	.loc 1 5288 0
	ldr	x3, [x1]
	ldr	w4, [x3,296]
	str	w4, [x3,344]
.L1863:
	.loc 1 5274 0 discriminator 1
	ldr	w3, [x0,2104]
	add	x1, x1, 8
	cmp	w3, w2
	bls	.L1867
.LVL819:
.L1892:
	.loc 1 5276 0
	ldr	x3, [x1]
	.loc 1 5274 0 discriminator 2
	add	w2, w2, 1
	.loc 1 5276 0
	ldrb	w4, [x3,2]
.LVL820:
	cmp	w4, 3
	bne	.L1863
	b	.L1909
	.cfi_endproc
.LFE2195:
	.size	CalcPicNum, .-CalcPicNum
	.align	2
	.global	IsOutDPB
	.type	IsOutDPB, %function
IsOutDPB:
.LFB2196:
	.loc 1 5353 0
	.cfi_startproc
.LVL821:
	.loc 1 5356 0
	cbz	x1, .L1943
	.loc 1 5361 0 discriminator 1
	add	x0, x0, 32768
.LVL822:
	ldr	w2, [x0,2100]
	cbz	w2, .L1943
	.loc 1 5363 0
	ldr	x3, [x0,1712]
	cmp	x3, x1
	beq	.L1942
	.loc 1 5361 0 discriminator 1
	cmp	w2, 1
	bls	.L1943
	.loc 1 5363 0
	ldr	x3, [x0,1720]
	cmp	x3, x1
	beq	.L1942
	.loc 1 5361 0 discriminator 1
	cmp	w2, 2
	beq	.L1943
	.loc 1 5363 0
	ldr	x3, [x0,1728]
	cmp	x3, x1
	beq	.L1942
	.loc 1 5361 0 discriminator 1
	cmp	w2, 3
	beq	.L1943
	.loc 1 5363 0
	ldr	x3, [x0,1736]
	cmp	x3, x1
	beq	.L1942
	.loc 1 5361 0 discriminator 1
	cmp	w2, 4
	beq	.L1943
	.loc 1 5363 0
	ldr	x3, [x0,1744]
	cmp	x3, x1
	beq	.L1942
	.loc 1 5361 0 discriminator 1
	cmp	w2, 5
	beq	.L1943
	.loc 1 5363 0
	ldr	x3, [x0,1752]
	cmp	x3, x1
	beq	.L1942
	.loc 1 5361 0 discriminator 1
	cmp	w2, 6
	beq	.L1943
	.loc 1 5363 0
	ldr	x3, [x0,1760]
	cmp	x3, x1
	beq	.L1942
	.loc 1 5361 0 discriminator 1
	cmp	w2, 7
	beq	.L1943
	.loc 1 5363 0
	ldr	x3, [x0,1768]
	cmp	x3, x1
	beq	.L1942
	.loc 1 5361 0 discriminator 1
	cmp	w2, 8
	beq	.L1943
	.loc 1 5363 0
	ldr	x3, [x0,1776]
	cmp	x3, x1
	beq	.L1942
	.loc 1 5361 0 discriminator 1
	cmp	w2, 9
	beq	.L1943
	.loc 1 5363 0
	ldr	x3, [x0,1784]
	cmp	x3, x1
	beq	.L1942
	.loc 1 5361 0 discriminator 1
	cmp	w2, 10
	beq	.L1943
	.loc 1 5363 0
	ldr	x3, [x0,1792]
	cmp	x3, x1
	beq	.L1942
	.loc 1 5361 0 discriminator 1
	cmp	w2, 11
	beq	.L1943
	.loc 1 5363 0
	ldr	x3, [x0,1800]
	cmp	x3, x1
	beq	.L1942
	.loc 1 5361 0 discriminator 1
	cmp	w2, 12
	beq	.L1943
	.loc 1 5363 0
	ldr	x3, [x0,1808]
	cmp	x3, x1
	beq	.L1942
	.loc 1 5361 0 discriminator 1
	cmp	w2, 13
	beq	.L1943
	.loc 1 5363 0
	ldr	x3, [x0,1816]
	cmp	x3, x1
	beq	.L1942
	.loc 1 5361 0 discriminator 1
	cmp	w2, 14
	beq	.L1943
	.loc 1 5363 0
	ldr	x3, [x0,1824]
	cmp	x3, x1
	beq	.L1942
	.loc 1 5361 0 discriminator 1
	cmp	w2, 15
	beq	.L1943
	.loc 1 5363 0
	ldr	x0, [x0,1832]
	.loc 1 5365 0
	cmp	x0, x1
	cset	w0, ne
	.loc 1 5370 0
	ret
.LVL823:
.L1943:
	.loc 1 5358 0
	mov	w0, 1
.LVL824:
	.loc 1 5370 0
	ret
.L1942:
	.loc 1 5365 0
	mov	w0, 0
	.loc 1 5370 0
	ret
	.cfi_endproc
.LFE2196:
	.size	IsOutDPB, .-IsOutDPB
	.align	2
	.global	WritePicMsg
	.type	WritePicMsg, %function
WritePicMsg:
.LFB2200:
	.loc 1 6145 0
	.cfi_startproc
.LVL825:
	stp	x29, x30, [sp, -80]!
	.cfi_def_cfa_offset 80
	.cfi_offset 29, -80
	.cfi_offset 30, -72
	.loc 1 6149 0
	adrp	x1, .LC38
	.loc 1 6145 0
	add	x29, sp, 0
	.cfi_def_cfa_register 29
	stp	x21, x22, [sp,32]
	.cfi_offset 21, -48
	.cfi_offset 22, -40
	.loc 1 6149 0
	add	x22, x0, 53248
	.loc 1 6145 0
	str	x25, [sp,64]
	stp	x19, x20, [sp,16]
	stp	x23, x24, [sp,48]
	.cfi_offset 25, -16
	.cfi_offset 19, -64
	.cfi_offset 20, -56
	.cfi_offset 23, -32
	.cfi_offset 24, -24
	.loc 1 6153 0
	add	x19, x0, 57344
	.loc 1 6145 0
	mov	x20, x0
	.loc 1 6149 0
	ldr	w2, [x22,1440]
	add	x1, x1, :lo12:.LC38
	ldrb	w3, [x22,1123]
	mov	w0, 2
.LVL826:
	ldr	w4, [x22,1216]
	.loc 1 6160 0
	add	x25, x20, 20480
	.loc 1 6149 0
	ldr	w5, [x22,1492]
	.loc 1 6163 0
	add	x23, x20, 24576
	.loc 1 6149 0
	bl	dprint_linux_kernel
.LVL827:
	.loc 1 6153 0
	str	wzr, [x19,600]
	.loc 1 6154 0
	ldr	x0, [x22,1360]
	str	x0, [x22,3680]
	.loc 1 6155 0
	ldr	x0, [x19,592]
	str	x0, [x19,448]
	.loc 1 6157 0
	ldr	w0, [x22,1212]
	str	w0, [x19,232]
	.loc 1 6158 0
	ldr	w1, [x22,1440]
	.loc 1 6159 0
	ldrb	w0, [x22,1123]
	.loc 1 6158 0
	str	w1, [x22,3688]
	.loc 1 6159 0
	strb	w0, [x22,3672]
	.loc 1 6161 0
	ldr	w1, [x22,1476]
	.loc 1 6160 0
	ldrb	w2, [x25,1179]
	.loc 1 6162 0
	ldr	w0, [x22,1480]
	.loc 1 6160 0
	str	w2, [x22,3704]
	.loc 1 6161 0
	str	w1, [x22,3692]
	.loc 1 6162 0
	str	w0, [x22,3696]
	.loc 1 6163 0
	ldr	w0, [x23,312]
	add	w0, w0, 1
	str	w0, [x22,3700]
	.loc 1 6164 0
	ldrb	w0, [x25,1178]
	strb	w0, [x22,3675]
	.loc 1 6166 0
	ldr	w0, [x23,1124]
	str	w0, [x22,3708]
	.loc 1 6167 0
	ldrb	w0, [x23,1064]
	str	w0, [x22,3712]
	.loc 1 6168 0
	ldr	w0, [x25,1200]
	strb	w0, [x22,3673]
	.loc 1 6169 0
	ldrb	w0, [x23,1068]
	str	w0, [x22,3716]
	.loc 1 6171 0
	ldr	w0, [x23,3316]
	str	w0, [x22,3720]
	.loc 1 6172 0
	ldr	w0, [x23,3304]
	str	w0, [x22,3724]
	.loc 1 6173 0
	ldr	w0, [x23,3308]
	.loc 1 6176 0
	ldr	x1, [x22,1416]
	.loc 1 6173 0
	str	w0, [x22,3728]
	.loc 1 6176 0
	ldr	w0, [x19,676]
	ldr	w1, [x1,288]
	bl	FSP_GetLogicFs
.LVL828:
	mov	x24, x0
.LVL829:
	.loc 1 6177 0
	cbz	x0, .L2018
	.loc 1 6182 0
	ldr	x2, [x0,296]
	ldr	x3, [x0,304]
	cbz	x2, .L1949
	.loc 1 6182 0 is_stmt 0 discriminator 1
	cbz	x3, .L1949
	.loc 1 6190 0 is_stmt 1
	ldr	w0, [x19,676]
	add	x1, x19, 140
	add	x2, x22, 3980
	add	x3, x19, 12
	.loc 1 6204 0
	add	x21, x20, 32768
	.loc 1 6190 0
	bl	FSP_GetDecFsAddrTab
.LVL830:
	.loc 1 6192 0
	ldr	x0, [x24,296]
	.loc 1 6195 0
	add	x2, x19, 144
	add	x1, x19, 224
	.loc 1 6192 0
	ldr	w0, [x0,4]
	str	w0, [x22,3964]
	.loc 1 6195 0
	ldr	w0, [x19,676]
	bl	FSP_GetPmvAddrTab
.LVL831:
	.loc 1 6197 0
	ldr	w0, [x22,1492]
	str	w0, [x22,3972]
	.loc 1 6198 0
	ldr	w0, [x24,324]
	str	w0, [x19,228]
	.loc 1 6201 0
	ldr	x0, [x24,304]
	ldr	w0, [x0,12]
	str	w0, [x22,3968]
	.loc 1 6202 0
	ldr	x0, [x24,304]
	ldr	w0, [x0,32]
	str	w0, [x22,3976]
	.loc 1 6204 0
	ldr	w2, [x21,2376]
	str	w2, [x19,436]
	.loc 1 6205 0 discriminator 1
	cbz	w2, .L1954
	.loc 1 6207 0
	ldr	w0, [x21,2184]
	.loc 1 6205 0 discriminator 1
	cmp	w2, 1
	.loc 1 6207 0
	str	w0, [x19,244]
	.loc 1 6208 0
	ldr	w0, [x21,2248]
	str	w0, [x19,308]
	.loc 1 6209 0
	ldr	w0, [x21,2312]
	str	w0, [x19,372]
	.loc 1 6205 0 discriminator 1
	bls	.L1954
	.loc 1 6207 0
	ldr	w0, [x21,2188]
	.loc 1 6205 0 discriminator 1
	cmp	w2, 2
	.loc 1 6207 0
	str	w0, [x19,248]
	.loc 1 6208 0
	ldr	w0, [x21,2252]
	str	w0, [x19,312]
	.loc 1 6209 0
	ldr	w0, [x21,2316]
	str	w0, [x19,376]
	.loc 1 6205 0 discriminator 1
	beq	.L1954
	.loc 1 6207 0
	ldr	w0, [x21,2192]
	.loc 1 6205 0 discriminator 1
	cmp	w2, 3
	.loc 1 6207 0
	str	w0, [x19,252]
	.loc 1 6208 0
	ldr	w0, [x21,2256]
	str	w0, [x19,316]
	.loc 1 6209 0
	ldr	w0, [x21,2320]
	str	w0, [x19,380]
	.loc 1 6205 0 discriminator 1
	beq	.L1954
	.loc 1 6207 0
	ldr	w0, [x21,2196]
	.loc 1 6205 0 discriminator 1
	cmp	w2, 4
	.loc 1 6207 0
	str	w0, [x19,256]
	.loc 1 6208 0
	ldr	w0, [x21,2260]
	str	w0, [x19,320]
	.loc 1 6209 0
	ldr	w0, [x21,2324]
	str	w0, [x19,384]
	.loc 1 6205 0 discriminator 1
	beq	.L1954
	.loc 1 6207 0
	ldr	w0, [x21,2200]
	.loc 1 6205 0 discriminator 1
	cmp	w2, 5
	.loc 1 6207 0
	str	w0, [x19,260]
	.loc 1 6208 0
	ldr	w0, [x21,2264]
	str	w0, [x19,324]
	.loc 1 6209 0
	ldr	w0, [x21,2328]
	str	w0, [x19,388]
	.loc 1 6205 0 discriminator 1
	beq	.L1954
	.loc 1 6207 0
	ldr	w0, [x21,2204]
	.loc 1 6205 0 discriminator 1
	cmp	w2, 6
	.loc 1 6207 0
	str	w0, [x19,264]
	.loc 1 6208 0
	ldr	w0, [x21,2268]
	str	w0, [x19,328]
	.loc 1 6209 0
	ldr	w0, [x21,2332]
	str	w0, [x19,392]
	.loc 1 6205 0 discriminator 1
	beq	.L1954
	.loc 1 6207 0
	ldr	w0, [x21,2208]
	.loc 1 6205 0 discriminator 1
	cmp	w2, 7
	.loc 1 6207 0
	str	w0, [x19,268]
	.loc 1 6208 0
	ldr	w0, [x21,2272]
	str	w0, [x19,332]
	.loc 1 6209 0
	ldr	w0, [x21,2336]
	str	w0, [x19,396]
	.loc 1 6205 0 discriminator 1
	beq	.L1954
	.loc 1 6207 0
	ldr	w0, [x21,2212]
	.loc 1 6205 0 discriminator 1
	cmp	w2, 8
	.loc 1 6207 0
	str	w0, [x19,272]
	.loc 1 6208 0
	ldr	w0, [x21,2276]
	str	w0, [x19,336]
	.loc 1 6209 0
	ldr	w0, [x21,2340]
	str	w0, [x19,400]
	.loc 1 6205 0 discriminator 1
	beq	.L1954
	.loc 1 6207 0
	ldr	w0, [x21,2216]
	.loc 1 6205 0 discriminator 1
	cmp	w2, 9
	.loc 1 6207 0
	str	w0, [x19,276]
	.loc 1 6208 0
	ldr	w0, [x21,2280]
	str	w0, [x19,340]
	.loc 1 6209 0
	ldr	w0, [x21,2344]
	str	w0, [x19,404]
	.loc 1 6205 0 discriminator 1
	beq	.L1954
	.loc 1 6207 0
	ldr	w0, [x21,2220]
	.loc 1 6205 0 discriminator 1
	cmp	w2, 10
	.loc 1 6207 0
	str	w0, [x19,280]
	.loc 1 6208 0
	ldr	w0, [x21,2284]
	str	w0, [x19,344]
	.loc 1 6209 0
	ldr	w0, [x21,2348]
	str	w0, [x19,408]
	.loc 1 6205 0 discriminator 1
	beq	.L1954
	.loc 1 6207 0
	ldr	w0, [x21,2224]
	.loc 1 6205 0 discriminator 1
	cmp	w2, 11
	.loc 1 6207 0
	str	w0, [x19,284]
	.loc 1 6208 0
	ldr	w0, [x21,2288]
	str	w0, [x19,348]
	.loc 1 6209 0
	ldr	w0, [x21,2352]
	str	w0, [x19,412]
	.loc 1 6205 0 discriminator 1
	beq	.L1954
	.loc 1 6207 0
	ldr	w0, [x21,2228]
	.loc 1 6205 0 discriminator 1
	cmp	w2, 12
	.loc 1 6207 0
	str	w0, [x19,288]
	.loc 1 6208 0
	ldr	w0, [x21,2292]
	str	w0, [x19,352]
	.loc 1 6209 0
	ldr	w0, [x21,2356]
	str	w0, [x19,416]
	.loc 1 6205 0 discriminator 1
	beq	.L1954
	.loc 1 6207 0
	ldr	w0, [x21,2232]
	.loc 1 6205 0 discriminator 1
	cmp	w2, 13
	.loc 1 6207 0
	str	w0, [x19,292]
	.loc 1 6208 0
	ldr	w0, [x21,2296]
	str	w0, [x19,356]
	.loc 1 6209 0
	ldr	w0, [x21,2360]
	str	w0, [x19,420]
	.loc 1 6205 0 discriminator 1
	beq	.L1954
	.loc 1 6207 0
	ldr	w0, [x21,2236]
	.loc 1 6205 0 discriminator 1
	cmp	w2, 14
	.loc 1 6207 0
	str	w0, [x19,296]
	.loc 1 6208 0
	ldr	w0, [x21,2300]
	str	w0, [x19,360]
	.loc 1 6209 0
	ldr	w0, [x21,2364]
	str	w0, [x19,424]
	.loc 1 6205 0 discriminator 1
	beq	.L1954
	.loc 1 6207 0
	ldr	w0, [x21,2240]
	.loc 1 6205 0 discriminator 1
	cmp	w2, 15
	.loc 1 6207 0
	str	w0, [x19,300]
	.loc 1 6208 0
	ldr	w0, [x21,2304]
	str	w0, [x19,364]
	.loc 1 6209 0
	ldr	w0, [x21,2368]
	str	w0, [x19,428]
	.loc 1 6205 0 discriminator 1
	beq	.L1954
	.loc 1 6207 0
	ldr	w0, [x21,2244]
	str	w0, [x19,304]
	.loc 1 6208 0
	ldr	w0, [x21,2308]
	str	w0, [x19,368]
	.loc 1 6209 0
	ldr	w0, [x21,2372]
	str	w0, [x19,432]
.L1954:
	.loc 1 6250 0
	ldrb	w0, [x25,1185]
	cbnz	w0, .L2019
	.loc 1 6250 0 is_stmt 0 discriminator 1
	ldrb	w0, [x23,1082]
	cbnz	w0, .L1955
	add	x4, x22, 3732
	mov	w1, 0
	adrp	x6, .LANCHOR0
.L1956:
	.loc 1 6254 0 is_stmt 1
	and	w0, w1, 3
	add	x20, x6, :lo12:.LANCHOR0
.LVL832:
	.loc 1 6252 0 discriminator 3
	add	w1, w1, 1
	.loc 1 6252 0 is_stmt 0 discriminator 1
	cmp	w1, 24
	.loc 1 6254 0 is_stmt 1
	ldr	w0, [x20,w0,uxtw 2]
	.loc 1 6255 0
	ubfx	x3, x0, 8, 8
	and	w5, w0, -16776961
	.loc 1 6256 0
	lsr	w0, w0, 16
	orr	w3, w5, w3, lsl 16
	ubfiz	w0, w0, 8, 8
	orr	w0, w3, w0
	.loc 1 6254 0
	str	w0, [x4],4
	.loc 1 6252 0 discriminator 1
	bne	.L1956
	add	x4, x22, 3828
	mov	w3, 0
.L1957:
	.loc 1 6262 0
	add	w0, w3, 1
	add	x1, x20, 16
	.loc 1 6264 0
	and	w5, w3, 14
	.loc 1 6262 0
	and	w0, w0, 15
	add	x4, x4, 8
	add	w3, w3, 2
	.loc 1 6260 0 discriminator 1
	cmp	w3, 32
	.loc 1 6262 0
	ldr	w22, [x1,w0,uxtw 2]
	.loc 1 6264 0
	ldr	w0, [x1,w5,uxtw 2]
	.loc 1 6262 0
	lsr	w5, w22, 16
	.loc 1 6263 0
	ubfiz	w7, w22, 16, 8
	.loc 1 6269 0
	lsr	w1, w0, 24
	.loc 1 6270 0
	ubfx	x6, x0, 8, 8
	.loc 1 6262 0
	orr	w7, w7, w5, lsl 24
	.loc 1 6265 0
	and	w5, w0, 255
	orr	w6, w6, w1, lsl 8
	.loc 1 6264 0
	lsr	w0, w0, 16
	.loc 1 6267 0
	and	w1, w22, -16777216
	.loc 1 6268 0
	ubfx	x22, x22, 8, 8
	orr	w5, w7, w5
	.loc 1 6264 0
	ubfiz	w0, w0, 8, 8
	orr	w1, w6, w1
	orr	w0, w5, w0
	.loc 1 6269 0
	orr	w22, w1, w22, lsl 16
	.loc 1 6262 0
	str	w0, [x4,-8]
	.loc 1 6267 0
	str	w22, [x4,-4]
	.loc 1 6260 0 discriminator 1
	bne	.L1957
.LVL833:
.L1963:
	.loc 1 6321 0 discriminator 1
	cbz	w2, .L1959
	add	x20, x19, 456
.LVL834:
	add	x23, x21, 2184
	mov	w22, 0
.LBB311:
	.loc 1 6325 0
	add	x19, x19, 676
.L1966:
	ldr	w2, [x23]
	add	x20, x20, 4
	ldr	w0, [x19]
	mov	w1, 0
.LBE311:
	.loc 1 6321 0 discriminator 3
	add	w22, w22, 1
.LBB312:
	.loc 1 6325 0
	bl	FSP_GetStoreType
.LVL835:
	.loc 1 6326 0
	cmp	w0, wzr
	cset	w0, ne
	str	w0, [x20,-4]
	.loc 1 6327 0
	ldr	w0, [x23],4
	str	w0, [x20,60]
.LBE312:
	.loc 1 6321 0 discriminator 1
	ldr	w0, [x21,2376]
	cmp	w0, w22
	bhi	.L1966
.LVL836:
.L1959:
	.loc 1 6330 0
	mov	w0, 0
.L1947:
	.loc 1 6331 0
	ldp	x19, x20, [sp,16]
	.cfi_remember_state
	.cfi_restore 20
	.cfi_restore 19
.LVL837:
	ldp	x21, x22, [sp,32]
	.cfi_restore 22
	.cfi_restore 21
	ldp	x23, x24, [sp,48]
	.cfi_restore 24
	.cfi_restore 23
.LVL838:
	ldr	x25, [sp,64]
	.cfi_restore 25
	ldp	x29, x30, [sp], 80
	.cfi_restore 30
	.cfi_restore 29
	.cfi_def_cfa 31, 0
	ret
.LVL839:
.L2019:
	.cfi_restore_state
	ldrb	w0, [x23,1082]
.L1955:
	.loc 1 6273 0
	cmp	w0, 1
	add	x4, x22, 3732
	mov	w1, 0
	beq	.L1961
.L1964:
	.loc 1 6300 0
	uxtw	x0, w1
	.loc 1 6298 0 discriminator 3
	add	w1, w1, 1
	.loc 1 6300 0
	add	x0, x0, 4096
	.loc 1 6298 0 discriminator 1
	cmp	w1, 24
	.loc 1 6300 0
	add	x0, x20, x0, lsl 2
	ldr	w0, [x0,7228]
	.loc 1 6301 0
	ubfx	x3, x0, 8, 8
	and	w5, w0, -16776961
	.loc 1 6302 0
	lsr	w0, w0, 16
	orr	w3, w5, w3, lsl 16
	ubfiz	w0, w0, 8, 8
	orr	w0, w3, w0
	.loc 1 6300 0
	str	w0, [x4],4
	.loc 1 6298 0 discriminator 1
	bne	.L1964
	add	x22, x22, 3828
	mov	w7, 1
	mov	w5, 0
.L1965:
	.loc 1 6308 0
	ubfx	x3, x5, 3, 29
	and	x1, x7, 15
	lsl	x3, x3, 4
	.loc 1 6310 0
	ubfiz	x0, x5, 1, 3
	.loc 1 6308 0
	add	x1, x3, x1
	.loc 1 6310 0
	add	x0, x3, x0
	.loc 1 6308 0
	add	x1, x1, 4096
	.loc 1 6310 0
	add	x0, x0, 4096
	add	x22, x22, 8
	.loc 1 6306 0 discriminator 3
	add	w5, w5, 1
	.loc 1 6308 0
	add	x1, x20, x1, lsl 2
	.loc 1 6310 0
	add	x0, x20, x0, lsl 2
	.loc 1 6306 0 discriminator 1
	cmp	w5, 16
	add	w7, w7, 2
	.loc 1 6308 0
	ldr	w1, [x1,7324]
	.loc 1 6310 0
	ldr	w0, [x0,7324]
	.loc 1 6308 0
	lsr	w3, w1, 16
	.loc 1 6314 0
	ubfx	x6, x1, 8, 8
	.loc 1 6315 0
	lsr	w9, w0, 24
	.loc 1 6309 0
	ubfiz	w8, w1, 16, 8
	.loc 1 6315 0
	lsl	w9, w9, 8
	.loc 1 6308 0
	orr	w8, w8, w3, lsl 24
	.loc 1 6310 0
	lsr	w4, w0, 16
	.loc 1 6311 0
	and	w3, w0, 255
	orr	w6, w9, w6, lsl 16
	.loc 1 6313 0
	and	w1, w1, -16777216
	orr	w3, w8, w3
	.loc 1 6310 0
	ubfiz	w4, w4, 8, 8
	orr	w1, w6, w1
	.loc 1 6316 0
	ubfx	x0, x0, 8, 8
	.loc 1 6310 0
	orr	w3, w3, w4
	.loc 1 6315 0
	orr	w0, w1, w0
	.loc 1 6308 0
	str	w3, [x22,-8]
	.loc 1 6313 0
	str	w0, [x22,-4]
	.loc 1 6306 0 discriminator 1
	bne	.L1965
	b	.L1963
.L1961:
	.loc 1 6277 0
	uxtw	x0, w1
	.loc 1 6275 0 discriminator 3
	add	w1, w1, 1
	.loc 1 6277 0
	add	x0, x0, 4096
	.loc 1 6275 0 discriminator 1
	cmp	w1, 24
	.loc 1 6277 0
	add	x0, x20, x0, lsl 2
	ldr	w0, [x0,11240]
	.loc 1 6278 0
	ubfx	x3, x0, 8, 8
	and	w5, w0, -16776961
	.loc 1 6279 0
	lsr	w0, w0, 16
	orr	w3, w5, w3, lsl 16
	ubfiz	w0, w0, 8, 8
	orr	w0, w3, w0
	.loc 1 6277 0
	str	w0, [x4],4
	.loc 1 6275 0 discriminator 1
	bne	.L1961
	add	x22, x22, 3828
	mov	w7, 1
	mov	w4, 0
.L1962:
	.loc 1 6285 0
	ubfx	x3, x4, 3, 29
	and	x1, x7, 15
	lsl	x3, x3, 4
	.loc 1 6287 0
	ubfiz	x0, x4, 1, 3
	.loc 1 6285 0
	add	x1, x3, x1
	.loc 1 6287 0
	add	x0, x3, x0
	.loc 1 6285 0
	add	x1, x1, 4096
	.loc 1 6287 0
	add	x0, x0, 4096
	add	x22, x22, 8
	.loc 1 6283 0 discriminator 3
	add	w4, w4, 1
	.loc 1 6285 0
	add	x1, x20, x1, lsl 2
	.loc 1 6287 0
	add	x0, x20, x0, lsl 2
	.loc 1 6283 0 discriminator 1
	cmp	w4, 16
	add	w7, w7, 2
	.loc 1 6285 0
	ldr	w1, [x1,11336]
	.loc 1 6287 0
	ldr	w0, [x0,11336]
	.loc 1 6285 0
	lsr	w3, w1, 16
	.loc 1 6291 0
	ubfx	x6, x1, 8, 8
	.loc 1 6292 0
	lsr	w9, w0, 24
	.loc 1 6286 0
	ubfiz	w8, w1, 16, 8
	.loc 1 6292 0
	lsl	w9, w9, 8
	.loc 1 6285 0
	orr	w8, w8, w3, lsl 24
	.loc 1 6288 0
	and	w5, w0, 255
	.loc 1 6287 0
	lsr	w3, w0, 16
	orr	w6, w9, w6, lsl 16
	.loc 1 6290 0
	and	w1, w1, -16777216
	orr	w5, w8, w5
	.loc 1 6287 0
	ubfiz	w3, w3, 8, 8
	orr	w1, w6, w1
	.loc 1 6293 0
	ubfx	x0, x0, 8, 8
	.loc 1 6287 0
	orr	w3, w5, w3
	.loc 1 6292 0
	orr	w0, w1, w0
	.loc 1 6285 0
	str	w3, [x22,-8]
	.loc 1 6290 0
	str	w0, [x22,-4]
	.loc 1 6283 0 discriminator 1
	bne	.L1962
	b	.L1963
.LVL840:
.L1949:
	.loc 1 6184 0
	adrp	x1, .LC40
	mov	w0, 0
.LVL841:
	add	x1, x1, :lo12:.LC40
	bl	dprint_linux_kernel
.LVL842:
	.loc 1 6186 0
	mov	w0, -1
	b	.L1947
.LVL843:
.L2018:
	.loc 1 6179 0
	ldr	x2, [x22,1416]
	adrp	x1, .LC39
	mov	w0, 0
.LVL844:
	add	x1, x1, :lo12:.LC39
	ldr	w2, [x2,288]
	bl	dprint_linux_kernel
.LVL845:
	.loc 1 6180 0
	mov	w0, -1
	b	.L1947
	.cfi_endproc
.LFE2200:
	.size	WritePicMsg, .-WritePicMsg
	.align	2
	.global	UpdatePicQpInf
	.type	UpdatePicQpInf, %function
UpdatePicQpInf:
.LFB2201:
	.loc 1 6335 0
	.cfi_startproc
.LVL846:
	.loc 1 6336 0
	ldr	w2, [x1,24]
	.loc 1 6337 0
	ldr	w3, [x1,28]
	.loc 1 6336 0
	cmp	w0, w2
	csel	w2, w0, w2, ge
	.loc 1 6337 0
	cmp	w0, w3
	csel	w0, w0, w3, le
.LVL847:
	.loc 1 6336 0
	str	w2, [x1,24]
	.loc 1 6337 0
	str	w0, [x1,28]
	.loc 1 6340 0
	ret
	.cfi_endproc
.LFE2201:
	.size	UpdatePicQpInf, .-UpdatePicQpInf
	.align	2
	.global	WriteSliceMsg
	.type	WriteSliceMsg, %function
WriteSliceMsg:
.LFB2202:
	.loc 1 6352 0
	.cfi_startproc
.LVL848:
	stp	x29, x30, [sp, -128]!
	.cfi_def_cfa_offset 128
	.cfi_offset 29, -128
	.cfi_offset 30, -120
	.loc 1 6368 0
	mov	x2, 0
	.loc 1 6352 0
	add	x29, sp, 0
	.cfi_def_cfa_register 29
	stp	x21, x22, [sp,32]
	.cfi_offset 21, -96
	.cfi_offset 22, -88
	mov	x21, x0
	.loc 1 6357 0
	add	x0, x0, 57344
.LVL849:
	.loc 1 6352 0
	stp	x19, x20, [sp,16]
	stp	x23, x24, [sp,48]
	stp	x25, x26, [sp,64]
	stp	x27, x28, [sp,80]
	.cfi_offset 19, -112
	.cfi_offset 20, -104
	.cfi_offset 23, -80
	.cfi_offset 24, -72
	.cfi_offset 25, -64
	.cfi_offset 26, -56
	.cfi_offset 27, -48
	.cfi_offset 28, -40
	.loc 1 6357 0
	mov	x1, x0
	.loc 1 6362 0
	add	x8, x21, 20480
	.loc 1 6357 0
	ldr	w6, [x0,600]
	.loc 1 6361 0
	ldr	x7, [x0,592]
	.loc 1 6357 0
	str	x0, [x29,112]
.LVL850:
	.loc 1 6359 0
	add	w0, w6, 1
	str	w0, [x1,600]
	.loc 1 6361 0
	uxtw	x1, w6
.LVL851:
	mov	x3, x1
	str	x1, [x29,104]
	.loc 1 6362 0
	ldr	w1, [x8,1132]
.LVL852:
	.loc 1 6361 0
	lsl	x5, x3, 12
	sub	x5, x5, x3, lsl 5
	.loc 1 6362 0
	sub	w1, w1, #1
	.loc 1 6361 0
	add	x19, x7, x5
.LVL853:
	.loc 1 6362 0
	cmp	w6, w1
	bcs	.L2022
	.loc 1 6364 0
	lsl	x1, x0, 12
	sub	x0, x1, x0, lsl 5
	add	x2, x7, x0
.L2022:
	str	x2, [x19,4056]
	.loc 1 6371 0
	ldr	x2, [x21,648]
	ldrb	w0, [x2]
	.loc 1 6371 0 is_stmt 0 discriminator 1
	ldr	w1, [x2,76]
	.loc 1 6371 0 discriminator 3
	cmp	w0, w1
	bcs	.L2023
	cmp	w0, 1
	bhi	.L2023
	.loc 1 6373 0 is_stmt 1
	uxtw	x1, w0
	.loc 1 6371 0 discriminator 4
	add	w0, w0, 1
	.loc 1 6373 0
	lsl	x3, x1, 5
	add	x2, x2, x3
	add	x1, x19, x1, lsl 2
	ldr	w2, [x2,28]
	str	w2, [x1,16]
	.loc 1 6374 0
	ldr	x2, [x21,648]
	add	x2, x2, x3
	ldr	w2, [x2,24]
	str	w2, [x1,8]
	.loc 1 6375 0
	ldr	x2, [x21,648]
	add	x3, x2, x3
	ldr	w2, [x3,32]
	str	w2, [x1,24]
	.loc 1 6371 0 discriminator 1
	ldr	x2, [x21,648]
	ldr	w1, [x2,76]
	.loc 1 6371 0 is_stmt 0 discriminator 3
	cmp	w1, w0
	bls	.L2023
	cmp	w0, 1
	bhi	.L2023
	.loc 1 6373 0 is_stmt 1
	ldr	w0, [x2,60]
	str	w0, [x19,20]
	.loc 1 6374 0
	ldr	x0, [x21,648]
	ldr	w0, [x0,56]
	str	w0, [x19,12]
	.loc 1 6375 0
	ldr	x0, [x21,648]
	ldr	w0, [x0,64]
	str	w0, [x19,28]
	.loc 1 6371 0 discriminator 1
	ldr	x0, [x21,648]
	ldr	w1, [x0,76]
.LVL854:
.L2023:
	.loc 1 6377 0 discriminator 1
	cmp	w1, 1
	bhi	.L2028
	add	x0, x19, x1, uxtw 2
	.loc 1 6379 0
	str	wzr, [x0,16]
	.loc 1 6380 0
	str	wzr, [x0,8]
	.loc 1 6381 0
	str	wzr, [x0,24]
	.loc 1 6377 0 discriminator 1
	cbnz	w1, .L2028
	.loc 1 6379 0
	str	wzr, [x19,20]
	.loc 1 6380 0
	str	wzr, [x19,12]
	.loc 1 6381 0
	str	wzr, [x19,28]
.L2028:
	.loc 1 6383 0
	add	x27, x21, 53248
	.loc 1 6385 0
	add	x26, x21, 24576
	add	x28, x21, 28672
	.loc 1 6383 0
	ldrb	w0, [x27,1129]
	strb	w0, [x19,1]
	.loc 1 6385 0
	ldr	w0, [x26,1112]
	ldr	w1, [x28,1668]
	add	w0, w0, 26
	add	w0, w0, w1
	str	w0, [x19,32]
	.loc 1 6386 0
	cbnz	w6, .L2129
	.loc 1 6389 0
	ldr	x1, [x27,1416]
	str	w0, [x1,360]
	.loc 1 6390 0
	ldr	x0, [x27,1416]
	ldr	w1, [x19,32]
	str	w1, [x0,364]
.L2029:
	.loc 1 6397 0
	ldr	w0, [x28,1664]
	str	w0, [x19,36]
	.loc 1 6398 0
	ldr	w0, [x28,116]
	str	w0, [x19,40]
	.loc 1 6399 0
	ldr	w0, [x28,112]
	str	w0, [x19,44]
	.loc 1 6400 0
	ldrb	w0, [x28,56]
	strb	w0, [x7,x5]
	.loc 1 6401 0
	ldr	w0, [x28,108]
	str	w0, [x19,48]
	.loc 1 6403 0
	ldrb	w0, [x28,62]
	strb	w0, [x19,2]
	.loc 1 6404 0
	ldrb	w0, [x8,1180]
	strb	w0, [x19,3]
	.loc 1 6405 0
	ldr	w0, [x28,100]
	str	w0, [x19,52]
	.loc 1 6406 0
	ldr	w0, [x28,104]
	str	w0, [x19,56]
	.loc 1 6408 0
	ldrb	w0, [x28,56]
	cmp	w0, 1
	beq	.L2130
	.loc 1 6412 0
	cbz	w0, .L2131
	.loc 1 6418 0
	strb	wzr, [x19,4]
.L2031:
	.loc 1 6420 0
	ldr	w0, [x26,1116]
	str	w0, [x19,60]
	.loc 1 6421 0
	ldr	w0, [x26,1120]
	str	w0, [x19,64]
	.loc 1 6422 0
	ldr	w0, [x28,1676]
	str	w0, [x19,68]
	.loc 1 6423 0
	ldr	w0, [x28,1680]
	str	w0, [x19,72]
	.loc 1 6424 0
	ldr	w0, [x28,1672]
	str	w0, [x19,76]
	.loc 1 6427 0
	ldrb	w0, [x28,56]
	cmp	w0, 2
	beq	.L2070
	.loc 1 6432 0 discriminator 1
	ldr	w2, [x28,100]
	cbz	w2, .L2074
	.loc 1 6434 0
	add	x20, x21, 32768
	ldr	x0, [x20,2512]
	ldr	x1, [x0,32]
	ldrb	w0, [x1]
	cbz	w0, .L2036
	sub	w2, w2, #1
	add	x0, x20, 2520
	add	x3, x2, 4096
	add	x3, x3, 315
	add	x3, x21, x3, lsl 3
	b	.L2038
.L2040:
	ldr	x1, [x0],8
	ldr	x1, [x1,32]
	ldrb	w2, [x1]
	cbz	w2, .L2036
.L2038:
	.loc 1 6432 0 discriminator 1
	cmp	x0, x3
	bne	.L2040
	.loc 1 6430 0
	str	wzr, [x29,124]
.LVL855:
.L2035:
	.loc 1 6450 0 discriminator 1
	ldr	w2, [x28,104]
	cbz	w2, .L2075
	.loc 1 6452 0
	ldr	x0, [x20,2776]
.LVL856:
	ldr	x1, [x0,32]
	ldrb	w0, [x1]
	cbz	w0, .L2042
	sub	w2, w2, #1
	add	x0, x20, 2784
	add	x3, x2, 4096
	add	x3, x3, 348
	add	x3, x21, x3, lsl 3
	b	.L2044
.L2046:
	ldr	x1, [x0],8
	ldr	x1, [x1,32]
	ldrb	w2, [x1]
	cbz	w2, .L2042
.L2044:
	.loc 1 6450 0 discriminator 1
	cmp	x0, x3
	bne	.L2046
.LVL857:
.L2075:
	.loc 1 6431 0
	str	wzr, [x29,120]
.LVL858:
.L2041:
	.loc 1 6470 0
	ldrb	w0, [x27,1123]
.LVL859:
	cbz	w0, .L2047
	.loc 1 6515 0 discriminator 1
	ldr	w0, [x28,100]
	cbz	w0, .L2063
	.loc 1 6517 0
	ldr	x0, [x29,112]
	add	x25, x20, 2512
	add	x22, x19, 1624
	.loc 1 6515 0 discriminator 1
	mov	w24, 0
	.loc 1 6517 0
	add	x23, x0, 676
	b	.L2062
.LVL860:
.L2133:
	.loc 1 6522 0 discriminator 1
	cbz	x0, .L2081
	.loc 1 6523 0
	ldr	x0, [x0,296]
	.loc 1 6522 0 discriminator 3
	ldr	w0, [x0,4]
.L2059:
	.loc 1 6522 0 is_stmt 0 discriminator 8
	str	w0, [x22,16]
	.loc 1 6524 0 is_stmt 1
	ldr	x0, [x25]
	ldr	x0, [x0,32]
	ldr	w0, [x0,328]
	str	w0, [x22,20]
	.loc 1 6525 0
	ldr	x0, [x25]
	ldr	x0, [x0,32]
	ldr	w0, [x0,304]
	str	w0, [x22,8]
	.loc 1 6526 0
	ldr	x0, [x25]
	ldrb	w0, [x0]
	strb	w0, [x22]
	.loc 1 6527 0
	ldr	x0, [x25]
	ldr	x0, [x0,32]
	ldrb	w0, [x0,336]
	strb	w0, [x22,2]
	.loc 1 6528 0
	ldr	x0, [x25]
	ldrb	w0, [x0]
	cmp	w0, 1
	beq	.L2132
	.loc 1 6538 0
	strb	w0, [x22,6]
	.loc 1 6515 0 discriminator 2
	add	w24, w24, 1
	add	x25, x25, 8
	add	x22, x22, 36
	.loc 1 6539 0
	ldr	x0, [x25,-8]
	ldrb	w0, [x0,1]
	strb	w0, [x22,-29]
	.loc 1 6540 0
	ldr	x0, [x25,-8]
	ldr	w0, [x0,12]
	str	w0, [x22,-4]
	.loc 1 6515 0 discriminator 1
	ldr	w0, [x28,100]
	cmp	w0, w24
	bls	.L2063
.LVL861:
.L2062:
	.loc 1 6517 0
	ldr	x1, [x25]
	ldr	w0, [x23]
	ldr	x1, [x1,32]
	ldr	w1, [x1,288]
	bl	FSP_GetLogicFs
.LVL862:
	.loc 1 6519 0
	ldr	x1, [x25]
	ldr	x1, [x1,32]
	ldr	w1, [x1,324]
	str	w1, [x22,12]
	.loc 1 6520 0
	ldr	x1, [x25]
	ldr	x1, [x1,32]
	ldrb	w1, [x1,1]
	strb	w1, [x22,1]
	.loc 1 6522 0
	ldr	x1, [x25]
	ldr	x1, [x1,32]
	ldrb	w1, [x1]
	cmp	w1, 1
	bne	.L2133
	.loc 1 6522 0 is_stmt 0 discriminator 2
	ldr	w0, [x29,124]
	b	.L2059
.LVL863:
.L2129:
	.loc 1 6395 0 is_stmt 1
	ldr	x1, [x27,1416]
.LBB313:
.LBB314:
	.loc 1 6336 0
	ldr	w2, [x1,360]
	.loc 1 6337 0
	ldr	w3, [x1,364]
	.loc 1 6336 0
	cmp	w0, w2
	csel	w2, w0, w2, ge
	.loc 1 6337 0
	cmp	w0, w3
	csel	w0, w0, w3, le
	.loc 1 6336 0
	str	w2, [x1,360]
	.loc 1 6337 0
	str	w0, [x1,364]
	b	.L2029
.L2131:
.LBE314:
.LBE313:
	.loc 1 6414 0
	ldrb	w0, [x26,1066]
	strb	w0, [x19,4]
	b	.L2031
.LVL864:
.L2132:
	.loc 1 6531 0
	strb	w0, [x22,4]
	.loc 1 6515 0 discriminator 2
	add	w24, w24, 1
	add	x25, x25, 8
	add	x22, x22, 36
	.loc 1 6532 0
	ldr	x0, [x25,-8]
	ldrb	w0, [x0,1]
	strb	w0, [x22,-31]
	.loc 1 6533 0
	ldr	x0, [x25,-8]
	ldr	w0, [x0,12]
	str	w0, [x22,-8]
	.loc 1 6515 0 discriminator 1
	ldr	w0, [x28,100]
	cmp	w0, w24
	bhi	.L2062
.LVL865:
.L2063:
	.loc 1 6544 0
	ldrb	w0, [x28,56]
	cmp	w0, 1
	beq	.L2134
.L2050:
	add	x0, x20, 2384
	add	x1, x19, 3928
	add	x20, x20, 2512
.L2056:
	.loc 1 6579 0
	ldr	w2, [x0],4
	str	w2, [x1],4
	.loc 1 6577 0 discriminator 1
	cmp	x0, x20
	bne	.L2056
	.loc 1 6583 0
	ldrb	w0, [x26,1066]
	str	w0, [x27,3956]
	.loc 1 6584 0
	ldr	w1, [x26,1108]
	str	w1, [x27,3960]
	.loc 1 6585 0
	cbz	w0, .L2068
	.loc 1 6585 0 is_stmt 0 discriminator 1
	ldrb	w0, [x28,56]
	cbnz	w0, .L2068
.L2069:
	.loc 1 6588 0 is_stmt 1
	ldr	w0, [x28,120]
	add	x1, x28, 128
	str	w0, [x19,80]
	.loc 1 6593 0
	mov	w2, 0
	add	x0, x19, 88
	.loc 1 6589 0
	ldr	w3, [x28,124]
	str	w3, [x19,84]
.L2071:
	.loc 1 6595 0
	ldr	w3, [x1]
	add	x1, x1, 4
	str	w3, [x0]
	add	x0, x0, 4
	.loc 1 6593 0 discriminator 3
	add	w2, w2, 1
	.loc 1 6596 0
	ldr	w3, [x1,124]
	str	w3, [x0,124]
	.loc 1 6597 0
	ldr	w3, [x1,252]
	str	w3, [x0,252]
	.loc 1 6599 0
	ldr	w3, [x1,764]
	str	w3, [x0,764]
	.loc 1 6600 0
	ldr	w3, [x1,892]
	str	w3, [x0,892]
	.loc 1 6601 0
	ldr	w3, [x1,1020]
	str	w3, [x0,1020]
	.loc 1 6593 0 discriminator 1
	ldr	w3, [x28,112]
	cmp	w3, w2
	bcs	.L2071
	.loc 1 6605 0
	ldrb	w0, [x28,56]
	cmp	w0, 1
	beq	.L2135
.L2070:
	.loc 1 6621 0
	ldr	x0, [x29,104]
.LVL866:
	add	x24, x0, 4096
	ldr	x0, [x21,648]
.LVL867:
	add	x24, x24, 2802
	str	x0, [x21,x24,lsl 3]
	.loc 1 6622 0
	str	xzr, [x21,648]
.L2021:
	.loc 1 6625 0
	ldp	x19, x20, [sp,16]
	.cfi_remember_state
	.cfi_restore 20
	.cfi_restore 19
.LVL868:
	ldp	x21, x22, [sp,32]
	.cfi_restore 22
	.cfi_restore 21
.LVL869:
	ldp	x23, x24, [sp,48]
	.cfi_restore 24
	.cfi_restore 23
	ldp	x25, x26, [sp,64]
	.cfi_restore 26
	.cfi_restore 25
	ldp	x27, x28, [sp,80]
	.cfi_restore 28
	.cfi_restore 27
	ldp	x29, x30, [sp], 128
	.cfi_restore 30
	.cfi_restore 29
	.cfi_def_cfa 31, 0
	ret
.LVL870:
.L2081:
	.cfi_restore_state
	.loc 1 6522 0 discriminator 4
	mov	w0, 0
	b	.L2059
.LVL871:
.L2036:
	.loc 1 6436 0
	ldr	x0, [x29,112]
	ldr	w1, [x1,288]
	ldr	w0, [x0,676]
	bl	FSP_GetLogicFs
.LVL872:
	.loc 1 6437 0
	cbz	x0, .L2136
	.loc 1 6442 0
	ldr	x0, [x0,296]
	ldr	w0, [x0,4]
.LVL873:
	str	w0, [x29,124]
	.loc 1 6443 0
	b	.L2035
.LVL874:
.L2068:
	.loc 1 6585 0 discriminator 3
	cmp	w1, 1
	bne	.L2070
	.loc 1 6586 0
	ldrb	w0, [x28,56]
	cmp	w0, 1
	bne	.L2070
	b	.L2069
.L2047:
	.loc 1 6472 0 discriminator 1
	ldr	w0, [x28,100]
	cbz	w0, .L2055
	.loc 1 6474 0
	ldr	x0, [x29,112]
	add	x25, x20, 2512
	add	x24, x19, 1624
	.loc 1 6472 0 discriminator 1
	mov	w22, 0
	.loc 1 6474 0
	add	x23, x0, 676
	b	.L2054
.LVL875:
.L2137:
	.loc 1 6478 0 discriminator 1
	cbz	x0, .L2077
	.loc 1 6479 0
	ldr	x0, [x0,296]
	.loc 1 6478 0 discriminator 3
	ldr	w0, [x0,4]
.L2053:
	.loc 1 6478 0 is_stmt 0 discriminator 8
	str	w0, [x24,16]
	.loc 1 6472 0 is_stmt 1 discriminator 2
	add	w22, w22, 1
	.loc 1 6480 0
	ldr	x0, [x25]
	ldr	x0, [x0,32]
	ldr	w0, [x0,328]
	str	w0, [x24,20]
	.loc 1 6481 0
	ldr	x0, [x25]
	ldr	x0, [x0,32]
	ldr	w0, [x0,304]
	str	w0, [x24,8]
	.loc 1 6482 0
	ldr	x0, [x25]
	ldrb	w0, [x0,1]
	strb	w0, [x24,3]
	.loc 1 6483 0
	ldr	x0, [x25]
	ldrb	w0, [x0]
	strb	w0, [x24,2]
	.loc 1 6484 0
	ldr	x0, [x25]
	ldr	x0, [x0,32]
	ldr	w0, [x0,348]
	str	w0, [x24,24]
	.loc 1 6485 0
	ldr	x0, [x25]
	ldr	x0, [x0,32]
	ldr	w0, [x0,388]
	str	w0, [x24,28]
	.loc 1 6486 0
	ldr	x0, [x25],8
	ldr	x0, [x0,32]
	ldr	w0, [x0,428]
	str	w0, [x24,32]
	.loc 1 6487 0
	strb	wzr, [x24],36
	.loc 1 6472 0 discriminator 1
	ldr	w0, [x28,100]
	cmp	w0, w22
	bls	.L2055
.LVL876:
.L2054:
	.loc 1 6474 0
	ldr	x1, [x25]
	ldr	w0, [x23]
	ldr	x1, [x1,32]
	ldr	w1, [x1,288]
	bl	FSP_GetLogicFs
.LVL877:
	.loc 1 6475 0
	ldr	x1, [x25]
	ldr	x1, [x1,32]
	ldr	w1, [x1,324]
	str	w1, [x24,12]
	.loc 1 6476 0
	ldr	x1, [x25]
	ldr	x1, [x1,32]
	ldrb	w1, [x1,1]
	strb	w1, [x24,1]
	.loc 1 6478 0
	ldr	x1, [x25]
	ldr	x1, [x1,32]
	ldrb	w1, [x1]
	cmp	w1, 1
	bne	.L2137
	.loc 1 6478 0 is_stmt 0 discriminator 2
	ldr	w0, [x29,124]
	b	.L2053
.L2077:
	.loc 1 6478 0 discriminator 4
	mov	w0, 0
	b	.L2053
.LVL878:
.L2055:
	.loc 1 6491 0 is_stmt 1
	ldrb	w0, [x28,56]
	cmp	w0, 1
	bne	.L2050
	.loc 1 6493 0 discriminator 1
	ldr	w0, [x28,104]
	cbz	w0, .L2050
	.loc 1 6495 0
	ldr	x0, [x29,112]
	add	x25, x20, 2776
	add	x23, x19, 1640
	.loc 1 6493 0 discriminator 1
	mov	w24, 0
	.loc 1 6495 0
	add	x22, x0, 676
	b	.L2058
.LVL879:
.L2138:
	.loc 1 6500 0 discriminator 1
	cbz	x0, .L2079
	.loc 1 6501 0
	ldr	x0, [x0,296]
	.loc 1 6500 0 discriminator 3
	ldr	w0, [x0,4]
.L2057:
	.loc 1 6500 0 is_stmt 0 discriminator 8
	str	w0, [x23]
	add	x23, x23, 36
	.loc 1 6493 0 is_stmt 1 discriminator 2
	add	w24, w24, 1
	.loc 1 6502 0
	ldr	x0, [x25]
	ldr	x0, [x0,32]
	ldr	w0, [x0,328]
	str	w0, [x23,1120]
	.loc 1 6503 0
	ldr	x0, [x25]
	ldr	x0, [x0,32]
	ldr	w0, [x0,304]
	str	w0, [x23,1108]
	.loc 1 6504 0
	ldr	x0, [x25]
	ldrb	w0, [x0,1]
	strb	w0, [x23,1103]
	.loc 1 6505 0
	ldr	x0, [x25]
	ldrb	w0, [x0]
	strb	w0, [x23,1102]
	.loc 1 6506 0
	ldr	x0, [x25]
	ldr	x0, [x0,32]
	ldr	w0, [x0,348]
	str	w0, [x23,1124]
	.loc 1 6507 0
	ldr	x0, [x25]
	ldr	x0, [x0,32]
	ldr	w0, [x0,388]
	str	w0, [x23,1128]
	.loc 1 6508 0
	ldr	x0, [x25],8
	ldr	x0, [x0,32]
	ldr	w0, [x0,428]
	str	w0, [x23,1132]
	.loc 1 6509 0
	strb	wzr, [x23,1100]
	.loc 1 6493 0 discriminator 1
	ldr	w0, [x28,104]
	cmp	w0, w24
	bls	.L2050
.LVL880:
.L2058:
	.loc 1 6495 0
	ldr	x1, [x25]
	ldr	w0, [x22]
	ldr	x1, [x1,32]
	ldr	w1, [x1,288]
	bl	FSP_GetLogicFs
.LVL881:
	.loc 1 6497 0
	ldr	x1, [x25]
	ldr	x1, [x1,32]
	ldr	w1, [x1,324]
	str	w1, [x23,1148]
	.loc 1 6498 0
	ldr	x1, [x25]
	ldr	x1, [x1,32]
	ldrb	w1, [x1,1]
	strb	w1, [x23,1137]
	.loc 1 6500 0
	ldr	x1, [x25]
	ldr	x1, [x1,32]
	ldrb	w1, [x1]
	cmp	w1, 1
	bne	.L2138
	.loc 1 6500 0 is_stmt 0 discriminator 2
	ldr	w0, [x29,120]
	b	.L2057
.LVL882:
.L2042:
	.loc 1 6454 0 is_stmt 1
	ldr	x0, [x29,112]
	ldr	w1, [x1,288]
	ldr	w0, [x0,676]
	bl	FSP_GetLogicFs
.LVL883:
	.loc 1 6455 0
	cbz	x0, .L2139
	.loc 1 6460 0
	ldr	x0, [x0,296]
	ldr	w0, [x0,4]
.LVL884:
	str	w0, [x29,120]
	.loc 1 6461 0
	b	.L2041
.LVL885:
.L2130:
	.loc 1 6410 0
	ldr	w0, [x26,1108]
	strb	w0, [x19,4]
	b	.L2031
.L2135:
	add	x0, x28, 512
	add	x19, x19, 472
.LVL886:
	.loc 1 6605 0
	mov	w1, 0
.L2072:
	.loc 1 6609 0
	ldr	w2, [x0]
	add	x0, x0, 4
	str	w2, [x19]
	add	x19, x19, 4
	.loc 1 6607 0 discriminator 3
	add	w1, w1, 1
	.loc 1 6610 0
	ldr	w2, [x0,124]
	str	w2, [x19,124]
	.loc 1 6611 0
	ldr	w2, [x0,252]
	str	w2, [x19,252]
	.loc 1 6613 0
	ldr	w2, [x0,764]
	str	w2, [x19,764]
	.loc 1 6614 0
	ldr	w2, [x0,892]
	str	w2, [x19,892]
	.loc 1 6615 0
	ldr	w2, [x0,1020]
	str	w2, [x19,1020]
	.loc 1 6607 0 discriminator 1
	ldr	w2, [x28,116]
	cmp	w2, w1
	bcs	.L2072
	b	.L2070
.LVL887:
.L2079:
	.loc 1 6500 0 discriminator 4
	mov	w0, 0
	b	.L2057
.LVL888:
.L2134:
	.loc 1 6546 0 discriminator 1
	ldr	w0, [x28,104]
	cbz	w0, .L2050
	.loc 1 6548 0
	ldr	x0, [x29,112]
	add	x23, x20, 2776
	add	x25, x19, 2776
	.loc 1 6546 0 discriminator 1
	mov	w24, 0
	.loc 1 6548 0
	add	x22, x0, 676
	b	.L2067
.LVL889:
.L2141:
	.loc 1 6553 0 discriminator 1
	cbz	x0, .L2083
	.loc 1 6554 0
	ldr	x0, [x0,296]
	.loc 1 6553 0 discriminator 3
	ldr	w0, [x0,4]
.L2064:
	.loc 1 6553 0 is_stmt 0 discriminator 8
	str	w0, [x25,16]
	.loc 1 6555 0 is_stmt 1
	ldr	x0, [x23]
	ldr	x0, [x0,32]
	ldr	w0, [x0,328]
	str	w0, [x25,20]
	.loc 1 6556 0
	ldr	x0, [x23]
	ldr	x0, [x0,32]
	ldr	w0, [x0,304]
	str	w0, [x25,8]
	.loc 1 6557 0
	ldr	x0, [x23]
	ldrb	w0, [x0]
	strb	w0, [x25]
	.loc 1 6558 0
	ldr	x0, [x23]
	ldr	x0, [x0,32]
	ldrb	w0, [x0,336]
	strb	w0, [x25,2]
	.loc 1 6559 0
	ldr	x0, [x23]
	ldrb	w0, [x0]
	cmp	w0, 1
	beq	.L2140
	.loc 1 6569 0
	strb	w0, [x25,6]
	.loc 1 6570 0
	ldr	x0, [x23]
	ldrb	w0, [x0,1]
	strb	w0, [x25,7]
	.loc 1 6571 0
	ldr	x0, [x23]
	ldr	w0, [x0,12]
	str	w0, [x25,32]
.L2066:
	.loc 1 6546 0 discriminator 1
	ldr	w0, [x28,104]
	.loc 1 6546 0 is_stmt 0 discriminator 2
	add	w24, w24, 1
	add	x23, x23, 8
	add	x25, x25, 36
	.loc 1 6546 0 discriminator 1
	cmp	w0, w24
	bls	.L2050
.LVL890:
.L2067:
	.loc 1 6548 0 is_stmt 1
	ldr	x1, [x23]
	ldr	w0, [x22]
	ldr	x1, [x1,32]
	ldr	w1, [x1,288]
	bl	FSP_GetLogicFs
.LVL891:
	.loc 1 6550 0
	ldr	x1, [x23]
	ldr	x1, [x1,32]
	ldr	w1, [x1,324]
	str	w1, [x25,12]
	.loc 1 6551 0
	ldr	x1, [x23]
	ldr	x1, [x1,32]
	ldrb	w1, [x1,1]
	strb	w1, [x25,1]
	.loc 1 6553 0
	ldr	x1, [x23]
	ldr	x1, [x1,32]
	ldrb	w1, [x1]
	cmp	w1, 1
	bne	.L2141
	.loc 1 6553 0 is_stmt 0 discriminator 2
	ldr	w0, [x29,120]
	b	.L2064
.L2140:
	.loc 1 6562 0 is_stmt 1
	strb	w0, [x25,4]
	.loc 1 6563 0
	ldr	x0, [x23]
	ldrb	w0, [x0,1]
	strb	w0, [x25,5]
	.loc 1 6564 0
	ldr	x0, [x23]
	ldr	w0, [x0,12]
	str	w0, [x25,28]
	b	.L2066
.L2083:
	.loc 1 6553 0 discriminator 4
	mov	w0, 0
	b	.L2064
.LVL892:
.L2074:
	.loc 1 6430 0
	str	wzr, [x29,124]
	add	x20, x21, 32768
	b	.L2035
.LVL893:
.L2139:
	.loc 1 6457 0
	adrp	x1, .LC41
	mov	w2, 6457
	add	x1, x1, :lo12:.LC41
	bl	dprint_linux_kernel
.LVL894:
	.loc 1 6458 0
	b	.L2021
.L2136:
	.loc 1 6439 0
	adrp	x1, .LC41
	mov	w2, 6439
	add	x1, x1, :lo12:.LC41
	bl	dprint_linux_kernel
.LVL895:
	.loc 1 6440 0
	b	.L2021
	.cfi_endproc
.LFE2202:
	.size	WriteSliceMsg, .-WriteSliceMsg
	.align	2
	.global	StopPicNum
	.type	StopPicNum, %function
StopPicNum:
.LFB2203:
	.loc 1 6629 0
	.cfi_startproc
.LVL896:
	.loc 1 6651 0
	ret
	.cfi_endproc
.LFE2203:
	.size	StopPicNum, .-StopPicNum
	.align	2
	.global	H264_GetPicStreamSize
	.type	H264_GetPicStreamSize, %function
H264_GetPicStreamSize:
.LFB2205:
	.loc 1 6832 0
	.cfi_startproc
.LVL897:
	.loc 1 6836 0
	add	x0, x0, 57344
.LVL898:
	ldr	x2, [x0,448]
.LVL899:
	.loc 1 6837 0
	mov	w0, 0
.LVL900:
	cbz	x2, .L2144
.L2145:
	.loc 1 6839 0
	ldr	w3, [x2,8]
	ldr	w1, [x2,12]
	.loc 1 6840 0
	ldr	x2, [x2,4056]
	.loc 1 6839 0
	add	w1, w3, w1
	add	w1, w1, 7
	add	w0, w0, w1, lsr 3
	.loc 1 6837 0
	cbnz	x2, .L2145
.L2144:
.LVL901:
	.loc 1 6844 0
	ret
	.cfi_endproc
.LFE2205:
	.size	H264_GetPicStreamSize, .-H264_GetPicStreamSize
	.align	2
	.global	SliceCheck
	.type	SliceCheck, %function
SliceCheck:
.LFB2206:
	.loc 1 6856 0
	.cfi_startproc
.LVL902:
	stp	x29, x30, [sp, -48]!
	.cfi_def_cfa_offset 48
	.cfi_offset 29, -48
	.cfi_offset 30, -40
	.loc 1 6859 0
	adrp	x1, .LC42
	.loc 1 6856 0
	add	x29, sp, 0
	.cfi_def_cfa_register 29
	str	x21, [sp,32]
	.cfi_offset 21, -16
	.loc 1 6859 0
	add	x21, x0, 28672
	add	x1, x1, :lo12:.LC42
	.loc 1 6856 0
	stp	x19, x20, [sp,16]
	.cfi_offset 19, -32
	.cfi_offset 20, -24
	.loc 1 6860 0
	add	x20, x0, 57344
	.loc 1 6856 0
	mov	x19, x0
	.loc 1 6859 0
	bl	ue_v
.LVL903:
	str	w0, [x21,108]
	.loc 1 6860 0
	ldr	w1, [x20,616]
	cbnz	w1, .L2158
	.loc 1 6862 0
	mov	w1, 262143
	cmp	w0, w1
	bhi	.L2159
	.loc 1 6867 0
	add	x2, x19, 20480
	ldr	w1, [x2,1124]
	ldr	w2, [x2,1128]
	mul	w1, w1, w2
	sub	w1, w1, #1
	.loc 1 6868 0
	cmp	w0, w1
	bhi	.L2158
	.loc 1 6873 0
	adrp	x1, .LC44
	mov	x0, x19
	add	x1, x1, :lo12:.LC44
	bl	ue_v
.LVL904:
	mov	w19, w0
.LVL905:
	.loc 1 6874 0
	adrp	x1, .LC45
	mov	w0, 19
	add	x1, x1, :lo12:.LC45
	mov	w2, w19
	bl	dprint_linux_kernel
.LVL906:
	.loc 1 6875 0
	ldr	w0, [x20,616]
	cbnz	w0, .L2158
	.loc 1 6877 0
	cmp	w19, 9
	bls	.L2160
	.loc 1 6896 0
	adrp	x1, .LC46
	mov	w0, 1
	add	x1, x1, :lo12:.LC46
	mov	w2, w19
	bl	dprint_linux_kernel
.LVL907:
.L2158:
	.loc 1 6897 0
	mov	w0, -1
.L2150:
	.loc 1 6901 0
	ldp	x19, x20, [sp,16]
	.cfi_remember_state
	.cfi_restore 20
	.cfi_restore 19
.LVL908:
	ldr	x21, [sp,32]
	.cfi_restore 21
	ldp	x29, x30, [sp], 48
	.cfi_restore 30
	.cfi_restore 29
	.cfi_def_cfa 31, 0
	ret
.LVL909:
.L2160:
	.cfi_restore_state
	.loc 1 6877 0
	adrp	x0, .L2155
	add	x0, x0, :lo12:.L2155
	ldrb	w0, [x0,w19,uxtw]
	adr	x1, .Lrtx2155
	add	x0, x1, w0, sxtb #2
	br	x0
.Lrtx2155:
	.section	.rodata
	.align	0
	.align	2
.L2155:
	.byte	(.L2154 - .Lrtx2155) / 4
	.byte	(.L2156 - .Lrtx2155) / 4
	.byte	(.L2157 - .Lrtx2155) / 4
	.byte	(.L2154 - .Lrtx2155) / 4
	.byte	(.L2157 - .Lrtx2155) / 4
	.byte	(.L2154 - .Lrtx2155) / 4
	.byte	(.L2156 - .Lrtx2155) / 4
	.byte	(.L2157 - .Lrtx2155) / 4
	.byte	(.L2154 - .Lrtx2155) / 4
	.byte	(.L2157 - .Lrtx2155) / 4
	.text
.L2154:
	.loc 1 6889 0
	strb	wzr, [x21,56]
	.loc 1 6900 0
	mov	w0, 0
	.loc 1 6901 0
	ldp	x19, x20, [sp,16]
	.cfi_remember_state
	.cfi_restore 19
	.cfi_restore 20
.LVL910:
	ldr	x21, [sp,32]
	.cfi_restore 21
	ldp	x29, x30, [sp], 48
	.cfi_restore 29
	.cfi_restore 30
	.cfi_def_cfa 31, 0
	ret
.LVL911:
.L2157:
	.cfi_restore_state
	.loc 1 6883 0
	mov	w1, 2
	strb	w1, [x21,56]
	.loc 1 6900 0
	mov	w0, 0
	.loc 1 6901 0
	ldp	x19, x20, [sp,16]
	.cfi_remember_state
	.cfi_restore 19
	.cfi_restore 20
.LVL912:
	ldr	x21, [sp,32]
	.cfi_restore 21
	ldp	x29, x30, [sp], 48
	.cfi_restore 29
	.cfi_restore 30
	.cfi_def_cfa 31, 0
	ret
.LVL913:
.L2156:
	.cfi_restore_state
	.loc 1 6893 0
	mov	w1, 1
	strb	w1, [x21,56]
	.loc 1 6900 0
	mov	w0, 0
	.loc 1 6901 0
	ldp	x19, x20, [sp,16]
	.cfi_remember_state
	.cfi_restore 19
	.cfi_restore 20
.LVL914:
	ldr	x21, [sp,32]
	.cfi_restore 21
	ldp	x29, x30, [sp], 48
	.cfi_restore 29
	.cfi_restore 30
	.cfi_def_cfa 31, 0
	ret
.LVL915:
.L2159:
	.cfi_restore_state
	.loc 1 6864 0
	adrp	x1, .LC43
	mov	w0, 1
	add	x1, x1, :lo12:.LC43
	bl	dprint_linux_kernel
.LVL916:
	.loc 1 6865 0
	mov	w0, -1
	b	.L2150
	.cfi_endproc
.LFE2206:
	.size	SliceCheck, .-SliceCheck
	.align	2
	.global	PPSSPSCheck
	.type	PPSSPSCheck, %function
PPSSPSCheck:
.LFB2207:
	.loc 1 6913 0
	.cfi_startproc
.LVL917:
	stp	x29, x30, [sp, -32]!
	.cfi_def_cfa_offset 32
	.cfi_offset 29, -32
	.cfi_offset 30, -24
	.loc 1 6918 0
	adrp	x1, .LC47
	.loc 1 6913 0
	add	x29, sp, 0
	.cfi_def_cfa_register 29
	stp	x19, x20, [sp,16]
	.cfi_offset 19, -16
	.cfi_offset 20, -8
	.loc 1 6918 0
	add	x20, x0, 28672
	.loc 1 6913 0
	mov	x19, x0
	.loc 1 6918 0
	add	x1, x1, :lo12:.LC47
	mov	w0, 19
.LVL918:
	ldr	w2, [x20,68]
	bl	dprint_linux_kernel
.LVL919:
	.loc 1 6920 0
	ldr	w2, [x20,68]
	mov	w0, 2208
	ldr	x1, [x19,21632]
	umull	x0, w2, w0
	add	x0, x1, x0
.LVL920:
	.loc 1 6921 0
	ldrb	w1, [x0,19]
	cbz	w1, .L2165
	.loc 1 6928 0
	ldr	w2, [x0,28]
	mov	w1, 4000
	.loc 1 6929 0
	ldr	x3, [x19,21624]
	.loc 1 6935 0
	mov	w0, 0
.LVL921:
	.loc 1 6928 0
	umull	x1, w2, w1
	.loc 1 6929 0
	add	x1, x3, x1
	ldrb	w1, [x1,23]
	cbz	w1, .L2166
.L2163:
	.loc 1 6936 0
	ldp	x19, x20, [sp,16]
	.cfi_remember_state
	.cfi_restore 20
	.cfi_restore 19
.LVL922:
	ldp	x29, x30, [sp], 32
	.cfi_restore 30
	.cfi_restore 29
	.cfi_def_cfa 31, 0
	ret
.LVL923:
.L2165:
	.cfi_restore_state
	.loc 1 6923 0
	adrp	x1, .LC48
	mov	w0, 1
.LVL924:
	add	x1, x1, :lo12:.LC48
	bl	dprint_linux_kernel
.LVL925:
	.loc 1 6924 0
	mov	w0, -1
	b	.L2163
.L2166:
	.loc 1 6931 0
	adrp	x1, .LC49
	mov	w0, 1
	add	x1, x1, :lo12:.LC49
	bl	dprint_linux_kernel
.LVL926:
	.loc 1 6932 0
	mov	w0, -1
	b	.L2163
	.cfi_endproc
.LFE2207:
	.size	PPSSPSCheck, .-PPSSPSCheck
	.align	2
	.global	PPSSPSCheckTmpId
	.type	PPSSPSCheckTmpId, %function
PPSSPSCheckTmpId:
.LFB2208:
	.loc 1 6949 0
	.cfi_startproc
.LVL927:
	stp	x29, x30, [sp, -32]!
	.cfi_def_cfa_offset 32
	.cfi_offset 29, -32
	.cfi_offset 30, -24
	add	x29, sp, 0
	.cfi_def_cfa_register 29
	stp	x19, x20, [sp,16]
	.cfi_offset 19, -16
	.cfi_offset 20, -8
	.loc 1 6949 0
	mov	w20, w1
	.loc 1 6954 0
	adrp	x1, .LC50
.LVL928:
	.loc 1 6949 0
	mov	x19, x0
	.loc 1 6954 0
	add	x1, x1, :lo12:.LC50
	mov	w0, 19
.LVL929:
	mov	w2, w20
	bl	dprint_linux_kernel
.LVL930:
	.loc 1 6956 0
	mov	w0, 2208
	ldr	x1, [x19,21632]
	umull	x0, w20, w0
	add	x0, x1, x0
.LVL931:
	.loc 1 6957 0
	ldrb	w1, [x0,19]
	cbz	w1, .L2172
	.loc 1 6963 0
	add	x1, x19, 20480
	ldr	w2, [x0,28]
	ldr	w0, [x1,1136]
.LVL932:
	sub	w0, w0, #1
	cmp	w2, w0
	bhi	.L2173
	.loc 1 6970 0
	mov	w1, 4000
	.loc 1 6971 0
	ldr	x3, [x19,21624]
	.loc 1 6977 0
	mov	w0, 0
	.loc 1 6970 0
	umull	x1, w2, w1
	.loc 1 6971 0
	add	x1, x3, x1
	ldrb	w1, [x1,23]
	cbz	w1, .L2174
.L2169:
	.loc 1 6978 0
	ldp	x19, x20, [sp,16]
	.cfi_remember_state
	.cfi_restore 20
	.cfi_restore 19
.LVL933:
	ldp	x29, x30, [sp], 32
	.cfi_restore 30
	.cfi_restore 29
	.cfi_def_cfa 31, 0
	ret
.LVL934:
.L2172:
	.cfi_restore_state
	.loc 1 6959 0
	adrp	x1, .LC51
	mov	w0, 1
.LVL935:
	add	x1, x1, :lo12:.LC51
	mov	w2, w20
	bl	dprint_linux_kernel
.LVL936:
	.loc 1 6960 0
	mov	w0, -1
	b	.L2169
.L2173:
.LBB317:
.LBB318:
	.loc 1 6965 0
	adrp	x1, .LC52
	mov	w0, 1
	add	x1, x1, :lo12:.LC52
	bl	dprint_linux_kernel
.LVL937:
	mov	w0, -1
	b	.L2169
.L2174:
.LBE318:
.LBE317:
	.loc 1 6973 0
	adrp	x1, .LC53
	mov	w0, 1
	add	x1, x1, :lo12:.LC53
	bl	dprint_linux_kernel
.LVL938:
	.loc 1 6974 0
	mov	w0, -1
	b	.L2169
	.cfi_endproc
.LFE2208:
	.size	PPSSPSCheckTmpId, .-PPSSPSCheckTmpId
	.align	2
	.global	IsNewPic
	.type	IsNewPic, %function
IsNewPic:
.LFB2209:
	.loc 1 6990 0
	.cfi_startproc
.LVL939:
	stp	x29, x30, [sp, -32]!
	.cfi_def_cfa_offset 32
	.cfi_offset 29, -32
	.cfi_offset 30, -24
	.loc 1 6996 0
	add	x1, x0, 28672
	.loc 1 6994 0
	add	x5, x0, 20480
	.loc 1 6990 0
	add	x29, sp, 0
	.cfi_def_cfa_register 29
	str	x19, [sp,16]
	.cfi_offset 19, -16
	.loc 1 6994 0
	ldr	w6, [x1,1708]
	ldr	w4, [x5,1196]
	.loc 1 6993 0
	ldr	w3, [x1,1712]
	ldr	w2, [x1,68]
	.loc 1 6994 0
	cmp	w6, w4
	.loc 1 6995 0
	ldr	w8, [x1,1720]
	.loc 1 6994 0
	cset	w7, ne
	.loc 1 6995 0
	ldr	w6, [x1,76]
	.loc 1 6993 0
	cmp	w3, w2
	.loc 1 6996 0
	ldrb	w4, [x1,57]
	.loc 1 6993 0
	cset	w2, ne
	.loc 1 6996 0
	ldrb	w3, [x1,1704]
	.loc 1 6995 0
	cmp	w8, w6
	cset	w6, ne
	.loc 1 6994 0
	orr	w2, w7, w2
	.loc 1 6996 0
	cmp	w3, w4
	.loc 1 6995 0
	orr	w2, w6, w2
	.loc 1 6996 0
	cset	w6, ne
	orr	w2, w6, w2
	.loc 1 6997 0 discriminator 1
	cbz	w3, .L2178
	cbz	w4, .L2178
	.loc 1 6999 0
	ldrb	w3, [x1,58]
	ldrb	w4, [x1,1705]
	cmp	w4, w3
	cset	w3, ne
	orr	w2, w2, w3
.L2178:
	.loc 1 7001 0
	ldr	w4, [x1,1716]
	ldr	w3, [x1,88]
	cmp	w4, w3
	beq	.L2183
	.loc 1 7001 0 is_stmt 0 discriminator 1
	cmp	w4, wzr
	cset	w4, eq
	.loc 1 7001 0 discriminator 4
	cmp	w3, wzr
	cset	w3, eq
	orr	w3, w4, w3
.L2179:
	.loc 1 7002 0 is_stmt 1
	ldrb	w6, [x1,59]
	ldrb	w7, [x1,1706]
	cmp	w7, w6
	cset	w4, ne
	.loc 1 7003 0 discriminator 1
	cmp	w6, 5
	orr	w2, w2, w4
	.loc 1 7002 0
	orr	w2, w2, w3
	.loc 1 7003 0 discriminator 1
	bne	.L2180
	cmp	w7, 5
	beq	.L2195
.L2180:
	.loc 1 7007 0
	ldr	w3, [x5,3360]
	cbnz	w3, .L2181
	.loc 1 7010 0
	add	x0, x0, 24576
.LVL940:
	ldr	w5, [x1,1732]
	.loc 1 7009 0
	ldr	w4, [x1,1728]
	.loc 1 7010 0
	ldr	w3, [x0,3276]
	.loc 1 7009 0
	ldr	w0, [x0,3272]
.L2194:
	.loc 1 7015 0
	cmp	w5, w3
	cset	w3, ne
	.loc 1 7014 0
	cmp	w4, w0
	cset	w0, ne
	orr	w0, w3, w0
	.loc 1 7015 0
	orr	w2, w2, w0
.LVL941:
.L2182:
	.loc 1 7019 0
	ldr	w3, [x1,108]
	.loc 1 7021 0
	adrp	x1, .LC54
	add	x1, x1, :lo12:.LC54
	mov	w0, 19
.LVL942:
	.loc 1 7019 0
	cmp	w3, wzr
	cset	w19, eq
	orr	w19, w2, w19
	.loc 1 7021 0
	mov	w2, w19
	bl	dprint_linux_kernel
.LVL943:
	.loc 1 7024 0
	mov	w0, w19
	ldr	x19, [sp,16]
	.cfi_remember_state
	.cfi_restore 19
	ldp	x29, x30, [sp], 32
	.cfi_restore 30
	.cfi_restore 29
	.cfi_def_cfa 31, 0
	ret
.LVL944:
.L2181:
	.cfi_restore_state
	.loc 1 7012 0
	cmp	w3, 1
	bne	.L2182
	.loc 1 7015 0
	add	x0, x0, 24576
.LVL945:
	ldr	w5, [x1,1740]
	.loc 1 7014 0
	ldr	w4, [x1,1736]
	.loc 1 7015 0
	ldr	w3, [x0,3324]
	.loc 1 7014 0
	ldr	w0, [x0,3320]
	b	.L2194
.LVL946:
.L2183:
	mov	w3, 0
	b	.L2179
.L2195:
	.loc 1 7005 0
	ldr	w3, [x1,96]
	ldr	w4, [x1,1724]
	cmp	w4, w3
	cset	w3, ne
	orr	w2, w2, w3
	b	.L2180
	.cfi_endproc
.LFE2209:
	.size	IsNewPic, .-IsNewPic
	.align	2
	.global	ref_pic_list_reordering
	.type	ref_pic_list_reordering, %function
ref_pic_list_reordering:
.LFB2210:
	.loc 1 7036 0
	.cfi_startproc
.LVL947:
	stp	x29, x30, [sp, -112]!
	.cfi_def_cfa_offset 112
	.cfi_offset 29, -112
	.cfi_offset 30, -104
	.loc 1 7038 0
	mov	w4, 2208
	.loc 1 7036 0
	add	x29, sp, 0
	.cfi_def_cfa_register 29
	stp	x21, x22, [sp,32]
	.cfi_offset 21, -80
	.cfi_offset 22, -72
	.loc 1 7038 0
	add	x21, x0, 28672
	.loc 1 7036 0
	stp	x19, x20, [sp,16]
	stp	x23, x24, [sp,48]
	stp	x25, x26, [sp,64]
	stp	x27, x28, [sp,80]
	.cfi_offset 19, -96
	.cfi_offset 20, -88
	.cfi_offset 23, -64
	.cfi_offset 24, -56
	.cfi_offset 25, -48
	.cfi_offset 26, -40
	.cfi_offset 27, -32
	.cfi_offset 28, -24
	.loc 1 7041 0
	add	x20, x0, 24576
	.loc 1 7038 0
	ldr	w1, [x21,68]
	.loc 1 7039 0
	ldr	x2, [x0,21632]
	ldr	x3, [x0,21624]
	.loc 1 7038 0
	umull	x1, w1, w4
	.loc 1 7039 0
	add	x1, x2, x1
	mov	w2, 4000
	ldr	w1, [x1,28]
	.loc 1 7041 0
	strb	wzr, [x20,3364]
	.loc 1 7042 0
	strb	wzr, [x20,3365]
	.loc 1 7039 0
	umull	x1, w1, w2
	.loc 1 7043 0
	ldrb	w2, [x21,57]
	.loc 1 7039 0
	add	x1, x3, x1
.LVL948:
	.loc 1 7045 0
	ldr	w23, [x1,2196]
	.loc 1 7043 0
	cbz	w2, .L2197
	.loc 1 7045 0
	mov	w1, 1
.LVL949:
	add	w23, w23, 5
	lsl	w23, w1, w23
.LVL950:
	.loc 1 7052 0
	ldrb	w1, [x21,56]
	add	x22, x0, 57344
	cmp	w1, 1
	bls	.L2248
.L2247:
	ldr	w3, [x22,616]
.L2215:
	.loc 1 7139 0
	cmp	w3, wzr
	csetm	w0, ne
.L2246:
	.loc 1 7142 0
	ldp	x19, x20, [sp,16]
	.cfi_remember_state
	.cfi_restore 20
	.cfi_restore 19
.LVL951:
	ldp	x21, x22, [sp,32]
	.cfi_restore 22
	.cfi_restore 21
	ldp	x23, x24, [sp,48]
	.cfi_restore 24
	.cfi_restore 23
.LVL952:
	ldp	x25, x26, [sp,64]
	.cfi_restore 26
	.cfi_restore 25
	ldp	x27, x28, [sp,80]
	.cfi_restore 28
	.cfi_restore 27
	ldp	x29, x30, [sp], 112
	.cfi_restore 30
	.cfi_restore 29
	.cfi_def_cfa 31, 0
	ret
.LVL953:
.L2197:
	.cfi_restore_state
	.loc 1 7049 0
	mov	w1, 1
.LVL954:
	add	w23, w23, 4
	lsl	w23, w1, w23
.LVL955:
	.loc 1 7052 0
	ldrb	w1, [x21,56]
	add	x22, x0, 57344
	cmp	w1, 1
	bhi	.L2247
.L2248:
	.loc 1 7054 0
	adrp	x1, .LC55
	mov	x19, x0
	add	x1, x1, :lo12:.LC55
	bl	u_1
.LVL956:
	uxtb	w0, w0
	strb	w0, [x20,3364]
	.loc 1 7055 0
	cbz	w0, .L2207
	.loc 1 7057 0 discriminator 1
	ldr	w0, [x21,112]
	cmn	w0, #2
	beq	.L2227
	.loc 1 7059 0
	adrp	x25, .LC56
	.loc 1 7083 0
	adrp	x24, .LC60
	.loc 1 7073 0
	adrp	x0, .LC58
	add	x28, x20, 3368
	add	x0, x0, :lo12:.LC58
	.loc 1 7057 0 discriminator 1
	mov	w26, 0
	.loc 1 7059 0
	add	x25, x25, :lo12:.LC56
	.loc 1 7083 0
	add	x24, x24, :lo12:.LC60
	.loc 1 7073 0
	str	x0, [x29,104]
	b	.L2212
.L2208:
	.loc 1 7083 0
	bl	ue_v
.LVL957:
	str	w0, [x28,528]
.L2211:
	.loc 1 7057 0 discriminator 1
	ldr	w0, [x21,112]
	add	x28, x28, 4
	add	w0, w0, 2
	cmp	w0, w26
	bls	.L2249
.L2212:
	.loc 1 7059 0
	mov	x1, x25
	mov	x0, x19
	.loc 1 7057 0 discriminator 2
	add	w26, w26, 1
	.loc 1 7060 0 discriminator 1
	add	x27, x22, 616
	.loc 1 7059 0
	bl	ue_v
.LVL958:
	mov	w2, w0
	.loc 1 7060 0
	cmp	w2, 3
	.loc 1 7059 0
	str	w2, [x28]
	.loc 1 7083 0
	mov	x1, x24
	mov	x0, x19
	ldr	w3, [x22,616]
	.loc 1 7060 0
	bhi	.L2204
	.loc 1 7066 0
	cmp	w2, 3
	.loc 1 7060 0 discriminator 1
	cbnz	w3, .L2204
	.loc 1 7066 0
	beq	.L2207
	.loc 1 7071 0
	cmp	w2, 2
	beq	.L2208
	.loc 1 7073 0
	ldr	x1, [x29,104]
	mov	x0, x19
	bl	ue_v
.LVL959:
	str	w0, [x28,264]
	.loc 1 7074 0
	cmp	w23, w0
	.loc 1 7073 0
	mov	w2, w0
	ldr	w3, [x27]
	.loc 1 7074 0
	bls	.L2210
	.loc 1 7074 0 is_stmt 0 discriminator 1
	cbz	w3, .L2211
.L2210:
	.loc 1 7076 0 is_stmt 1
	adrp	x1, .LC59
	mov	w0, 1
	add	x1, x1, :lo12:.LC59
	bl	dprint_linux_kernel
.LVL960:
	.loc 1 7078 0
	mov	w0, -1
	b	.L2246
.L2207:
	ldrb	w0, [x21,56]
.L2201:
	.loc 1 7096 0
	cmp	w0, 1
	bne	.L2247
	.loc 1 7098 0
	adrp	x1, .LC62
	mov	x0, x19
	add	x1, x1, :lo12:.LC62
	bl	u_1
.LVL961:
	uxtb	w0, w0
	strb	w0, [x20,3365]
	.loc 1 7099 0
	cbz	w0, .L2247
	.loc 1 7101 0 discriminator 1
	ldr	w0, [x21,116]
	cmn	w0, #2
	beq	.L2247
	.loc 1 7103 0
	adrp	x25, .LC63
	.loc 1 7127 0
	adrp	x24, .LC67
	.loc 1 7117 0
	adrp	x26, .LC65
	add	x20, x20, 3500
	.loc 1 7101 0 discriminator 1
	mov	w28, 0
	.loc 1 7103 0
	add	x25, x25, :lo12:.LC63
	.loc 1 7127 0
	add	x24, x24, :lo12:.LC67
	.loc 1 7117 0
	add	x26, x26, :lo12:.LC65
	b	.L2226
.L2225:
	.loc 1 7101 0 discriminator 2
	add	w28, w28, 1
	.loc 1 7101 0 is_stmt 0 discriminator 1
	cmp	w2, w28
	bls	.L2247
.L2226:
	.loc 1 7103 0 is_stmt 1
	mov	x1, x25
	mov	x0, x19
	.loc 1 7104 0 discriminator 1
	add	x27, x22, 616
	.loc 1 7103 0
	bl	ue_v
.LVL962:
	mov	w2, w0
	.loc 1 7104 0
	cmp	w2, 3
	.loc 1 7103 0
	str	w2, [x20]
	.loc 1 7127 0
	mov	x1, x24
	mov	x0, x19
	ldr	w3, [x22,616]
	.loc 1 7104 0
	bhi	.L2219
	.loc 1 7110 0
	cmp	w2, 3
	.loc 1 7104 0 discriminator 1
	cbnz	w3, .L2219
	.loc 1 7110 0
	beq	.L2215
	.loc 1 7115 0
	cmp	w2, 2
	bne	.L2250
	.loc 1 7127 0
	bl	ue_v
.LVL963:
	str	w0, [x20,524]
.L2224:
	.loc 1 7131 0
	ldr	w2, [x21,116]
	add	x20, x20, 4
	add	w2, w2, 2
	cmp	w2, w28
	bne	.L2225
	.loc 1 7131 0 is_stmt 0 discriminator 1
	uxtw	x0, w28
	add	x0, x0, 4096
	add	x0, x19, x0, lsl 2
	ldr	w0, [x0,11692]
	cmp	w0, 3
	beq	.L2225
	.loc 1 7133 0 is_stmt 1
	adrp	x1, .LC68
	mov	w0, 1
	add	x1, x1, :lo12:.LC68
	bl	dprint_linux_kernel
.LVL964:
	.loc 1 7134 0
	mov	w0, -1
	b	.L2246
.L2250:
	.loc 1 7117 0
	mov	x0, x19
	mov	x1, x26
	bl	ue_v
.LVL965:
	str	w0, [x20,264]
	.loc 1 7118 0
	cmp	w23, w0
	.loc 1 7117 0
	mov	w2, w0
	ldr	w3, [x27]
	.loc 1 7118 0
	bls	.L2223
	.loc 1 7118 0 is_stmt 0 discriminator 1
	cbz	w3, .L2224
.L2223:
	.loc 1 7120 0 is_stmt 1
	adrp	x1, .LC66
	mov	w0, 1
	add	x1, x1, :lo12:.LC66
	bl	dprint_linux_kernel
.LVL966:
	.loc 1 7122 0
	mov	w0, -1
	b	.L2246
.L2204:
	.loc 1 7062 0
	adrp	x1, .LC57
	mov	w0, 1
	add	x1, x1, :lo12:.LC57
	bl	dprint_linux_kernel
.LVL967:
	.loc 1 7064 0
	mov	w0, -1
	b	.L2246
.L2249:
	.loc 1 7088 0
	cmp	w26, w0
	bne	.L2207
.L2202:
	.loc 1 7088 0 is_stmt 0 discriminator 1
	add	x0, x0, 4096
	add	x0, x19, x0, lsl 2
	ldr	w0, [x0,11560]
	cmp	w0, 3
	bne	.L2213
	ldrb	w0, [x21,56]
	add	x22, x19, 57344
	b	.L2201
.L2219:
	.loc 1 7106 0 is_stmt 1
	adrp	x1, .LC64
	mov	w0, 1
	add	x1, x1, :lo12:.LC64
	bl	dprint_linux_kernel
.LVL968:
	.loc 1 7108 0
	mov	w0, -1
	b	.L2246
.L2227:
	.loc 1 7088 0
	mov	x0, 0
	b	.L2202
.L2213:
	.loc 1 7090 0
	adrp	x1, .LC61
	mov	w0, 1
	add	x1, x1, :lo12:.LC61
	bl	dprint_linux_kernel
.LVL969:
	.loc 1 7091 0
	mov	w0, -1
	b	.L2246
	.cfi_endproc
.LFE2210:
	.size	ref_pic_list_reordering, .-ref_pic_list_reordering
	.align	2
	.global	pred_weight_table
	.type	pred_weight_table, %function
pred_weight_table:
.LFB2211:
	.loc 1 7155 0
	.cfi_startproc
.LVL970:
	stp	x29, x30, [sp, -160]!
	.cfi_def_cfa_offset 160
	.cfi_offset 29, -160
	.cfi_offset 30, -152
	.loc 1 7160 0
	mov	w2, 2208
	.loc 1 7163 0
	adrp	x1, .LC69
	.loc 1 7155 0
	add	x29, sp, 0
	.cfi_def_cfa_register 29
	stp	x21, x22, [sp,32]
	.cfi_offset 21, -128
	.cfi_offset 22, -120
	.loc 1 7160 0
	add	x22, x0, 28672
	.loc 1 7163 0
	add	x1, x1, :lo12:.LC69
	.loc 1 7155 0
	stp	x19, x20, [sp,16]
	stp	x23, x24, [sp,48]
	stp	x25, x26, [sp,64]
	stp	x27, x28, [sp,80]
	.cfi_offset 19, -144
	.cfi_offset 20, -136
	.cfi_offset 23, -112
	.cfi_offset 24, -104
	.cfi_offset 25, -96
	.cfi_offset 26, -88
	.cfi_offset 27, -80
	.cfi_offset 28, -72
	.loc 1 7155 0
	mov	x20, x0
	.loc 1 7157 0
	str	wzr, [x29,132]
	.loc 1 7160 0
	ldr	w19, [x22,68]
	.loc 1 7164 0
	mov	w23, 1
	.loc 1 7160 0
	ldr	x27, [x0,21632]
	.loc 1 7161 0
	ldr	x21, [x0,21624]
	.loc 1 7160 0
	umull	x2, w19, w2
	add	x2, x27, x2
.LVL971:
	str	x2, [x29,120]
	.loc 1 7161 0
	ldr	w19, [x2,28]
	mov	w2, 4000
.LVL972:
	umull	x2, w19, w2
	add	x21, x21, x2
.LVL973:
	.loc 1 7163 0
	bl	ue_v
.LVL974:
	str	w0, [x22,120]
	.loc 1 7164 0
	lsl	w26, w23, w0
.LVL975:
	.loc 1 7166 0
	ldr	w1, [x21,40]
	cbnz	w1, .L2276
.LVL976:
.L2252:
	.loc 1 7171 0
	cmp	w0, 7
	bhi	.L2255
	.loc 1 7171 0 is_stmt 0 discriminator 1
	ldr	w0, [x22,124]
	cmp	w0, 7
	bhi	.L2255
	.loc 1 7171 0 discriminator 2
	add	x0, x20, 57344
	str	x0, [x29,112]
	ldr	w2, [x0,616]
.LVL977:
	cbnz	w2, .L2254
	.loc 1 7183 0 is_stmt 1
	adrp	x0, .LC73
	add	x23, x20, 20480
	add	x0, x0, :lo12:.LC73
	str	x0, [x29,152]
	.loc 1 7184 0
	adrp	x0, .LC74
	add	x23, x23, 1080
	add	x0, x0, :lo12:.LC74
	str	x0, [x29,144]
	.loc 1 7194 0
	adrp	x0, .LC75
	add	x27, x22, 128
	add	x0, x0, :lo12:.LC75
	.loc 1 7171 0 discriminator 2
	mov	w19, 0
	adrp	x25, .LC10
	adrp	x24, .LC72
	.loc 1 7194 0
	str	x0, [x29,136]
	b	.L2263
.LVL978:
.L2258:
	.loc 1 7188 0
	str	w26, [x27]
	.loc 1 7189 0
	str	wzr, [x27,768]
	.loc 1 7192 0
	ldr	w0, [x21,40]
	cbnz	w0, .L2277
.L2260:
	.loc 1 7211 0
	str	wzr, [x27,128]
	.loc 1 7212 0
	str	wzr, [x27,896]
	.loc 1 7213 0
	str	wzr, [x27,256]
	.loc 1 7214 0
	str	wzr, [x27,1024]
.L2262:
	.loc 1 7179 0 discriminator 1
	ldr	w0, [x22,112]
	.loc 1 7179 0 is_stmt 0 discriminator 2
	add	w19, w19, 1
	add	x27, x27, 4
	.loc 1 7179 0 discriminator 1
	cmp	w0, w19
	bcc	.L2278
.L2263:
.LBB321:
.LBB322:
	.loc 1 246 0 is_stmt 1
	mov	w1, 1
	mov	x0, x23
	bl	BsGet
.LVL979:
	mov	w28, w0
	.loc 1 247 0
	ldr	x7, [x20,648]
	.loc 1 249 0
	mov	w3, w0
	add	x2, x24, :lo12:.LC72
	add	x1, x25, :lo12:.LC10
	mov	w0, 21
	.loc 1 247 0
	ldr	w5, [x7,72]
	add	w5, w5, 1
	str	w5, [x7,72]
	.loc 1 249 0
	bl	dprint_linux_kernel
.LVL980:
.LBE322:
.LBE321:
	.loc 1 7181 0
	cbz	w28, .L2258
	.loc 1 7183 0
	ldr	x1, [x29,152]
	mov	x0, x20
	bl	se_v
.LVL981:
	str	w0, [x27]
	.loc 1 7184 0
	ldr	x1, [x29,144]
	mov	x0, x20
	bl	se_v
.LVL982:
	str	w0, [x27,768]
	.loc 1 7192 0
	ldr	w0, [x21,40]
	cbz	w0, .L2260
.L2277:
	.loc 1 7194 0
	ldr	x1, [x29,136]
	mov	x0, x20
	bl	u_1
.LVL983:
	cbnz	w0, .L2279
	.loc 1 7203 0
	ldr	w0, [x29,132]
	.loc 1 7179 0 discriminator 2
	add	w19, w19, 1
.LVL984:
	.loc 1 7203 0
	str	w0, [x27,128]
	add	x27, x27, 4
	.loc 1 7204 0
	str	wzr, [x27,892]
	.loc 1 7205 0
	str	w0, [x27,252]
	.loc 1 7206 0
	str	wzr, [x27,1020]
	.loc 1 7179 0 discriminator 1
	ldr	w0, [x22,112]
.LVL985:
	cmp	w0, w19
	bcs	.L2263
.L2278:
	.loc 1 7218 0
	ldr	x0, [x29,120]
.LVL986:
	ldr	w0, [x0,44]
.LVL987:
	cmp	w0, 1
	beq	.L2264
.L2265:
	.loc 1 7259 0
	ldr	x0, [x29,112]
	ldr	w0, [x0,616]
	cmp	w0, wzr
	csetm	w0, ne
.L2257:
	.loc 1 7262 0
	ldp	x19, x20, [sp,16]
	.cfi_remember_state
	.cfi_restore 20
	.cfi_restore 19
.LVL988:
	ldp	x21, x22, [sp,32]
	.cfi_restore 22
	.cfi_restore 21
.LVL989:
	ldp	x23, x24, [sp,48]
	.cfi_restore 24
	.cfi_restore 23
	ldp	x25, x26, [sp,64]
	.cfi_restore 26
	.cfi_restore 25
.LVL990:
	ldp	x27, x28, [sp,80]
	.cfi_restore 28
	.cfi_restore 27
.LVL991:
	ldp	x29, x30, [sp], 160
	.cfi_restore 30
	.cfi_restore 29
	.cfi_def_cfa 31, 0
	ret
.LVL992:
.L2279:
	.cfi_restore_state
	.loc 1 7196 0
	adrp	x3, .LC76
	mov	x0, x20
	add	x3, x3, :lo12:.LC76
	str	x3, [x29,96]
	mov	x1, x3
	bl	se_v
.LVL993:
