	.cpu generic+fp+simd
	.file	"vdm_hal_vc1.c"
	.text
.Ltext0:
	.cfi_sections	.debug_frame
#APP
	.irp	num,0,1,2,3,4,5,6,7,8,9,10,11,12,13,14,15,16,17,18,19,20,21,22,23,24,25,26,27,28,29,30
	.equ	__reg_num_x\num, \num
	.endr
	.equ	__reg_num_xzr, 31

	.macro	mrs_s, rt, sreg
	.inst	0xd5200000|(\sreg)|(__reg_num_\rt)
	.endm

	.macro	msr_s, sreg, rt
	.inst	0xd5000000|(\sreg)|(__reg_num_\rt)
	.endm

#NO_APP
	.align	2
	.global	VC1HAL_InitHal
	.type	VC1HAL_InitHal, %function
VC1HAL_InitHal:
.LFB2114:
	.file 1 "/home/jenkins/slave-135/workspace/chipset_component_CHICAGO_B100_Open_Source/component_code/vendor/huawei/extra/build/build_script/austin_kernel_release/kernel/drivers/vcodec/hi_vcodec/vdec/vfmw/vfmw_v4.0/firmware/driver/HiVDHV400R004/vdm_hal_vc1.c"
	.loc 1 22 0
	.cfi_startproc
.LVL0:
	.loc 1 24 0
	mov	w0, 0
.LVL1:
	ret
	.cfi_endproc
.LFE2114:
	.size	VC1HAL_InitHal, .-VC1HAL_InitHal
	.align	2
	.global	VC1HAL_CfgSliceMsg
	.type	VC1HAL_CfgSliceMsg, %function
VC1HAL_CfgSliceMsg:
.LFB2116:
	.loc 1 67 0
	.cfi_startproc
.LVL2:
	stp	x29, x30, [sp, -176]!
	.cfi_def_cfa_offset 176
	.cfi_offset 29, -176
	.cfi_offset 30, -168
	add	x29, sp, 0
	.cfi_def_cfa_register 29
	stp	x19, x20, [sp,16]
	stp	x23, x24, [sp,48]
	stp	x27, x28, [sp,80]
	stp	x21, x22, [sp,32]
	stp	x25, x26, [sp,64]
	.cfi_offset 19, -160
	.cfi_offset 20, -152
	.cfi_offset 23, -128
	.cfi_offset 24, -120
	.cfi_offset 27, -96
	.cfi_offset 28, -88
	.cfi_offset 21, -144
	.cfi_offset 22, -136
	.cfi_offset 25, -112
	.cfi_offset 26, -104
	.loc 1 67 0
	mov	x24, x0
	.loc 1 84 0
	add	x27, x0, 88
	.loc 1 85 0
	ldr	w25, [x1,56]
.LVL3:
	.loc 1 86 0
	mov	w0, w25
.LVL4:
	bl	MEM_Phy2Vir
.LVL5:
	mov	x19, x0
.LVL6:
	.loc 1 88 0
	cbz	x0, .L67
	.loc 1 94 0
	ldrb	w0, [x24,4]
	.loc 1 97 0
	add	x26, x24, 77824
	.loc 1 94 0
	cmp	w0, 2
	beq	.L68
	.loc 1 230 0
	ldr	w11, [x24,108]
	and	w11, w11, -16
	str	w11, [x26,2224]
	.loc 1 232 0 discriminator 1
	ldrb	w2, [x24,74]
	cbz	w2, .L2
	mov	w10, 0
	add	x9, x24, 108
	mov	w7, w2
	mov	w12, 0
	mov	w8, 0
	.loc 1 254 0
	cbnz	w10, .L27
.L69:
	.loc 1 260 0
	cmp	w2, 1
	.loc 1 257 0
	ldr	w8, [x27,32]
	.loc 1 260 0
	beq	.L48
	.loc 1 268 0
	ldr	w0, [x24,176]
	cmp	w8, w0
	blt	.L50
	add	x1, x24, 232
	mov	w0, 1
	b	.L31
.L33:
	ldr	w3, [x1],56
	cmp	w8, w3
	blt	.L32
.L31:
	.loc 1 266 0 discriminator 2
	add	w0, w0, 1
	.loc 1 266 0 is_stmt 0 discriminator 1
	cmp	w0, w2
	bne	.L33
	mov	w3, 0
.L29:
	mov	w12, w7
	.loc 1 256 0 is_stmt 1
	mov	w1, 0
.L28:
	.loc 1 314 0
	ldr	w0, [x9]
	add	x19, x19, 256
.LVL7:
	.loc 1 317 0
	ldr	w13, [x9,4]
	.loc 1 328 0
	add	w1, w1, w8, lsl 16
	.loc 1 314 0
	sub	w0, w0, w11
	.loc 1 322 0
	ldr	w7, [x9,8]
	.loc 1 316 0
	and	w2, w0, -16
	.loc 1 232 0 discriminator 2
	add	w10, w10, 1
	.loc 1 317 0
	add	w0, w13, w0, lsl 3
	add	x9, x9, 56
	.loc 1 322 0
	add	w0, w7, w0, lsl 25
	.loc 1 323 0
	str	w0, [x19,-256]
	.loc 1 325 0
	str	w2, [x19,-252]
	.loc 1 326 0
	str	wzr, [x19,-248]
	.loc 1 327 0
	str	wzr, [x19,-244]
	.loc 1 329 0
	str	w1, [x19,-240]
	.loc 1 331 0
	str	w3, [x19,-4]
	.loc 1 232 0 discriminator 1
	ldrb	w2, [x24,74]
	cmp	w2, w10
	ble	.L2
	ldr	w11, [x26,2224]
	mov	w7, w2
	.loc 1 254 0
	cbz	w10, .L69
.LVL8:
.L27:
	.loc 1 290 0
	sxtw	x0, w12
	.loc 1 292 0
	add	w1, w12, 1
	.loc 1 290 0
	lsl	x3, x0, 6
	.loc 1 292 0 discriminator 1
	cmp	w1, w2
	.loc 1 290 0
	sub	x0, x3, x0, lsl 3
	add	x0, x27, x0
	ldr	w7, [x0,32]
	.loc 1 292 0 discriminator 1
	bge	.L34
	.loc 1 294 0
	ldr	w0, [x0,88]
	cmp	w7, w0
	bge	.L37
	b	.L34
.L38:
	sub	x0, x3, x0, lsl 3
	add	x0, x27, x0
	ldr	w0, [x0,32]
	cmp	w7, w0
	blt	.L65
.L37:
	.loc 1 292 0 discriminator 2
	add	w1, w1, 1
	.loc 1 292 0 is_stmt 0 discriminator 1
	cmp	w1, w2
	.loc 1 294 0 is_stmt 1
	sxtw	x0, w1
	lsl	x3, x0, 6
	.loc 1 292 0 discriminator 1
	bne	.L38
	mov	w3, 0
.L39:
	.loc 1 310 0
	add	w1, w8, 1
	.loc 1 290 0
	mov	w8, w7
	b	.L28
.L34:
	.loc 1 300 0
	cmp	w1, w2
	mov	w3, 0
	beq	.L39
.L65:
	mov	w12, w1
	.loc 1 307 0
	add	w3, w25, w1, lsl 8
	b	.L39
.L32:
	.loc 1 266 0 discriminator 2
	mov	w7, w0
	.loc 1 282 0
	add	w3, w25, w7, lsl 8
	b	.L29
.L48:
	mov	w3, 0
	.loc 1 256 0
	mov	w1, 0
	b	.L28
.L50:
	.loc 1 268 0
	mov	w7, 1
	.loc 1 282 0
	add	w3, w25, w7, lsl 8
	b	.L29
.LVL9:
.L67:
	.loc 1 90 0
	adrp	x1, .LC0
	adrp	x2, .LANCHOR0
	add	x1, x1, :lo12:.LC0
	add	x2, x2, :lo12:.LANCHOR0
	mov	w0, 0
.LVL10:
	bl	dprint_linux_kernel
.LVL11:
.L2:
	.loc 1 341 0
	ldp	x19, x20, [sp,16]
	.cfi_remember_state
	.cfi_restore 20
	.cfi_restore 19
.LVL12:
	ldp	x21, x22, [sp,32]
	.cfi_restore 22
	.cfi_restore 21
	ldp	x23, x24, [sp,48]
	.cfi_restore 24
	.cfi_restore 23
.LVL13:
	ldp	x25, x26, [sp,64]
	.cfi_restore 26
	.cfi_restore 25
.LVL14:
	ldp	x27, x28, [sp,80]
	.cfi_restore 28
	.cfi_restore 27
	ldp	x29, x30, [sp], 176
	.cfi_restore 30
	.cfi_restore 29
	.cfi_def_cfa 31, 0
	ret
.LVL15:
.L68:
	.cfi_restore_state
	.loc 1 97 0
	ldr	w3, [x24,108]
	str	w3, [x26,2224]
	.loc 1 99 0 discriminator 1
	ldrb	w2, [x24,74]
	cbz	w2, .L6
	sub	w1, w2, #1
	mov	x7, 152
	mov	w8, 56
	add	x0, x24, 96
	umaddl	x7, w1, w8, x7
	add	x7, x24, x7
.L9:
	.loc 1 101 0
	ldr	x1, [x0]
	cbz	x1, .L7
	.loc 1 101 0 is_stmt 0 discriminator 1
	ldr	w1, [x0,28]
	cmp	w1, w3
	bcc	.L63
.L7:
	.loc 1 105 0 is_stmt 1
	ldr	w1, [x0,12]
	cmp	w1, w3
	bcs	.L8
.L63:
	.loc 1 107 0
	str	w1, [x26,2224]
	mov	w3, w1
.L8:
	add	x0, x0, 56
	.loc 1 99 0 discriminator 1
	cmp	x0, x7
	bne	.L9
.L6:
	.loc 1 112 0
	adrp	x1, .LC1
	.loc 1 111 0
	and	w3, w3, -16
	.loc 1 112 0
	mov	w0, 4
	.loc 1 111 0
	str	w3, [x26,2224]
	.loc 1 112 0
	add	x1, x1, :lo12:.LC1
	bl	dprint_linux_kernel
.LVL16:
	.loc 1 114 0 discriminator 1
	ldrb	w3, [x24,74]
	cbz	w3, .L2
	.loc 1 201 0
	adrp	x0, .LC2
	add	x23, x24, 96
	add	x0, x0, :lo12:.LC2
	str	x0, [x29,112]
	.loc 1 205 0
	adrp	x0, .LC3
	.loc 1 114 0 discriminator 1
	mov	w28, w3
	.loc 1 205 0
	add	x0, x0, :lo12:.LC3
	str	x0, [x29,104]
	.loc 1 209 0
	adrp	x0, .LC4
	.loc 1 114 0 discriminator 1
	str	wzr, [x29,124]
	.loc 1 209 0
	add	x0, x0, :lo12:.LC4
	.loc 1 114 0 discriminator 1
	mov	w22, 0
	mov	w21, 0
	.loc 1 209 0
	str	x0, [x29,96]
.L25:
	.loc 1 116 0
	ldr	w11, [x26,2224]
	ldr	w10, [x23,12]
	.loc 1 122 0
	ldr	x13, [x23]
	.loc 1 116 0
	sub	w0, w10, w11
	.loc 1 119 0
	ldr	w1, [x23,16]
	ubfiz	w2, w0, 3, 4
	.loc 1 118 0
	and	w8, w0, -16
	.loc 1 119 0
	add	w2, w2, w1
	.loc 1 120 0
	ldr	w15, [x23,20]
	.loc 1 122 0
	cbz	x13, .L43
	.loc 1 124 0
	ldr	w13, [x23,28]
	.loc 1 126 0
	ldr	w0, [x23,32]
	.loc 1 124 0
	sub	w20, w13, w11
	ldr	w10, [x23,36]
	mov	w14, w20
	.loc 1 126 0
	add	w0, w0, w20, lsl 3
.LVL17:
	add	w10, w10, w0, lsl 25
	mov	w13, w10
.L11:
	.loc 1 136 0
	cbnz	w22, .L12
	.loc 1 142 0
	cmp	w3, 1
	.loc 1 139 0
	ldr	w21, [x27,32]
	.loc 1 142 0
	beq	.L44
	.loc 1 150 0
	ldr	w0, [x24,176]
.LVL18:
	cmp	w21, w0
	blt	.L46
	add	x1, x24, 232
	mov	w0, 1
	b	.L16
.L18:
	ldr	w16, [x1],56
	cmp	w21, w16
	blt	.L17
.L16:
	.loc 1 148 0 discriminator 2
	add	w0, w0, 1
	.loc 1 148 0 is_stmt 0 discriminator 1
	cmp	w0, w3
	bne	.L18
	mov	w17, 0
	.loc 1 160 0 is_stmt 1
	mov	w3, 0
.L14:
	.loc 1 186 0
	str	w28, [x29,124]
	.loc 1 138 0
	mov	w28, 0
.LVL19:
.L13:
	.loc 1 201 0
	ldr	x1, [x29,112]
	.loc 1 199 0
	add	w2, w15, w2, lsl 25
	.loc 1 201 0
	mov	w0, 4
.LVL20:
	.loc 1 200 0
	str	w2, [x19]
.LVL21:
	str	x17, [x29,128]
	add	x19, x19, 256
	str	x3, [x29,168]
	.loc 1 114 0 discriminator 2
	add	w22, w22, 1
	str	x14, [x29,136]
	add	x23, x23, 56
	str	x13, [x29,144]
	str	x10, [x29,152]
	str	x8, [x29,160]
	.loc 1 201 0
	bl	dprint_linux_kernel
.LVL22:
	.loc 1 204 0
	ldr	x8, [x29,160]
	.loc 1 205 0
	mov	w0, 4
	ldr	x1, [x29,104]
	mov	w2, w8
	.loc 1 204 0
	str	w8, [x19,-252]
	.loc 1 205 0
	bl	dprint_linux_kernel
.LVL23:
	.loc 1 209 0
	ldr	x10, [x29,152]
	mov	w0, 4
	.loc 1 208 0
	ldr	x13, [x29,144]
	.loc 1 209 0
	ldr	x1, [x29,96]
	mov	w2, w10
	.loc 1 208 0
	str	w13, [x19,-248]
	.loc 1 209 0
	bl	dprint_linux_kernel
.LVL24:
	.loc 1 212 0
	ldr	x14, [x29,136]
	.loc 1 213 0
	adrp	x0, .LC5
	.loc 1 212 0
	str	w14, [x19,-244]
	.loc 1 213 0
	add	x1, x0, :lo12:.LC5
	mov	w2, w20
	mov	w0, 4
	bl	dprint_linux_kernel
.LVL25:
	.loc 1 217 0
	adrp	x0, .LC6
	.loc 1 215 0
	add	w2, w28, w21, lsl 16
	.loc 1 217 0
	add	x1, x0, :lo12:.LC6
	.loc 1 216 0
	str	w2, [x19,-240]
	.loc 1 217 0
	mov	w0, 4
	bl	dprint_linux_kernel
.LVL26:
	.loc 1 221 0
	ldr	x3, [x29,168]
	adrp	x1, .LC7
	.loc 1 220 0
	ldr	x17, [x29,128]
	.loc 1 221 0
	mov	w0, 4
	mov	w2, w3
	.loc 1 220 0
	str	w17, [x19,-4]
	.loc 1 221 0
	add	x1, x1, :lo12:.LC7
	bl	dprint_linux_kernel
.LVL27:
	.loc 1 114 0 discriminator 1
	ldrb	w3, [x24,74]
	cmp	w3, w22
	mov	w28, w3
	bgt	.L25
	b	.L2
.LVL28:
.L12:
	.loc 1 172 0
	ldr	w1, [x29,124]
	sxtw	x0, w1
.LVL29:
	.loc 1 174 0
	add	w1, w1, 1
	.loc 1 172 0
	lsl	x17, x0, 6
	.loc 1 174 0 discriminator 1
	cmp	w1, w3
	.loc 1 172 0
	sub	x0, x17, x0, lsl 3
	add	x0, x27, x0
	ldr	w16, [x0,32]
	.loc 1 174 0 discriminator 1
	bge	.L19
	.loc 1 176 0
	ldr	w0, [x0,88]
	cmp	w16, w0
	bge	.L22
	b	.L19
.L23:
	sub	x0, x17, x0, lsl 3
	add	x0, x27, x0
	ldr	w0, [x0,32]
	cmp	w16, w0
	blt	.L64
.L22:
	.loc 1 174 0 discriminator 2
	add	w1, w1, 1
	.loc 1 174 0 is_stmt 0 discriminator 1
	cmp	w1, w3
	.loc 1 176 0 is_stmt 1
	sxtw	x0, w1
	lsl	x17, x0, 6
	.loc 1 174 0 discriminator 1
	bne	.L23
.L47:
	mov	w17, 0
	.loc 1 186 0
	mov	w3, 0
.L24:
	.loc 1 194 0
	add	w28, w21, 1
	.loc 1 172 0
	mov	w21, w16
	b	.L13
.L19:
	.loc 1 184 0
	cmp	w1, w3
	beq	.L47
.L64:
	.loc 1 191 0
	add	w3, w25, w1, lsl 8
	str	w1, [x29,124]
	mov	w17, w3
	b	.L24
.L17:
	.loc 1 148 0 discriminator 2
	mov	w28, w0
.L15:
	.loc 1 164 0
	add	w3, w25, w28, lsl 8
	mov	w17, w3
	b	.L14
.L43:
	mov	w14, 0
	mov	w13, 0
	mov	w10, 0
	.loc 1 131 0
	mov	w20, 0
	b	.L11
.LVL30:
.L44:
	mov	w17, 0
	.loc 1 138 0
	mov	w28, 0
	.loc 1 144 0
	mov	w3, 0
	b	.L13
.LVL31:
.L46:
	.loc 1 150 0
	mov	w28, 1
	b	.L15
	.cfi_endproc
.LFE2116:
	.size	VC1HAL_CfgSliceMsg, .-VC1HAL_CfgSliceMsg
	.align	2
	.global	VC1HAL_CfgReg
	.type	VC1HAL_CfgReg, %function
VC1HAL_CfgReg:
.LFB2117:
	.loc 1 343 0
	.cfi_startproc
.LVL32:
	stp	x29, x30, [sp, -80]!
	.cfi_def_cfa_offset 80
	.cfi_offset 29, -80
	.cfi_offset 30, -72
	.loc 1 348 0
	adrp	x4, g_VdmDrvParam
	.loc 1 343 0
	add	x29, sp, 0
	.cfi_def_cfa_register 29
	stp	x19, x20, [sp,16]
	stp	x23, x24, [sp,48]
	.cfi_offset 19, -64
	.cfi_offset 20, -56
	.cfi_offset 23, -32
	.cfi_offset 24, -24
	adrp	x19, __stack_chk_guard
	sxtw	x23, w2
	.loc 1 348 0
	add	x4, x4, :lo12:g_VdmDrvParam
	lsl	x2, x23, 4
.LVL33:
	add	x4, x4, x23, lsl 6
	.loc 1 344 0
	str	wzr, [x29,68]
.LVL34:
	.loc 1 343 0
	ldr	x5, [x19,#:lo12:__stack_chk_guard]
	.loc 1 348 0
	sub	x4, x4, x2
	.loc 1 343 0
	stp	x21, x22, [sp,32]
	.cfi_offset 21, -48
	.cfi_offset 22, -40
	.loc 1 343 0
	str	x5, [x29,72]
	.loc 1 350 0
	cmp	w23, wzr
	.loc 1 343 0
	mov	x3, x23
.LVL35:
	mov	x20, x0
	.loc 1 348 0
	ldr	w4, [x4,8]
	.loc 1 350 0
	bgt	.L83
.LVL36:
	.loc 1 368 0 discriminator 1
	add	x2, x2, x23, lsl 2
	adrp	x21, g_HwMem
	sub	x2, x2, x23
	.loc 1 357 0
	add	x22, x0, 77824
	.loc 1 368 0 discriminator 1
	lsl	x2, x2, 6
	add	x3, x21, :lo12:g_HwMem
	.loc 1 359 0
	ldr	w0, [x22,2216]
.LVL37:
	.loc 1 368 0 discriminator 1
	ldr	x3, [x3,x2]
	.loc 1 366 0
	mov	w2, 1090519040
	.loc 1 359 0
	and	w0, w0, 1048575
	.loc 1 366 0
	orr	w0, w0, w2
	.loc 1 368 0 discriminator 1
	str	w0, [x3,8]
	.loc 1 371 0
	adrp	x0, s_pstVfmwChan
	add	x0, x0, :lo12:s_pstVfmwChan
.LVL38:
	ldr	x0, [x0,w4,sxtw 3]
	cbz	x0, .L78
	.loc 1 373 0
	ldrb	w0, [x0,40]
	cmp	w0, 1
	cset	w8, eq
.L73:
	.loc 1 380 0
	ldrb	w2, [x29,68]
	mov	w3, 1
	.loc 1 385 0
	ldrh	w5, [x29,70]
	.loc 1 391 0 discriminator 1
	lsl	x0, x23, 4
	.loc 1 380 0
	bfi	w2, w3, 0, 4
	strb	w2, [x29,68]
	.loc 1 385 0
	bfi	w5, w3, 0, 12
	.loc 1 381 0
	ldr	w2, [x22,2268]
	ldrh	w6, [x29,68]
	.loc 1 386 0
	lsr	x3, x5, 8
	.loc 1 388 0
	ldr	w7, [x22,2296]
	.loc 1 381 0
	lsr	w2, w2, 6
	.loc 1 391 0 discriminator 1
	add	x0, x0, x23, lsl 2
	.loc 1 386 0
	and	w3, w3, -17
	.loc 1 381 0
	bfi	w6, w2, 4, 9
	.loc 1 391 0 discriminator 1
	sub	x0, x0, x23
	.loc 1 388 0
	orr	w3, w3, 32
	.loc 1 391 0 discriminator 1
	add	x2, x21, :lo12:g_HwMem
	lsl	x0, x0, 6
	.loc 1 385 0
	strh	w5, [x29,70]
	.loc 1 382 0
	lsr	x4, x6, 8
.LVL39:
	.loc 1 388 0
	bfi	w3, w7, 6, 1
	.loc 1 381 0
	strh	w6, [x29,68]
	.loc 1 389 0
	and	w3, w3, 127
	.loc 1 382 0
	bfi	w4, w8, 5, 1
	.loc 1 389 0
	strb	w3, [x29,71]
	.loc 1 384 0
	orr	w4, w4, -64
	strb	w4, [x29,69]
	.loc 1 391 0 discriminator 1
	ldr	x4, [x2,x0]
	.loc 1 390 0
	ldr	w3, [x29,68]
	str	w3, [x22,2220]
	.loc 1 391 0 discriminator 1
	str	w3, [x4,12]
	.loc 1 393 0 discriminator 1
	ldr	x3, [x2,x0]
	ldr	w4, [x1,52]
	str	w4, [x3,16]
	.loc 1 394 0 discriminator 1
	ldr	x3, [x2,x0]
	ldr	w1, [x1,36]
.LVL40:
	str	w1, [x3,20]
	.loc 1 395 0 discriminator 1
	ldr	x0, [x2,x0]
	ldr	w1, [x22,2224]
	str	w1, [x0,24]
	.loc 1 398 0
	ldrh	w0, [x20,82]
	cmp	w0, 256
	bhi	.L74
	.loc 1 407 0
	adrp	x24, gScdRegBaseAddr
	ldr	w0, [x24,#:lo12:gScdRegBaseAddr]
	add	w0, w0, 4
	bl	MEM_ReadPhyWord
.LVL41:
	.loc 1 414 0
	orr	w1, w0, 65536
.L76:
	.loc 1 416 0
	ldr	w0, [x24,#:lo12:gScdRegBaseAddr]
	add	w0, w0, 4
	bl	MEM_WritePhyWord
.LVL42:
	.loc 1 420 0 discriminator 1
	lsl	x0, x23, 4
	add	x4, x21, :lo12:g_HwMem
	add	x0, x0, x23, lsl 2
	mov	w2, 3075
	sub	x0, x0, x23
	movk	w2, 0x30, lsl 16
	lsl	x1, x0, 6
	.loc 1 421 0 discriminator 1
	mov	w8, 3075
	.loc 1 422 0 discriminator 1
	mov	w7, w8
	.loc 1 421 0 discriminator 1
	movk	w8, 0x30, lsl 16
	.loc 1 422 0 discriminator 1
	movk	w7, 0x30, lsl 16
	.loc 1 423 0 discriminator 1
	mov	w6, 3075
	.loc 1 420 0 discriminator 1
	ldr	x0, [x4,x1]
	.loc 1 423 0 discriminator 1
	movk	w6, 0x30, lsl 16
	.loc 1 424 0 discriminator 1
	mov	w5, 3075
	.loc 1 425 0 discriminator 1
	mov	w3, 3075
	.loc 1 424 0 discriminator 1
	movk	w5, 0x30, lsl 16
	.loc 1 425 0 discriminator 1
	movk	w3, 0x30, lsl 16
	.loc 1 420 0 discriminator 1
	str	w2, [x0,60]
	.loc 1 426 0 discriminator 1
	mov	w2, 3075
	movk	w2, 0x30, lsl 16
	.loc 1 452 0
	mov	w0, 0
	.loc 1 421 0 discriminator 1
	ldr	x9, [x4,x1]
	str	w8, [x9,64]
	.loc 1 422 0 discriminator 1
	ldr	x8, [x4,x1]
	str	w7, [x8,68]
	.loc 1 423 0 discriminator 1
	ldr	x7, [x4,x1]
	str	w6, [x7,72]
	.loc 1 424 0 discriminator 1
	ldr	x6, [x4,x1]
	str	w5, [x6,76]
	.loc 1 425 0 discriminator 1
	ldr	x5, [x4,x1]
	str	w3, [x5,80]
	.loc 1 426 0 discriminator 1
	ldr	x3, [x4,x1]
	str	w2, [x3,84]
	.loc 1 428 0
	ldr	w2, [x22,2228]
	str	w2, [x22,2268]
	.loc 1 432 0
	lsr	w3, w2, 4
	.loc 1 434 0 discriminator 1
	ldr	x5, [x4,x1]
	.loc 1 432 0
	ldrh	w2, [x20,80]
	lsl	w3, w3, 5
	.loc 1 434 0 discriminator 1
	ldr	w6, [x22,2264]
	.loc 1 432 0
	add	w2, w2, 31
	asr	w2, w2, 5
	.loc 1 433 0
	mul	w2, w3, w2
	.loc 1 432 0
	str	w2, [x22,2272]
	.loc 1 434 0 discriminator 1
	str	w6, [x5,96]
	.loc 1 435 0 discriminator 1
	ldr	x2, [x4,x1]
	ldr	w3, [x22,2268]
	str	w3, [x2,100]
	.loc 1 436 0 discriminator 1
	ldr	x2, [x4,x1]
	ldr	w3, [x22,2272]
	str	w3, [x2,104]
	.loc 1 437 0 discriminator 1
	ldr	x2, [x4,x1]
	ldrb	w3, [x20,73]
	str	w3, [x2,152]
	.loc 1 438 0 discriminator 1
	ldr	x2, [x4,x1]
	ldrb	w3, [x20,72]
	str	w3, [x2,148]
	.loc 1 442 0 discriminator 1
	ldr	x1, [x4,x1]
	str	wzr, [x1,108]
.L72:
	.loc 1 453 0
	ldr	x2, [x29,72]
	ldr	x1, [x19,#:lo12:__stack_chk_guard]
	cmp	x2, x1
	bne	.L84
	ldp	x19, x20, [sp,16]
	.cfi_remember_state
	.cfi_restore 20
	.cfi_restore 19
.LVL43:
	ldp	x21, x22, [sp,32]
	.cfi_restore 22
	.cfi_restore 21
	ldp	x23, x24, [sp,48]
	.cfi_restore 24
	.cfi_restore 23
.LVL44:
	ldp	x29, x30, [sp], 80
	.cfi_restore 30
	.cfi_restore 29
	.cfi_def_cfa 31, 0
	ret
.LVL45:
.L74:
	.cfi_restore_state
	.loc 1 407 0
	adrp	x24, gScdRegBaseAddr
	ldr	w0, [x24,#:lo12:gScdRegBaseAddr]
	add	w0, w0, 4
	bl	MEM_ReadPhyWord
.LVL46:
	.loc 1 410 0
	and	w1, w0, -65537
	b	.L76
.LVL47:
.L78:
	mov	w8, 0
	b	.L73
.LVL48:
.L83:
	.loc 1 352 0
	adrp	x2, .LANCHOR0
	adrp	x1, .LC8
.LVL49:
	add	x2, x2, :lo12:.LANCHOR0
	mov	w0, 0
	add	x1, x1, :lo12:.LC8
	add	x2, x2, 24
	mov	w4, 0
	bl	dprint_linux_kernel
.LVL50:
	.loc 1 353 0
	mov	w0, -1
	b	.L72
.LVL51:
.L84:
	.loc 1 453 0
	bl	__stack_chk_fail
.LVL52:
	.cfi_endproc
.LFE2117:
	.size	VC1HAL_CfgReg, .-VC1HAL_CfgReg
	.align	2
	.global	VC1HAL_CfgDnMsg
	.type	VC1HAL_CfgDnMsg, %function
VC1HAL_CfgDnMsg:
.LFB2118:
	.loc 1 457 0
	.cfi_startproc
.LVL53:
	stp	x29, x30, [sp, -128]!
	.cfi_def_cfa_offset 128
	.cfi_offset 29, -128
	.cfi_offset 30, -120
	add	x29, sp, 0
	.cfi_def_cfa_register 29
	stp	x19, x20, [sp,16]
	.cfi_offset 19, -112
	.cfi_offset 20, -104
	adrp	x20, __stack_chk_guard
	mov	x19, x0
	stp	x21, x22, [sp,32]
	stp	x23, x24, [sp,48]
	stp	x25, x26, [sp,64]
	stp	x27, x28, [sp,80]
	.cfi_offset 21, -96
	.cfi_offset 22, -88
	.cfi_offset 23, -80
	.cfi_offset 24, -72
	.cfi_offset 25, -64
	.cfi_offset 26, -56
	.cfi_offset 27, -48
	.cfi_offset 28, -40
	.loc 1 457 0
	ldr	x2, [x20,#:lo12:__stack_chk_guard]
	.loc 1 461 0
	ldr	w0, [x1,52]
.LVL54:
	str	x1, [x29,104]
	.loc 1 457 0
	str	x2, [x29,120]
	.loc 1 461 0
	bl	MEM_Phy2Vir
.LVL55:
	.loc 1 463 0
	ldr	x1, [x29,104]
.LVL56:
	cbz	x0, .L91
	.loc 1 471 0
	ldrb	w6, [x19,4]
	mov	w2, 0
	.loc 1 470 0
	ldrb	w5, [x19,5]
	mov	w3, 0
	.loc 1 472 0
	ldrb	w4, [x19,3]
	.loc 1 471 0
	bfi	w2, w6, 4, 2
	.loc 1 469 0
	str	wzr, [x29,116]
.LVL57:
	.loc 1 470 0
	bfi	w3, w5, 6, 2
	.loc 1 472 0
	bfi	w2, w4, 0, 2
	.loc 1 470 0
	strb	w3, [x29,117]
	.loc 1 472 0
	strb	w2, [x29,116]
	.loc 1 481 0
	mov	w3, 0
	.loc 1 490 0
	mov	w5, 0
	.loc 1 497 0
	mov	w27, 0
	.loc 1 473 0
	ldr	w2, [x29,116]
	.loc 1 498 0
	mov	w26, 0
	.loc 1 473 0
	str	w2, [x0]
	.loc 1 499 0
	mov	w25, 0
	.loc 1 475 0
	str	wzr, [x29,116]
	.loc 1 500 0
	mov	w24, 0
	.loc 1 476 0
	ldrh	w2, [x19,84]
	.loc 1 504 0
	mov	w8, 0
	.loc 1 477 0
	ldrh	w4, [x19,82]
	.loc 1 505 0
	mov	w9, 0
	.loc 1 477 0
	strb	w4, [x29,116]
	.loc 1 509 0
	mov	w23, 0
	.loc 1 476 0
	strb	w2, [x29,118]
	.loc 1 514 0
	mov	w16, 0
	.loc 1 519 0
	mov	w15, 0
	.loc 1 521 0
	mov	w7, 0
	.loc 1 478 0
	ldr	w2, [x29,116]
	.loc 1 528 0
	mov	w4, 0
	.loc 1 478 0
	str	w2, [x0,4]
	.loc 1 533 0
	mov	w22, 0
	.loc 1 480 0
	str	wzr, [x29,116]
	.loc 1 537 0
	mov	w2, 0
	.loc 1 481 0
	ldrb	w10, [x19,8]
	.loc 1 547 0
	mov	w21, 0
	.loc 1 482 0
	ldrb	w6, [x19,6]
	.loc 1 548 0
	mov	w18, 0
	.loc 1 483 0
	ldrb	w11, [x19,9]
	.loc 1 481 0
	bfi	w3, w10, 2, 1
	.loc 1 482 0
	bfi	w3, w6, 0, 1
	.loc 1 484 0
	ldrb	w10, [x19,7]
	.loc 1 485 0
	ldrb	w6, [x19,10]
	.loc 1 483 0
	bfi	w3, w11, 3, 1
	.loc 1 486 0
	ldrb	w28, [x19,11]
	.loc 1 484 0
	bfi	w3, w10, 1, 1
	.loc 1 485 0
	bfi	w3, w6, 4, 2
	.loc 1 549 0
	mov	w17, 0
	.loc 1 486 0
	bfi	w3, w28, 6, 2
	strb	w3, [x29,116]
	.loc 1 553 0
	mov	w14, 0
	.loc 1 555 0
	mov	w13, 0
	.loc 1 487 0
	ldr	w3, [x29,116]
	.loc 1 572 0
	mov	w12, 0
	.loc 1 487 0
	str	w3, [x0,8]
	.loc 1 574 0
	mov	w11, 0
	.loc 1 489 0
	str	wzr, [x29,116]
	.loc 1 630 0
	mov	w6, 0
	.loc 1 490 0
	ldrb	w3, [x19,15]
	.loc 1 629 0
	mov	w10, 0
	.loc 1 491 0
	ldrb	w30, [x19,13]
	.loc 1 492 0
	ldrb	w28, [x19,14]
	.loc 1 490 0
	bfi	w5, w3, 4, 2
	.loc 1 491 0
	bfi	w5, w30, 1, 1
	.loc 1 493 0
	ldrb	w3, [x19,12]
	.loc 1 492 0
	bfi	w5, w28, 2, 1
	.loc 1 493 0
	bfi	w5, w3, 0, 1
	strb	w5, [x29,116]
	.loc 1 494 0
	ldr	w3, [x29,116]
	str	w3, [x0,12]
	.loc 1 497 0
	ldrb	w3, [x19,18]
	.loc 1 499 0
	ldrb	w5, [x19,17]
	.loc 1 498 0
	ldrb	w28, [x19,19]
	.loc 1 497 0
	bfi	w27, w3, 0, 5
	.loc 1 500 0
	ldrb	w3, [x19,16]
	.loc 1 499 0
	bfi	w25, w5, 0, 5
	.loc 1 497 0
	strb	w27, [x29,118]
	.loc 1 498 0
	bfi	w26, w28, 0, 1
	.loc 1 499 0
	strb	w25, [x29,117]
	.loc 1 500 0
	bfi	w24, w3, 0, 5
	.loc 1 498 0
	strb	w26, [x29,119]
	.loc 1 500 0
	strb	w24, [x29,116]
	.loc 1 501 0
	ldr	w3, [x29,116]
	str	w3, [x0,16]
	.loc 1 503 0
	str	wzr, [x29,116]
	.loc 1 504 0
	ldrb	w3, [x19,20]
	.loc 1 505 0
	ldrb	w24, [x19,24]
	.loc 1 506 0
	ldrb	w5, [x19,23]
	.loc 1 504 0
	bfi	w8, w3, 0, 1
	.loc 1 507 0
	ldrb	w3, [x19,22]
	.loc 1 505 0
	bfi	w9, w24, 4, 1
	.loc 1 506 0
	bfi	w9, w5, 0, 2
	.loc 1 508 0
	ldrb	w24, [x19,25]
	.loc 1 509 0
	ldrb	w5, [x19,26]
	.loc 1 507 0
	bfi	w8, w3, 2, 2
	.loc 1 510 0
	ldrb	w3, [x19,21]
	.loc 1 508 0
	bfi	w9, w24, 6, 1
	.loc 1 509 0
	bfi	w23, w5, 0, 4
	.loc 1 508 0
	strb	w9, [x29,117]
	.loc 1 509 0
	strb	w23, [x29,118]
	.loc 1 510 0
	bfi	w8, w3, 1, 1
	strb	w8, [x29,116]
	.loc 1 511 0
	ldr	w3, [x29,116]
	str	w3, [x0,20]
	.loc 1 513 0
	str	wzr, [x29,116]
	.loc 1 514 0
	ldrb	w5, [x19,27]
	.loc 1 515 0
	ldrb	w3, [x19,28]
	.loc 1 514 0
	bfi	w16, w5, 0, 3
	.loc 1 515 0
	bfi	w16, w3, 4, 2
	strb	w16, [x29,116]
	.loc 1 516 0
	ldr	w3, [x29,116]
	str	w3, [x0,24]
	.loc 1 518 0
	str	wzr, [x29,116]
	.loc 1 519 0
	ldrb	w5, [x19,34]
	.loc 1 520 0
	ldrb	w3, [x19,33]
	.loc 1 519 0
	bfi	w15, w5, 6, 1
	.loc 1 520 0
	bfi	w15, w3, 4, 2
	strb	w15, [x29,117]
	.loc 1 521 0
	ldrb	w3, [x19,30]
	.loc 1 522 0
	ldrb	w8, [x19,29]
	.loc 1 521 0
	bfi	w7, w3, 1, 1
	.loc 1 523 0
	ldrb	w3, [x19,31]
	.loc 1 522 0
	bfi	w7, w8, 0, 1
	.loc 1 524 0
	ldrb	w5, [x19,32]
	.loc 1 523 0
	bfi	w7, w3, 2, 2
	strb	w7, [x29,116]
	.loc 1 524 0
	ldrh	w3, [x29,116]
	bfi	w3, w5, 4, 5
	strh	w3, [x29,116]
	.loc 1 525 0
	ldr	w3, [x29,116]
	str	w3, [x0,28]
	.loc 1 527 0
	str	wzr, [x29,116]
	.loc 1 528 0
	ldrb	w5, [x19,35]
	.loc 1 529 0
	ldrb	w3, [x19,36]
	.loc 1 530 0
	ldrb	w8, [x19,37]
	.loc 1 528 0
	bfi	w4, w5, 0, 1
	.loc 1 529 0
	bfi	w4, w3, 1, 1
	.loc 1 531 0
	ldrb	w5, [x19,38]
	.loc 1 532 0
	ldrb	w3, [x19,39]
	.loc 1 530 0
	bfi	w4, w8, 2, 1
	.loc 1 533 0
	ldrb	w7, [x19,40]
	.loc 1 531 0
	bfi	w4, w5, 4, 2
	.loc 1 532 0
	bfi	w4, w3, 6, 2
	strb	w4, [x29,116]
	.loc 1 533 0
	bfi	w22, w7, 0, 2
	strb	w22, [x29,117]
	.loc 1 534 0
	ldr	w3, [x29,116]
	str	w3, [x0,32]
	.loc 1 536 0
	str	wzr, [x29,116]
	.loc 1 537 0
	ldrb	w3, [x19,46]
	.loc 1 538 0
	ldrb	w4, [x19,42]
	.loc 1 537 0
	bfi	w2, w3, 5, 1
	.loc 1 539 0
	ldrb	w3, [x19,44]
	.loc 1 540 0
	ldrb	w7, [x19,41]
	.loc 1 538 0
	bfi	w2, w4, 1, 1
	.loc 1 541 0
	ldrb	w5, [x19,43]
	.loc 1 539 0
	bfi	w2, w3, 3, 1
	.loc 1 542 0
	ldrb	w4, [x19,47]
	.loc 1 540 0
	bfi	w2, w7, 0, 1
	.loc 1 543 0
	ldrb	w3, [x19,45]
	.loc 1 541 0
	bfi	w2, w5, 2, 1
	.loc 1 542 0
	bfi	w2, w4, 6, 1
	.loc 1 543 0
	bfi	w2, w3, 4, 1
	strb	w2, [x29,116]
	.loc 1 544 0
	ldr	w2, [x29,116]
	str	w2, [x0,36]
	.loc 1 546 0
	str	wzr, [x29,116]
	.loc 1 547 0
	ldrb	w2, [x19,50]
	bfi	w21, w2, 0, 7
	strb	w21, [x29,118]
	.loc 1 548 0
	ldrb	w3, [x19,49]
	.loc 1 549 0
	ldrb	w2, [x19,48]
	.loc 1 548 0
	bfi	w18, w3, 0, 3
	strb	w18, [x29,117]
	.loc 1 549 0
	bfi	w17, w2, 0, 3
	strb	w17, [x29,116]
	.loc 1 550 0
	ldr	w2, [x29,116]
	str	w2, [x0,40]
	.loc 1 552 0
	str	wzr, [x29,116]
	.loc 1 553 0
	ldrb	w2, [x19,53]
	.loc 1 555 0
	ldrb	w4, [x19,51]
	.loc 1 554 0
	ldrb	w3, [x19,54]
	.loc 1 553 0
	bfi	w14, w2, 0, 2
	.loc 1 556 0
	ldrb	w2, [x19,52]
	.loc 1 555 0
	bfi	w13, w4, 0, 3
	.loc 1 554 0
	bfi	w14, w3, 4, 1
	strb	w14, [x29,117]
	.loc 1 556 0
	bfi	w13, w2, 4, 2
	strb	w13, [x29,116]
	.loc 1 557 0
	ldr	w2, [x29,116]
	str	w2, [x0,44]
	.loc 1 561 0
	ldr	w2, [x19,14424]
	str	w2, [x0,48]
	.loc 1 565 0
	ldr	w2, [x19,14428]
	str	w2, [x0,52]
	.loc 1 569 0
	ldr	w2, [x19,14432]
	str	w2, [x0,56]
	.loc 1 572 0
	ldrb	w2, [x19,55]
	.loc 1 574 0
	ldrb	w4, [x19,57]
	.loc 1 573 0
	ldrb	w3, [x19,56]
	.loc 1 572 0
	bfi	w12, w2, 4, 1
	.loc 1 575 0
	ldrb	w2, [x19,58]
	.loc 1 574 0
	bfi	w11, w4, 0, 1
	.loc 1 576 0
	ldrh	w4, [x19,76]
	.loc 1 573 0
	bfi	w12, w3, 5, 3
	.loc 1 576 0
	strh	w4, [x29,116]
	.loc 1 575 0
	bfi	w11, w2, 1, 3
	.loc 1 573 0
	strb	w12, [x29,118]
	.loc 1 575 0
	strb	w11, [x29,119]
	.loc 1 577 0
	ldr	w2, [x29,116]
	str	w2, [x0,60]
	.loc 1 580 0
	ldr	w2, [x19,14436]
	add	w2, w2, 15
	and	w2, w2, -16
	.loc 1 581 0
	str	w2, [x0,64]
	.loc 1 584 0
	ldr	w2, [x19,14440]
	add	w2, w2, 15
	and	w2, w2, -16
	.loc 1 585 0
	str	w2, [x0,68]
	.loc 1 588 0
	ldr	w2, [x19,14444]
	add	w2, w2, 15
	and	w2, w2, -16
	.loc 1 589 0
	str	w2, [x0,72]
	.loc 1 592 0
	ldr	w2, [x19,14448]
	add	w2, w2, 15
	and	w2, w2, -16
	.loc 1 593 0
	str	w2, [x0,76]
	.loc 1 596 0
	ldr	w2, [x19,14452]
	add	w2, w2, 15
	and	w2, w2, -16
	.loc 1 597 0
	str	w2, [x0,80]
	.loc 1 600 0
	ldr	w2, [x1,1136]
	add	w2, w2, 15
	and	w2, w2, -16
	.loc 1 601 0
	str	w2, [x0,84]
	.loc 1 604 0
	ldr	w2, [x1,1140]
	add	w2, w2, 15
	and	w2, w2, -16
	.loc 1 605 0
	str	w2, [x0,88]
	.loc 1 608 0
	ldr	w2, [x1,1148]
	add	w2, w2, 15
	and	w2, w2, -16
	.loc 1 609 0
	str	w2, [x0,92]
	.loc 1 612 0
	ldr	w2, [x1,1152]
	add	w2, w2, 15
	and	w2, w2, -16
	.loc 1 613 0
	str	w2, [x0,96]
	.loc 1 620 0
	ldr	w2, [x1,1164]
	add	w2, w2, 15
	and	w2, w2, -16
	.loc 1 621 0
	str	w2, [x0,104]
	.loc 1 624 0
	ldrh	w2, [x19,78]
	.loc 1 625 0
	ldrh	w3, [x19,80]
	strh	w3, [x29,118]
	.loc 1 624 0
	strh	w2, [x29,116]
	.loc 1 626 0
	ldr	w2, [x29,116]
	str	w2, [x0,108]
	.loc 1 628 0
	str	wzr, [x29,116]
	.loc 1 630 0
	ldrb	w3, [x19,59]
	.loc 1 631 0
	ldrb	w2, [x19,60]
	.loc 1 629 0
	ldrb	w5, [x19,63]
	.loc 1 630 0
	bfi	w6, w3, 4, 1
	.loc 1 633 0
	ldrb	w4, [x19,62]
	.loc 1 631 0
	bfi	w6, w2, 5, 1
	.loc 1 632 0
	ldrb	w3, [x19,61]
	.loc 1 629 0
	bfi	w10, w5, 1, 3
	.loc 1 632 0
	mov	w2, w6
	.loc 1 633 0
	bfi	w10, w4, 0, 1
	.loc 1 632 0
	bfi	w2, w3, 6, 1
	.loc 1 633 0
	strb	w10, [x29,119]
	.loc 1 632 0
	strb	w2, [x29,118]
	.loc 1 634 0
	ldr	w2, [x29,116]
	str	w2, [x0,112]
	.loc 1 638 0
	ldr	w2, [x19,14456]
	str	w2, [x0,116]
	.loc 1 642 0
	ldr	w2, [x19,14460]
	str	w2, [x0,120]
	.loc 1 646 0
	ldr	w2, [x19,14464]
	str	w2, [x0,124]
	.loc 1 650 0
	ldr	w2, [x19,14468]
	str	w2, [x0,128]
	.loc 1 654 0
	ldr	w2, [x19,14472]
	str	w2, [x0,132]
	.loc 1 658 0
	ldr	w2, [x19,14476]
	str	w2, [x0,136]
	.loc 1 662 0
	ldr	w2, [x19,14480]
	str	w2, [x0,140]
	.loc 1 666 0
	ldr	w2, [x19,14484]
	str	w2, [x0,144]
	.loc 1 669 0
	ldr	w2, [x1,56]
	.loc 1 670 0
	str	w2, [x0,252]
	.loc 1 669 0
	str	w2, [x29,116]
	.loc 1 672 0
	ldr	w0, [x1,1164]
.LVL58:
	bl	MEM_Phy2Vir
.LVL59:
	.loc 1 674 0
	cbz	x0, .L92
	.loc 1 680 0
	ldr	x1, [x19,64]
	mov	x2, 3072
	bl	memcpy
.LVL60:
	.loc 1 685 0
	mov	w0, 0
.L87:
	.loc 1 686 0
	ldr	x2, [x29,120]
	ldr	x1, [x20,#:lo12:__stack_chk_guard]
	cmp	x2, x1
	bne	.L93
	ldp	x19, x20, [sp,16]
	.cfi_remember_state
	.cfi_restore 20
	.cfi_restore 19
.LVL61:
	ldp	x21, x22, [sp,32]
	.cfi_restore 22
	.cfi_restore 21
	ldp	x23, x24, [sp,48]
	.cfi_restore 24
	.cfi_restore 23
	ldp	x25, x26, [sp,64]
	.cfi_restore 26
	.cfi_restore 25
	ldp	x27, x28, [sp,80]
	.cfi_restore 28
	.cfi_restore 27
	ldp	x29, x30, [sp], 128
	.cfi_restore 30
	.cfi_restore 29
	.cfi_def_cfa 31, 0
	ret
.LVL62:
.L91:
	.cfi_restore_state
	.loc 1 465 0
	adrp	x1, .LC0
.LVL63:
	add	x1, x1, :lo12:.LC0
.LVL64:
.L90:
	.loc 1 676 0
	adrp	x2, .LANCHOR0
	add	x2, x2, :lo12:.LANCHOR0
	add	x2, x2, 40
	bl	dprint_linux_kernel
.LVL65:
	.loc 1 677 0
	mov	w0, -1
	b	.L87
.L92:
	.loc 1 676 0
	adrp	x1, .LC9
	add	x1, x1, :lo12:.LC9
	b	.L90
.L93:
	.loc 1 686 0
	bl	__stack_chk_fail
.LVL66:
	.cfi_endproc
.LFE2118:
	.size	VC1HAL_CfgDnMsg, .-VC1HAL_CfgDnMsg
	.align	2
	.global	VC1HAL_StartDec
	.type	VC1HAL_StartDec, %function
VC1HAL_StartDec:
.LFB2115:
	.loc 1 27 0
	.cfi_startproc
.LVL67:
	stp	x29, x30, [sp, -64]!
	.cfi_def_cfa_offset 64
	.cfi_offset 29, -64
	.cfi_offset 30, -56
	sxtw	x1, w1
.LVL68:
	add	x29, sp, 0
	.cfi_def_cfa_register 29
	stp	x19, x20, [sp,16]
.LVL69:
	.cfi_offset 19, -48
	.cfi_offset 20, -40
	.loc 1 28 0
	lsl	x19, x1, 4
	.loc 1 27 0
	str	x23, [sp,48]
	.loc 1 28 0
	add	x19, x19, x1, lsl 2
	.loc 1 32 0
	cmp	w1, wzr
	.loc 1 27 0
	stp	x21, x22, [sp,32]
	.cfi_offset 23, -16
	.cfi_offset 21, -32
	.cfi_offset 22, -24
	.loc 1 28 0
	sub	x19, x19, x1
	adrp	x21, g_HwMem
	add	x21, x21, :lo12:g_HwMem
	lsl	x19, x19, 6
	.loc 1 27 0
	mov	x23, x1
.LVL70:
	mov	x20, x0
	.loc 1 28 0
	add	x22, x19, x21
.LVL71:
	.loc 1 32 0
	bgt	.L103
	.loc 1 39 0
	cbz	x0, .L104
	.loc 1 40 0
	ldrh	w0, [x0,82]
	cmp	w0, 512
	bhi	.L105
	.loc 1 41 0
	ldrh	w0, [x20,84]
	cmp	w0, 512
	bhi	.L106
	.loc 1 43 0
	ldr	w0, [x22,52]
	bl	MEM_Phy2Vir
.LVL72:
	.loc 1 44 0
	cbz	x0, .L107
	.loc 1 46 0
	ldr	x0, [x21,x19]
	cbz	x0, .L108
.LVL73:
.L101:
	.loc 1 59 0
	mov	x0, x20
.LVL74:
	mov	x1, x22
	bl	VC1HAL_CfgSliceMsg
.LVL75:
	.loc 1 60 0
	mov	x1, x22
.LVL76:
	mov	w2, w23
	mov	x0, x20
	bl	VC1HAL_CfgReg
.LVL77:
	.loc 1 61 0
	mov	x0, x20
	mov	x1, x22
	bl	VC1HAL_CfgDnMsg
.LVL78:
	.loc 1 63 0
	mov	w0, 0
.L96:
	.loc 1 64 0
	ldp	x19, x20, [sp,16]
	.cfi_remember_state
	.cfi_restore 20
	.cfi_restore 19
.LVL79:
	ldp	x21, x22, [sp,32]
	.cfi_restore 22
	.cfi_restore 21
.LVL80:
	ldr	x23, [sp,48]
	.cfi_restore 23
.LVL81:
	ldp	x29, x30, [sp], 64
	.cfi_restore 30
	.cfi_restore 29
	.cfi_def_cfa 31, 0
	ret
.LVL82:
.L108:
	.cfi_restore_state
	.loc 1 48 0
	adrp	x0, gVdhRegBaseAddr
	ldr	w0, [x0,#:lo12:gVdhRegBaseAddr]
	bl	MEM_Phy2Vir
.LVL83:
	cbz	x0, .L102
	.loc 1 50 0
	str	x0, [x21,x19]
	b	.L101
.LVL84:
.L103:
	.loc 1 34 0
	adrp	x2, .LANCHOR0
	adrp	x1, .LC8
	add	x2, x2, :lo12:.LANCHOR0
	mov	w0, 0
	add	x1, x1, :lo12:.LC8
	add	x2, x2, 56
.LVL85:
	mov	w3, w23
	mov	w4, 0
	bl	dprint_linux_kernel
.LVL86:
	.loc 1 35 0
	mov	w0, -1
	b	.L96
.LVL87:
.L106:
	.loc 1 41 0 discriminator 1
	adrp	x2, .LANCHOR0
	adrp	x1, .LC10
	add	x2, x2, :lo12:.LANCHOR0
	adrp	x4, .LC13
	mov	w0, 0
	add	x1, x1, :lo12:.LC10
	add	x2, x2, 56
	mov	w3, 41
	add	x4, x4, :lo12:.LC13
	bl	dprint_linux_kernel
.LVL88:
	mov	w0, -1
	.loc 1 41 0 is_stmt 0
	b	.L96
.L105:
	.loc 1 40 0 is_stmt 1 discriminator 1
	adrp	x2, .LANCHOR0
	adrp	x1, .LC10
	add	x2, x2, :lo12:.LANCHOR0
	adrp	x4, .LC12
	mov	w0, 0
	add	x1, x1, :lo12:.LC10
	add	x2, x2, 56
	mov	w3, 40
	add	x4, x4, :lo12:.LC12
	bl	dprint_linux_kernel
.LVL89:
	mov	w0, -1
	.loc 1 40 0 is_stmt 0
	b	.L96
.LVL90:
.L104:
	.loc 1 39 0 is_stmt 1 discriminator 1
	adrp	x2, .LANCHOR0
	adrp	x1, .LC10
	add	x2, x2, :lo12:.LANCHOR0
	adrp	x4, .LC11
	mov	w0, 0
.LVL91:
	add	x1, x1, :lo12:.LC10
	add	x2, x2, 56
	mov	w3, 39
	add	x4, x4, :lo12:.LC11
	bl	dprint_linux_kernel
.LVL92:
	mov	w0, -1
	.loc 1 39 0 is_stmt 0
	b	.L96
.L107:
	.loc 1 44 0 is_stmt 1 discriminator 1
	adrp	x2, .LANCHOR0
	adrp	x1, .LC10
	add	x2, x2, :lo12:.LANCHOR0
	adrp	x4, .LC14
	add	x1, x1, :lo12:.LC10
	add	x2, x2, 56
	mov	w3, 44
	add	x4, x4, :lo12:.LC14
	bl	dprint_linux_kernel
.LVL93:
	mov	w0, -1
	.loc 1 44 0 is_stmt 0
	b	.L96
.LVL94:
.L102:
	.loc 1 54 0 is_stmt 1
	adrp	x1, .LC15
	mov	w0, 0
.LVL95:
	add	x1, x1, :lo12:.LC15
	bl	dprint_linux_kernel
.LVL96:
	.loc 1 55 0
	mov	w0, -1
	b	.L96
	.cfi_endproc
.LFE2115:
	.size	VC1HAL_StartDec, .-VC1HAL_StartDec
	.section	.rodata
	.align	3
.LANCHOR0 = . + 0
	.type	__func__.37553, %object
	.size	__func__.37553, 19
__func__.37553:
	.string	"VC1HAL_CfgSliceMsg"
	.zero	5
	.type	__func__.37585, %object
	.size	__func__.37585, 14
__func__.37585:
	.string	"VC1HAL_CfgReg"
	.zero	2
	.type	__func__.37593, %object
	.size	__func__.37593, 16
__func__.37593:
	.string	"VC1HAL_CfgDnMsg"
	.type	__func__.37529, %object
	.size	__func__.37529, 16
__func__.37529:
	.string	"VC1HAL_StartDec"
	.section	.rodata.str1.8,"aMS",%progbits,1
	.align	3
.LC0:
	.string	"%s: pMsgBase = NULL\n"
	.zero	3
.LC1:
	.string	"pVc1DecParam->SlcNum = %d\n"
	.zero	5
.LC2:
	.string	"D0 = 0x%08x\n"
	.zero	3
.LC3:
	.string	"D1 = 0x%08x\n"
	.zero	3
.LC4:
	.string	"D2 = 0x%08x\n"
	.zero	3
.LC5:
	.string	"D3 = 0x%08x\n"
	.zero	3
.LC6:
	.string	"D4 = 0x%08x\n"
	.zero	3
.LC7:
	.string	"D63 = 0x%08x\n"
	.zero	2
.LC8:
	.string	"%s: VdhId(%d) > %d\n"
	.zero	4
.LC9:
	.string	"%s: u8Tmp = NULL\n"
	.zero	6
.LC10:
	.string	"%s %d: %s\n"
	.zero	5
.LC11:
	.string	"point of picture para null\n"
	.zero	4
.LC12:
	.string	"picture width out of range"
	.zero	5
.LC13:
	.string	"picture height out of range"
	.zero	4
.LC14:
	.string	"can not map down msg virtual address!"
	.zero	2
.LC15:
	.string	"vdm register virtual address not mapped, reset failed!\n"
	.text
.Letext0:
	.file 2 "/home/jenkins/slave-135/workspace/chipset_component_CHICAGO_B100_Open_Source/component_code/vendor/huawei/extra/build/build_script/austin_kernel_release/kernel/drivers/vcodec/hi_vcodec/vdec/include/hi_type.h"
	.file 3 "/home/jenkins/slave-135/workspace/chipset_component_CHICAGO_B100_Open_Source/component_code/vendor/huawei/extra/build/build_script/austin_kernel_release/kernel/drivers/vcodec/hi_vcodec/vdec/vfmw/vfmw_v4.0/vfmw.h"
	.file 4 "/home/jenkins/slave-135/workspace/chipset_component_CHICAGO_B100_Open_Source/component_code/vendor/huawei/extra/build/build_script/austin_kernel_release/kernel/include/uapi/asm-generic/int-ll64.h"
	.file 5 "/home/jenkins/slave-135/workspace/chipset_component_CHICAGO_B100_Open_Source/component_code/vendor/huawei/extra/build/build_script/austin_kernel_release/kernel/include/asm-generic/int-ll64.h"
	.file 6 "/home/jenkins/slave-135/workspace/chipset_component_CHICAGO_B100_Open_Source/component_code/vendor/huawei/extra/build/build_script/austin_kernel_release/kernel/include/uapi/asm-generic/posix_types.h"
	.file 7 "/home/jenkins/slave-135/workspace/chipset_component_CHICAGO_B100_Open_Source/component_code/vendor/huawei/extra/build/build_script/austin_kernel_release/kernel/include/linux/export.h"
	.file 8 "/home/jenkins/slave-135/workspace/chipset_component_CHICAGO_B100_Open_Source/component_code/vendor/huawei/extra/build/build_script/austin_kernel_release/kernel/include/linux/types.h"
	.file 9 "/home/jenkins/slave-135/workspace/chipset_component_CHICAGO_B100_Open_Source/component_code/vendor/huawei/extra/build/build_script/austin_kernel_release/kernel/include/linux/thread_info.h"
	.file 10 "/home/jenkins/slave-135/workspace/chipset_component_CHICAGO_B100_Open_Source/component_code/vendor/huawei/extra/build/build_script/austin_kernel_release/kernel/include/uapi/linux/time.h"
	.file 11 "/home/jenkins/slave-135/workspace/chipset_component_CHICAGO_B100_Open_Source/component_code/vendor/huawei/extra/build/build_script/austin_kernel_release/kernel/arch/arm64/include/asm/compat.h"
	.file 12 "/home/jenkins/slave-135/workspace/chipset_component_CHICAGO_B100_Open_Source/component_code/vendor/huawei/extra/build/build_script/austin_kernel_release/kernel/include/uapi/asm-generic/poll.h"
	.file 13 "/home/jenkins/slave-135/workspace/chipset_component_CHICAGO_B100_Open_Source/component_code/vendor/huawei/extra/build/build_script/austin_kernel_release/kernel/include/linux/sched.h"
	.file 14 "/home/jenkins/slave-135/workspace/chipset_component_CHICAGO_B100_Open_Source/component_code/vendor/huawei/extra/build/build_script/austin_kernel_release/kernel/arch/arm64/include/uapi/asm/ptrace.h"
	.file 15 "/home/jenkins/slave-135/workspace/chipset_component_CHICAGO_B100_Open_Source/component_code/vendor/huawei/extra/build/build_script/austin_kernel_release/kernel/arch/arm64/include/asm/ptrace.h"
	.file 16 "/home/jenkins/slave-135/workspace/chipset_component_CHICAGO_B100_Open_Source/component_code/vendor/huawei/extra/build/build_script/austin_kernel_release/kernel/arch/arm64/include/asm/spinlock_types.h"
	.file 17 "/home/jenkins/slave-135/workspace/chipset_component_CHICAGO_B100_Open_Source/component_code/vendor/huawei/extra/build/build_script/austin_kernel_release/kernel/include/linux/spinlock_types.h"
	.file 18 "/home/jenkins/slave-135/workspace/chipset_component_CHICAGO_B100_Open_Source/component_code/vendor/huawei/extra/build/build_script/austin_kernel_release/kernel/include/linux/rwlock_types.h"
	.file 19 "/home/jenkins/slave-135/workspace/chipset_component_CHICAGO_B100_Open_Source/component_code/vendor/huawei/extra/build/build_script/austin_kernel_release/kernel/arch/arm64/include/asm/fpsimd.h"
	.file 20 "/home/jenkins/slave-135/workspace/chipset_component_CHICAGO_B100_Open_Source/component_code/vendor/huawei/extra/build/build_script/austin_kernel_release/kernel/arch/arm64/include/asm/hw_breakpoint.h"
	.file 21 "/home/jenkins/slave-135/workspace/chipset_component_CHICAGO_B100_Open_Source/component_code/vendor/huawei/extra/build/build_script/austin_kernel_release/kernel/arch/arm64/include/asm/processor.h"
	.file 22 "/home/jenkins/slave-135/workspace/chipset_component_CHICAGO_B100_Open_Source/component_code/vendor/huawei/extra/build/build_script/austin_kernel_release/kernel/include/linux/perf_event.h"
	.file 23 "/home/jenkins/slave-135/workspace/chipset_component_CHICAGO_B100_Open_Source/component_code/vendor/huawei/extra/build/build_script/austin_kernel_release/kernel/include/asm-generic/atomic-long.h"
	.file 24 "/home/jenkins/slave-135/workspace/chipset_component_CHICAGO_B100_Open_Source/component_code/vendor/huawei/extra/build/build_script/austin_kernel_release/kernel/include/linux/wait.h"
	.file 25 "/home/jenkins/slave-135/workspace/chipset_component_CHICAGO_B100_Open_Source/component_code/vendor/huawei/extra/build/build_script/austin_kernel_release/kernel/include/linux/seqlock.h"
	.file 26 "/home/jenkins/slave-135/workspace/chipset_component_CHICAGO_B100_Open_Source/component_code/vendor/huawei/extra/build/build_script/austin_kernel_release/kernel/include/linux/nodemask.h"
	.file 27 "/home/jenkins/slave-135/workspace/chipset_component_CHICAGO_B100_Open_Source/component_code/vendor/huawei/extra/build/build_script/austin_kernel_release/kernel/arch/arm64/include/asm/pgtable-types.h"
	.file 28 "/home/jenkins/slave-135/workspace/chipset_component_CHICAGO_B100_Open_Source/component_code/vendor/huawei/extra/build/build_script/austin_kernel_release/kernel/include/linux/mm_types.h"
	.file 29 "/home/jenkins/slave-135/workspace/chipset_component_CHICAGO_B100_Open_Source/component_code/vendor/huawei/extra/build/build_script/austin_kernel_release/kernel/include/linux/mmzone.h"
	.file 30 "/home/jenkins/slave-135/workspace/chipset_component_CHICAGO_B100_Open_Source/component_code/vendor/huawei/extra/build/build_script/austin_kernel_release/kernel/include/linux/osq_lock.h"
	.file 31 "/home/jenkins/slave-135/workspace/chipset_component_CHICAGO_B100_Open_Source/component_code/vendor/huawei/extra/build/build_script/austin_kernel_release/kernel/include/linux/mutex.h"
	.file 32 "/home/jenkins/slave-135/workspace/chipset_component_CHICAGO_B100_Open_Source/component_code/vendor/huawei/extra/build/build_script/austin_kernel_release/kernel/include/linux/rwsem.h"
	.file 33 "/home/jenkins/slave-135/workspace/chipset_component_CHICAGO_B100_Open_Source/component_code/vendor/huawei/extra/build/build_script/austin_kernel_release/kernel/include/linux/cpumask.h"
	.file 34 "/home/jenkins/slave-135/workspace/chipset_component_CHICAGO_B100_Open_Source/component_code/vendor/huawei/extra/build/build_script/austin_kernel_release/kernel/include/linux/completion.h"
	.file 35 "/home/jenkins/slave-135/workspace/chipset_component_CHICAGO_B100_Open_Source/component_code/vendor/huawei/extra/build/build_script/austin_kernel_release/kernel/include/linux/ktime.h"
	.file 36 "/home/jenkins/slave-135/workspace/chipset_component_CHICAGO_B100_Open_Source/component_code/vendor/huawei/extra/build/build_script/austin_kernel_release/kernel/include/linux/timer.h"
	.file 37 "/home/jenkins/slave-135/workspace/chipset_component_CHICAGO_B100_Open_Source/component_code/vendor/huawei/extra/build/build_script/austin_kernel_release/kernel/include/linux/workqueue.h"
	.file 38 "/home/jenkins/slave-135/workspace/chipset_component_CHICAGO_B100_Open_Source/component_code/vendor/huawei/extra/build/build_script/austin_kernel_release/kernel/include/linux/llist.h"
	.file 39 "/home/jenkins/slave-135/workspace/chipset_component_CHICAGO_B100_Open_Source/component_code/vendor/huawei/extra/build/build_script/austin_kernel_release/kernel/include/linux/rbtree.h"
	.file 40 "/home/jenkins/slave-135/workspace/chipset_component_CHICAGO_B100_Open_Source/component_code/vendor/huawei/extra/build/build_script/austin_kernel_release/kernel/include/linux/lockdep.h"
	.file 41 "/home/jenkins/slave-135/workspace/chipset_component_CHICAGO_B100_Open_Source/component_code/vendor/huawei/extra/build/build_script/austin_kernel_release/kernel/include/linux/uprobes.h"
	.file 42 "/home/jenkins/slave-135/workspace/chipset_component_CHICAGO_B100_Open_Source/component_code/vendor/huawei/extra/build/build_script/austin_kernel_release/kernel/arch/arm64/include/asm/mmu.h"
	.file 43 "/home/jenkins/slave-135/workspace/chipset_component_CHICAGO_B100_Open_Source/component_code/vendor/huawei/extra/build/build_script/austin_kernel_release/kernel/include/linux/fs.h"
	.file 44 "/home/jenkins/slave-135/workspace/chipset_component_CHICAGO_B100_Open_Source/component_code/vendor/huawei/extra/build/build_script/austin_kernel_release/kernel/include/linux/mm.h"
	.file 45 "/home/jenkins/slave-135/workspace/chipset_component_CHICAGO_B100_Open_Source/component_code/vendor/huawei/extra/build/build_script/austin_kernel_release/kernel/include/linux/shrinker.h"
	.file 46 "/home/jenkins/slave-135/workspace/chipset_component_CHICAGO_B100_Open_Source/component_code/vendor/huawei/extra/build/build_script/austin_kernel_release/kernel/include/uapi/linux/resource.h"
	.file 47 "/home/jenkins/slave-135/workspace/chipset_component_CHICAGO_B100_Open_Source/component_code/vendor/huawei/extra/build/build_script/austin_kernel_release/kernel/include/linux/vmstat.h"
	.file 48 "/home/jenkins/slave-135/workspace/chipset_component_CHICAGO_B100_Open_Source/component_code/vendor/huawei/extra/build/build_script/austin_kernel_release/kernel/include/linux/capability.h"
	.file 49 "/home/jenkins/slave-135/workspace/chipset_component_CHICAGO_B100_Open_Source/component_code/vendor/huawei/extra/build/build_script/austin_kernel_release/kernel/include/linux/plist.h"
	.file 50 "/home/jenkins/slave-135/workspace/chipset_component_CHICAGO_B100_Open_Source/component_code/vendor/huawei/extra/build/build_script/austin_kernel_release/kernel/include/asm-generic/cputime_jiffies.h"
	.file 51 "/home/jenkins/slave-135/workspace/chipset_component_CHICAGO_B100_Open_Source/component_code/vendor/huawei/extra/build/build_script/austin_kernel_release/kernel/include/linux/uidgid.h"
	.file 52 "/home/jenkins/slave-135/workspace/chipset_component_CHICAGO_B100_Open_Source/component_code/vendor/huawei/extra/build/build_script/austin_kernel_release/kernel/include/linux/sem.h"
	.file 53 "/home/jenkins/slave-135/workspace/chipset_component_CHICAGO_B100_Open_Source/component_code/vendor/huawei/extra/build/build_script/austin_kernel_release/kernel/include/linux/shm.h"
	.file 54 "/home/jenkins/slave-135/workspace/chipset_component_CHICAGO_B100_Open_Source/component_code/vendor/huawei/extra/build/build_script/austin_kernel_release/kernel/include/uapi/asm-generic/signal.h"
	.file 55 "/home/jenkins/slave-135/workspace/chipset_component_CHICAGO_B100_Open_Source/component_code/vendor/huawei/extra/build/build_script/austin_kernel_release/kernel/include/uapi/asm-generic/signal-defs.h"
	.file 56 "/home/jenkins/slave-135/workspace/chipset_component_CHICAGO_B100_Open_Source/component_code/vendor/huawei/extra/build/build_script/austin_kernel_release/kernel/include/uapi/asm-generic/siginfo.h"
	.file 57 "/home/jenkins/slave-135/workspace/chipset_component_CHICAGO_B100_Open_Source/component_code/vendor/huawei/extra/build/build_script/austin_kernel_release/kernel/include/linux/signal.h"
	.file 58 "/home/jenkins/slave-135/workspace/chipset_component_CHICAGO_B100_Open_Source/component_code/vendor/huawei/extra/build/build_script/austin_kernel_release/kernel/include/linux/pid.h"
	.file 59 "/home/jenkins/slave-135/workspace/chipset_component_CHICAGO_B100_Open_Source/component_code/vendor/huawei/extra/build/build_script/austin_kernel_release/kernel/include/linux/pid_namespace.h"
	.file 60 "/home/jenkins/slave-135/workspace/chipset_component_CHICAGO_B100_Open_Source/component_code/vendor/huawei/extra/build/build_script/austin_kernel_release/kernel/include/linux/percpu_counter.h"
	.file 61 "/home/jenkins/slave-135/workspace/chipset_component_CHICAGO_B100_Open_Source/component_code/vendor/huawei/extra/build/build_script/austin_kernel_release/kernel/include/linux/seccomp.h"
	.file 62 "/home/jenkins/slave-135/workspace/chipset_component_CHICAGO_B100_Open_Source/component_code/vendor/huawei/extra/build/build_script/austin_kernel_release/kernel/include/linux/timerqueue.h"
	.file 63 "/home/jenkins/slave-135/workspace/chipset_component_CHICAGO_B100_Open_Source/component_code/vendor/huawei/extra/build/build_script/austin_kernel_release/kernel/include/linux/hrtimer.h"
	.file 64 "/home/jenkins/slave-135/workspace/chipset_component_CHICAGO_B100_Open_Source/component_code/vendor/huawei/extra/build/build_script/austin_kernel_release/kernel/include/linux/task_io_accounting.h"
	.file 65 "/home/jenkins/slave-135/workspace/chipset_component_CHICAGO_B100_Open_Source/component_code/vendor/huawei/extra/build/build_script/austin_kernel_release/kernel/include/linux/nsproxy.h"
	.file 66 "/home/jenkins/slave-135/workspace/chipset_component_CHICAGO_B100_Open_Source/component_code/vendor/huawei/extra/build/build_script/austin_kernel_release/kernel/include/linux/assoc_array.h"
	.file 67 "/home/jenkins/slave-135/workspace/chipset_component_CHICAGO_B100_Open_Source/component_code/vendor/huawei/extra/build/build_script/austin_kernel_release/kernel/include/linux/key.h"
	.file 68 "/home/jenkins/slave-135/workspace/chipset_component_CHICAGO_B100_Open_Source/component_code/vendor/huawei/extra/build/build_script/austin_kernel_release/kernel/include/linux/cred.h"
	.file 69 "/home/jenkins/slave-135/workspace/chipset_component_CHICAGO_B100_Open_Source/component_code/vendor/huawei/extra/build/build_script/austin_kernel_release/kernel/include/uapi/linux/taskstats.h"
	.file 70 "/home/jenkins/slave-135/workspace/chipset_component_CHICAGO_B100_Open_Source/component_code/vendor/huawei/extra/build/build_script/austin_kernel_release/kernel/include/linux/cgroup-defs.h"
	.file 71 "/home/jenkins/slave-135/workspace/chipset_component_CHICAGO_B100_Open_Source/component_code/vendor/huawei/extra/build/build_script/austin_kernel_release/kernel/include/linux/compat.h"
	.file 72 "/home/jenkins/slave-135/workspace/chipset_component_CHICAGO_B100_Open_Source/component_code/vendor/huawei/extra/build/build_script/austin_kernel_release/kernel/include/linux/kref.h"
	.file 73 "/home/jenkins/slave-135/workspace/chipset_component_CHICAGO_B100_Open_Source/component_code/vendor/huawei/extra/build/build_script/austin_kernel_release/kernel/include/linux/ns_common.h"
	.file 74 "/home/jenkins/slave-135/workspace/chipset_component_CHICAGO_B100_Open_Source/component_code/vendor/huawei/extra/build/build_script/austin_kernel_release/kernel/include/linux/dcache.h"
	.file 75 "/home/jenkins/slave-135/workspace/chipset_component_CHICAGO_B100_Open_Source/component_code/vendor/huawei/extra/build/build_script/austin_kernel_release/kernel/include/linux/stat.h"
	.file 76 "/home/jenkins/slave-135/workspace/chipset_component_CHICAGO_B100_Open_Source/component_code/vendor/huawei/extra/build/build_script/austin_kernel_release/kernel/include/uapi/linux/elf.h"
	.file 77 "/home/jenkins/slave-135/workspace/chipset_component_CHICAGO_B100_Open_Source/component_code/vendor/huawei/extra/build/build_script/austin_kernel_release/kernel/include/linux/idr.h"
	.file 78 "/home/jenkins/slave-135/workspace/chipset_component_CHICAGO_B100_Open_Source/component_code/vendor/huawei/extra/build/build_script/austin_kernel_release/kernel/include/linux/kernfs.h"
	.file 79 "/home/jenkins/slave-135/workspace/chipset_component_CHICAGO_B100_Open_Source/component_code/vendor/huawei/extra/build/build_script/austin_kernel_release/kernel/include/linux/seq_file.h"
	.file 80 "/home/jenkins/slave-135/workspace/chipset_component_CHICAGO_B100_Open_Source/component_code/vendor/huawei/extra/build/build_script/austin_kernel_release/kernel/include/linux/kobject_ns.h"
	.file 81 "/home/jenkins/slave-135/workspace/chipset_component_CHICAGO_B100_Open_Source/component_code/vendor/huawei/extra/build/build_script/austin_kernel_release/kernel/include/linux/sysfs.h"
	.file 82 "/home/jenkins/slave-135/workspace/chipset_component_CHICAGO_B100_Open_Source/component_code/vendor/huawei/extra/build/build_script/austin_kernel_release/kernel/include/linux/kobject.h"
	.file 83 "/home/jenkins/slave-135/workspace/chipset_component_CHICAGO_B100_Open_Source/component_code/vendor/huawei/extra/build/build_script/austin_kernel_release/kernel/include/linux/moduleparam.h"
	.file 84 "/home/jenkins/slave-135/workspace/chipset_component_CHICAGO_B100_Open_Source/component_code/vendor/huawei/extra/build/build_script/austin_kernel_release/kernel/include/linux/jump_label.h"
	.file 85 "/home/jenkins/slave-135/workspace/chipset_component_CHICAGO_B100_Open_Source/component_code/vendor/huawei/extra/build/build_script/austin_kernel_release/kernel/include/asm-generic/module.h"
	.file 86 "/home/jenkins/slave-135/workspace/chipset_component_CHICAGO_B100_Open_Source/component_code/vendor/huawei/extra/build/build_script/austin_kernel_release/kernel/include/linux/module.h"
	.file 87 "/home/jenkins/slave-135/workspace/chipset_component_CHICAGO_B100_Open_Source/component_code/vendor/huawei/extra/build/build_script/austin_kernel_release/kernel/arch/arm64/include/asm/uaccess.h"
	.file 88 "/home/jenkins/slave-135/workspace/chipset_component_CHICAGO_B100_Open_Source/component_code/vendor/huawei/extra/build/build_script/austin_kernel_release/kernel/include/linux/tracepoint.h"
	.file 89 "/home/jenkins/slave-135/workspace/chipset_component_CHICAGO_B100_Open_Source/component_code/vendor/huawei/extra/build/build_script/austin_kernel_release/kernel/include/linux/ftrace_event.h"
	.file 90 "/home/jenkins/slave-135/workspace/chipset_component_CHICAGO_B100_Open_Source/component_code/vendor/huawei/extra/build/build_script/austin_kernel_release/kernel/include/linux/quota.h"
	.file 91 "/home/jenkins/slave-135/workspace/chipset_component_CHICAGO_B100_Open_Source/component_code/vendor/huawei/extra/build/build_script/austin_kernel_release/kernel/include/linux/projid.h"
	.file 92 "/home/jenkins/slave-135/workspace/chipset_component_CHICAGO_B100_Open_Source/component_code/vendor/huawei/extra/build/build_script/austin_kernel_release/kernel/include/linux/path.h"
	.file 93 "/home/jenkins/slave-135/workspace/chipset_component_CHICAGO_B100_Open_Source/component_code/vendor/huawei/extra/build/build_script/austin_kernel_release/kernel/include/linux/list_bl.h"
	.file 94 "/home/jenkins/slave-135/workspace/chipset_component_CHICAGO_B100_Open_Source/component_code/vendor/huawei/extra/build/build_script/austin_kernel_release/kernel/include/linux/lockref.h"
	.file 95 "/home/jenkins/slave-135/workspace/chipset_component_CHICAGO_B100_Open_Source/component_code/vendor/huawei/extra/build/build_script/austin_kernel_release/kernel/include/linux/list_lru.h"
	.file 96 "/home/jenkins/slave-135/workspace/chipset_component_CHICAGO_B100_Open_Source/component_code/vendor/huawei/extra/build/build_script/austin_kernel_release/kernel/include/linux/radix-tree.h"
	.file 97 "/home/jenkins/slave-135/workspace/chipset_component_CHICAGO_B100_Open_Source/component_code/vendor/huawei/extra/build/build_script/austin_kernel_release/kernel/include/uapi/linux/fiemap.h"
	.file 98 "/home/jenkins/slave-135/workspace/chipset_component_CHICAGO_B100_Open_Source/component_code/vendor/huawei/extra/build/build_script/austin_kernel_release/kernel/include/linux/migrate_mode.h"
	.file 99 "/home/jenkins/slave-135/workspace/chipset_component_CHICAGO_B100_Open_Source/component_code/vendor/huawei/extra/build/build_script/austin_kernel_release/kernel/include/linux/blk_types.h"
	.file 100 "/home/jenkins/slave-135/workspace/chipset_component_CHICAGO_B100_Open_Source/component_code/vendor/huawei/extra/build/build_script/austin_kernel_release/kernel/include/linux/uio.h"
	.file 101 "/home/jenkins/slave-135/workspace/chipset_component_CHICAGO_B100_Open_Source/component_code/vendor/huawei/extra/build/build_script/austin_kernel_release/kernel/include/linux/nfs_fs_i.h"
	.file 102 "/home/jenkins/slave-135/workspace/chipset_component_CHICAGO_B100_Open_Source/component_code/vendor/huawei/extra/build/build_script/austin_kernel_release/kernel/include/linux/poll.h"
	.file 103 "/home/jenkins/slave-135/workspace/chipset_component_CHICAGO_B100_Open_Source/component_code/vendor/huawei/extra/build/build_script/austin_kernel_release/kernel/include/linux/seq_buf.h"
	.file 104 "/home/jenkins/slave-135/workspace/chipset_component_CHICAGO_B100_Open_Source/component_code/vendor/huawei/extra/build/build_script/austin_kernel_release/kernel/include/linux/trace_seq.h"
	.file 105 "/home/jenkins/slave-135/workspace/chipset_component_CHICAGO_B100_Open_Source/component_code/vendor/huawei/extra/build/build_script/austin_kernel_release/kernel/include/uapi/linux/perf_event.h"
	.file 106 "/home/jenkins/slave-135/workspace/chipset_component_CHICAGO_B100_Open_Source/component_code/vendor/huawei/extra/build/build_script/austin_kernel_release/kernel/include/asm-generic/local.h"
	.file 107 "/home/jenkins/slave-135/workspace/chipset_component_CHICAGO_B100_Open_Source/component_code/vendor/huawei/extra/build/build_script/austin_kernel_release/kernel/include/asm-generic/local64.h"
	.file 108 "/home/jenkins/slave-135/workspace/chipset_component_CHICAGO_B100_Open_Source/component_code/vendor/huawei/extra/build/build_script/austin_kernel_release/kernel/include/uapi/linux/uio.h"
	.file 109 "/home/jenkins/slave-135/workspace/chipset_component_CHICAGO_B100_Open_Source/component_code/vendor/huawei/extra/build/build_script/austin_kernel_release/kernel/include/linux/klist.h"
	.file 110 "/home/jenkins/slave-135/workspace/chipset_component_CHICAGO_B100_Open_Source/component_code/vendor/huawei/extra/build/build_script/austin_kernel_release/kernel/include/linux/pinctrl/devinfo.h"
	.file 111 "/home/jenkins/slave-135/workspace/chipset_component_CHICAGO_B100_Open_Source/component_code/vendor/huawei/extra/build/build_script/austin_kernel_release/kernel/include/linux/pm.h"
	.file 112 "/home/jenkins/slave-135/workspace/chipset_component_CHICAGO_B100_Open_Source/component_code/vendor/huawei/extra/build/build_script/austin_kernel_release/kernel/include/linux/device.h"
	.file 113 "/home/jenkins/slave-135/workspace/chipset_component_CHICAGO_B100_Open_Source/component_code/vendor/huawei/extra/build/build_script/austin_kernel_release/kernel/include/linux/pm_wakeup.h"
	.file 114 "/home/jenkins/slave-135/workspace/chipset_component_CHICAGO_B100_Open_Source/component_code/vendor/huawei/extra/build/build_script/austin_kernel_release/kernel/arch/arm64/include/asm/device.h"
	.file 115 "/home/jenkins/slave-135/workspace/chipset_component_CHICAGO_B100_Open_Source/component_code/vendor/huawei/extra/build/build_script/austin_kernel_release/kernel/include/linux/irq_work.h"
	.file 116 "/home/jenkins/slave-135/workspace/chipset_component_CHICAGO_B100_Open_Source/component_code/vendor/huawei/extra/build/build_script/austin_kernel_release/kernel/include/linux/jump_label_ratelimit.h"
	.file 117 "/home/jenkins/slave-135/workspace/chipset_component_CHICAGO_B100_Open_Source/component_code/vendor/huawei/extra/build/build_script/austin_kernel_release/kernel/include/linux/perf_regs.h"
	.file 118 "/home/jenkins/slave-135/workspace/chipset_component_CHICAGO_B100_Open_Source/component_code/vendor/huawei/extra/build/build_script/austin_kernel_release/kernel/include/linux/percpu-refcount.h"
	.file 119 "/home/jenkins/slave-135/workspace/chipset_component_CHICAGO_B100_Open_Source/component_code/vendor/huawei/extra/build/build_script/austin_kernel_release/kernel/drivers/vcodec/hi_vcodec/vdec/vfmw/vfmw_v4.0/firmware/common/mem_manage.h"
	.file 120 "/home/jenkins/slave-135/workspace/chipset_component_CHICAGO_B100_Open_Source/component_code/vendor/huawei/extra/build/build_script/austin_kernel_release/kernel/drivers/vcodec/hi_vcodec/vdec/vfmw/vfmw_v4.0/firmware/driver/HiSCDV200/scd_drv.h"
	.file 121 "/home/jenkins/slave-135/workspace/chipset_component_CHICAGO_B100_Open_Source/component_code/vendor/huawei/extra/build/build_script/austin_kernel_release/kernel/drivers/vcodec/hi_vcodec/vdec/vfmw/vfmw_v4.0/firmware/common/decparam.h"
	.file 122 "/home/jenkins/slave-135/workspace/chipset_component_CHICAGO_B100_Open_Source/component_code/vendor/huawei/extra/build/build_script/austin_kernel_release/kernel/drivers/vcodec/hi_vcodec/vdec/vfmw/vfmw_v4.0/firmware/common/vdm_drv.h"
	.file 123 "/home/jenkins/slave-135/workspace/chipset_component_CHICAGO_B100_Open_Source/component_code/vendor/huawei/extra/build/build_script/austin_kernel_release/kernel/drivers/vcodec/hi_vcodec/vdec/vfmw/vfmw_v4.0/firmware/common/vdm_hal.h"
	.file 124 "/home/jenkins/slave-135/workspace/chipset_component_CHICAGO_B100_Open_Source/component_code/vendor/huawei/extra/build/build_script/austin_kernel_release/kernel/drivers/vcodec/hi_vcodec/vdec/vfmw/vfmw_v4.0/firmware/common/public.h"
	.file 125 "/home/jenkins/slave-135/workspace/chipset_component_CHICAGO_B100_Open_Source/component_code/vendor/huawei/extra/build/build_script/austin_kernel_release/kernel/drivers/vcodec/hi_vcodec/vdec/vfmw/vfmw_v4.0/firmware/driver/HiVDHV400R004/vdm_hal_local.h"
	.file 126 "/home/jenkins/slave-135/workspace/chipset_component_CHICAGO_B100_Open_Source/component_code/vendor/huawei/extra/build/build_script/austin_kernel_release/kernel/drivers/vcodec/hi_vcodec/vdec/vfmw/vfmw_v4.0/firmware/common/syn_cmn.h"
	.file 127 "/home/jenkins/slave-135/workspace/chipset_component_CHICAGO_B100_Open_Source/component_code/vendor/huawei/extra/build/build_script/austin_kernel_release/kernel/drivers/vcodec/hi_vcodec/vdec/vfmw/vfmw_v4.0/firmware/common/fsp.h"
	.file 128 "/home/jenkins/slave-135/workspace/chipset_component_CHICAGO_B100_Open_Source/component_code/vendor/huawei/extra/build/build_script/austin_kernel_release/kernel/drivers/vcodec/hi_vcodec/vdec/vfmw/vfmw_v4.0/firmware/common/bitstream.h"
	.file 129 "/home/jenkins/slave-135/workspace/chipset_component_CHICAGO_B100_Open_Source/component_code/vendor/huawei/extra/build/build_script/austin_kernel_release/kernel/drivers/vcodec/hi_vcodec/vdec/vfmw/vfmw_v4.0/firmware/common/syntax/mpeg2.h"
	.file 130 "/home/jenkins/slave-135/workspace/chipset_component_CHICAGO_B100_Open_Source/component_code/vendor/huawei/extra/build/build_script/austin_kernel_release/kernel/drivers/vcodec/hi_vcodec/vdec/vfmw/vfmw_v4.0/firmware/common/syntax/mpeg4.h"
	.file 131 "/home/jenkins/slave-135/workspace/chipset_component_CHICAGO_B100_Open_Source/component_code/vendor/huawei/extra/build/build_script/austin_kernel_release/kernel/drivers/vcodec/hi_vcodec/vdec/vfmw/vfmw_v4.0/firmware/common/syntax/h264.h"
	.file 132 "/home/jenkins/slave-135/workspace/chipset_component_CHICAGO_B100_Open_Source/component_code/vendor/huawei/extra/build/build_script/austin_kernel_release/kernel/drivers/vcodec/hi_vcodec/vdec/vfmw/vfmw_v4.0/firmware/common/syntax/hevc.h"
	.file 133 "/home/jenkins/slave-135/workspace/chipset_component_CHICAGO_B100_Open_Source/component_code/vendor/huawei/extra/build/build_script/austin_kernel_release/kernel/drivers/vcodec/hi_vcodec/vdec/vfmw/vfmw_v4.0/firmware/common/syntax/vc1.h"
	.file 134 "/home/jenkins/slave-135/workspace/chipset_component_CHICAGO_B100_Open_Source/component_code/vendor/huawei/extra/build/build_script/austin_kernel_release/kernel/drivers/vcodec/hi_vcodec/vdec/vfmw/vfmw_v4.0/firmware/common/syntax/real8.h"
	.file 135 "/home/jenkins/slave-135/workspace/chipset_component_CHICAGO_B100_Open_Source/component_code/vendor/huawei/extra/build/build_script/austin_kernel_release/kernel/drivers/vcodec/hi_vcodec/vdec/vfmw/vfmw_v4.0/firmware/common/syntax/real9.h"
	.file 136 "/home/jenkins/slave-135/workspace/chipset_component_CHICAGO_B100_Open_Source/component_code/vendor/huawei/extra/build/build_script/austin_kernel_release/kernel/drivers/vcodec/hi_vcodec/vdec/vfmw/vfmw_v4.0/firmware/common/syntax/divx3.h"
	.file 137 "/home/jenkins/slave-135/workspace/chipset_component_CHICAGO_B100_Open_Source/component_code/vendor/huawei/extra/build/build_script/austin_kernel_release/kernel/drivers/vcodec/hi_vcodec/vdec/vfmw/vfmw_v4.0/firmware/common/syntax/vp6.h"
	.file 138 "/home/jenkins/slave-135/workspace/chipset_component_CHICAGO_B100_Open_Source/component_code/vendor/huawei/extra/build/build_script/austin_kernel_release/kernel/drivers/vcodec/hi_vcodec/vdec/vfmw/vfmw_v4.0/firmware/common/syntax/vp8.h"
	.file 139 "/home/jenkins/slave-135/workspace/chipset_component_CHICAGO_B100_Open_Source/component_code/vendor/huawei/extra/build/build_script/austin_kernel_release/kernel/drivers/vcodec/hi_vcodec/vdec/vfmw/vfmw_v4.0/firmware/common/syntax/syntax.h"
	.file 140 "/home/jenkins/slave-135/workspace/chipset_component_CHICAGO_B100_Open_Source/component_code/vendor/huawei/extra/build/build_script/austin_kernel_release/kernel/drivers/vcodec/hi_vcodec/vdec/vfmw/vfmw_v4.0/firmware/common/vfmw_ctrl.h"
	.file 141 "/home/jenkins/slave-135/workspace/chipset_component_CHICAGO_B100_Open_Source/component_code/vendor/huawei/extra/build/build_script/austin_kernel_release/kernel/drivers/vcodec/hi_vcodec/vdec/vfmw/vfmw_v4.0/firmware/driver/HiVDHV400R004/vdm_hal_vc1.h"
	.file 142 "/home/jenkins/slave-135/workspace/chipset_component_CHICAGO_B100_Open_Source/component_code/vendor/huawei/extra/build/build_script/austin_kernel_release/kernel/drivers/vcodec/hi_vcodec/vdec/vfmw/vfmw_v4.0/firmware/product/HiVCodecV100/sysconfig.h"
	.file 143 "/home/jenkins/slave-135/workspace/chipset_component_CHICAGO_B100_Open_Source/component_code/vendor/huawei/extra/build/build_script/austin_kernel_release/kernel/arch/arm64/include/asm/cachetype.h"
	.file 144 "/home/jenkins/slave-135/workspace/chipset_component_CHICAGO_B100_Open_Source/component_code/vendor/huawei/extra/build/build_script/austin_kernel_release/kernel/include/linux/printk.h"
	.file 145 "/home/jenkins/slave-135/workspace/chipset_component_CHICAGO_B100_Open_Source/component_code/vendor/huawei/extra/build/build_script/austin_kernel_release/kernel/include/linux/kernel.h"
	.file 146 "/home/jenkins/slave-135/workspace/chipset_component_CHICAGO_B100_Open_Source/component_code/vendor/huawei/extra/build/build_script/austin_kernel_release/kernel/arch/arm64/include/asm/thread_info.h"
	.file 147 "/home/jenkins/slave-135/workspace/chipset_component_CHICAGO_B100_Open_Source/component_code/vendor/huawei/extra/build/build_script/austin_kernel_release/kernel/include/chipset_common/kernel_harden/kaslr.h"
	.file 148 "/home/jenkins/slave-135/workspace/chipset_component_CHICAGO_B100_Open_Source/component_code/vendor/huawei/extra/build/build_script/austin_kernel_release/kernel/arch/arm64/include/asm/hwcap.h"
	.file 149 "/home/jenkins/slave-135/workspace/chipset_component_CHICAGO_B100_Open_Source/component_code/vendor/huawei/extra/build/build_script/austin_kernel_release/kernel/arch/arm64/include/asm/memory.h"
	.file 150 "/home/jenkins/slave-135/workspace/chipset_component_CHICAGO_B100_Open_Source/component_code/vendor/huawei/extra/build/build_script/austin_kernel_release/kernel/include/linux/jiffies.h"
	.file 151 "/home/jenkins/slave-135/workspace/chipset_component_CHICAGO_B100_Open_Source/component_code/vendor/huawei/extra/build/build_script/austin_kernel_release/kernel/arch/arm64/include/asm/smp.h"
	.file 152 "/home/jenkins/slave-135/workspace/chipset_component_CHICAGO_B100_Open_Source/component_code/vendor/huawei/extra/build/build_script/austin_kernel_release/kernel/include/asm-generic/percpu.h"
	.file 153 "/home/jenkins/slave-135/workspace/chipset_component_CHICAGO_B100_Open_Source/component_code/vendor/huawei/extra/build/build_script/austin_kernel_release/kernel/include/linux/debug_locks.h"
	.file 154 "/home/jenkins/slave-135/workspace/chipset_component_CHICAGO_B100_Open_Source/component_code/vendor/huawei/extra/build/build_script/austin_kernel_release/kernel/include/asm-generic/pgtable.h"
	.file 155 "/home/jenkins/slave-135/workspace/chipset_component_CHICAGO_B100_Open_Source/component_code/vendor/huawei/extra/build/build_script/austin_kernel_release/kernel/include/linux/highuid.h"
	.file 156 "/home/jenkins/slave-135/workspace/chipset_component_CHICAGO_B100_Open_Source/component_code/vendor/huawei/extra/build/build_script/austin_kernel_release/kernel/arch/arm64/include/asm/cpufeature.h"
	.file 157 "/home/jenkins/slave-135/workspace/chipset_component_CHICAGO_B100_Open_Source/component_code/vendor/huawei/extra/build/build_script/austin_kernel_release/kernel/arch/arm64/include/asm/hardirq.h"
	.file 158 "/home/jenkins/slave-135/workspace/chipset_component_CHICAGO_B100_Open_Source/component_code/vendor/huawei/extra/build/build_script/austin_kernel_release/kernel/include/linux/cgroup.h"
	.file 159 "/home/jenkins/slave-135/workspace/chipset_component_CHICAGO_B100_Open_Source/component_code/vendor/huawei/extra/build/build_script/austin_kernel_release/kernel/include/linux/slab.h"
	.file 160 "/home/jenkins/slave-135/workspace/chipset_component_CHICAGO_B100_Open_Source/component_code/vendor/huawei/extra/build/build_script/austin_kernel_release/kernel/include/linux/interrupt.h"
	.section	.note.GNU-stack,"",%progbits
