	.cpu generic+fp+simd
	.file	"mem_manage.c"
	.text
.Ltext0:
	.cfi_sections	.debug_frame
#APP
	.irp	num,0,1,2,3,4,5,6,7,8,9,10,11,12,13,14,15,16,17,18,19,20,21,22,23,24,25,26,27,28,29,30
	.equ	__reg_num_x\num, \num
	.endr
	.equ	__reg_num_xzr, 31

	.macro	mrs_s, rt, sreg
	.inst	0xd5200000|(\sreg)|(__reg_num_\rt)
	.endm

	.macro	msr_s, sreg, rt
	.inst	0xd5000000|(\sreg)|(__reg_num_\rt)
	.endm

#NO_APP
	.align	2
	.global	MEM_InitMemManager
	.type	MEM_InitMemManager, %function
MEM_InitMemManager:
.LFB2114:
	.file 1 "/home/jenkins/slave-135/workspace/chipset_component_CHICAGO_B100_Open_Source/component_code/vendor/huawei/extra/build/build_script/austin_kernel_release/kernel/drivers/vcodec/hi_vcodec/vdec/vfmw/vfmw_v4.0/firmware/common/mem_manage.c"
	.loc 1 52 0
	.cfi_startproc
.LVL0:
	stp	x29, x30, [sp, -32]!
	.cfi_def_cfa_offset 32
	.cfi_offset 29, -32
	.cfi_offset 30, -24
	add	x29, sp, 0
	.cfi_def_cfa_register 29
	stp	x19, x20, [sp,16]
	.cfi_offset 19, -16
	.cfi_offset 20, -8
	.loc 1 53 0
	adrp	x19, g_vfmw_osal_fun_ptr
	.loc 1 52 0
	mov	x20, x0
	.loc 1 53 0
	add	x19, x19, :lo12:g_vfmw_osal_fun_ptr
	mov	w0, 1
.LVL1:
	ldr	x1, [x19,24]
	blr	x1
.LVL2:
	.loc 1 55 0
	adrp	x0, .LANCHOR0
	mov	w1, 0
	mov	x2, 24576
	add	x0, x0, :lo12:.LANCHOR0
	bl	memset
.LVL3:
	.loc 1 57 0
	adrp	x1, .LANCHOR1
	ldr	w4, [x20]
	add	x1, x1, :lo12:.LANCHOR1
	.loc 1 58 0
	ldr	w3, [x20,4]
	.loc 1 61 0
	ldr	x2, [x19,32]
	mov	w0, 1
	.loc 1 57 0
	str	w4, [x1,2816]
	.loc 1 58 0
	str	w3, [x1,2820]
	.loc 1 59 0
	str	wzr, [x1,2824]
	.loc 1 61 0
	blr	x2
.LVL4:
	.loc 1 64 0
	ldp	x19, x20, [sp,16]
	.cfi_restore 20
	.cfi_restore 19
.LVL5:
	ldp	x29, x30, [sp], 32
	.cfi_restore 30
	.cfi_restore 29
	.cfi_def_cfa 31, 0
	ret
	.cfi_endproc
.LFE2114:
	.size	MEM_InitMemManager, .-MEM_InitMemManager
	.align	2
	.global	MEM_ManagerWithOperation
	.type	MEM_ManagerWithOperation, %function
MEM_ManagerWithOperation:
.LFB2115:
	.loc 1 70 0
	.cfi_startproc
.LVL6:
	.loc 1 71 0
	adrp	x1, .LANCHOR1
	ldr	x2, [x0,16]
	add	x1, x1, :lo12:.LANCHOR1
	.loc 1 72 0
	ldr	x0, [x0,24]
.LVL7:
	.loc 1 71 0
	str	x2, [x1,2832]
	.loc 1 72 0
	str	x0, [x1,2840]
	.loc 1 75 0
	ret
	.cfi_endproc
.LFE2115:
	.size	MEM_ManagerWithOperation, .-MEM_ManagerWithOperation
	.align	2
	.global	MEM_ManagerClearOperation
	.type	MEM_ManagerClearOperation, %function
MEM_ManagerClearOperation:
.LFB2116:
	.loc 1 80 0
	.cfi_startproc
	.loc 1 81 0
	adrp	x0, .LANCHOR1
	add	x0, x0, :lo12:.LANCHOR1
	str	xzr, [x0,2832]
	.loc 1 82 0
	str	xzr, [x0,2840]
	.loc 1 85 0
	ret
	.cfi_endproc
.LFE2116:
	.size	MEM_ManagerClearOperation, .-MEM_ManagerClearOperation
	.align	2
	.global	MEM_AddMemRecord
	.type	MEM_AddMemRecord, %function
MEM_AddMemRecord:
.LFB2117:
	.loc 1 90 0
	.cfi_startproc
.LVL8:
	stp	x29, x30, [sp, -80]!
	.cfi_def_cfa_offset 80
	.cfi_offset 29, -80
	.cfi_offset 30, -72
	add	x29, sp, 0
	.cfi_def_cfa_register 29
	stp	x21, x22, [sp,32]
	.cfi_offset 21, -48
	.cfi_offset 22, -40
	.loc 1 96 0
	adrp	x21, g_vfmw_osal_fun_ptr
	.loc 1 90 0
	str	x23, [sp,48]
	.loc 1 96 0
	add	x3, x21, :lo12:g_vfmw_osal_fun_ptr
	.cfi_offset 23, -32
	.loc 1 90 0
	mov	w23, w2
	stp	x19, x20, [sp,16]
	.cfi_offset 19, -64
	.cfi_offset 20, -56
	.loc 1 90 0
	mov	w20, w0
	.loc 1 96 0
	mov	w0, 1
.LVL9:
	ldr	x2, [x3,24]
.LVL10:
	.loc 1 93 0
	mov	w19, -1
	.loc 1 90 0
	str	x1, [x29,72]
	.loc 1 96 0
	blr	x2
.LVL11:
	adrp	x3, .LANCHOR0
	.loc 1 98 0
	mov	w5, 0
	add	x0, x3, :lo12:.LANCHOR0
	ldr	x1, [x29,72]
.LVL12:
	add	x0, x0, 4
	b	.L10
.L6:
	cmn	w19, #1
	add	x0, x0, 24
	.loc 1 108 0 discriminator 1
	cbnz	w2, .L8
	csel	w19, w19, w5, ne
.L8:
	.loc 1 98 0 discriminator 2
	add	w5, w5, 1
	.loc 1 98 0 is_stmt 0 discriminator 1
	cmp	w5, 1024
	beq	.L25
.L10:
	.loc 1 100 0 is_stmt 1
	ldr	w6, [x0,-4]
	.loc 1 100 0 is_stmt 0 discriminator 1
	ldr	w2, [x0]
	.loc 1 100 0
	cmp	w6, w20
	bhi	.L6
	.loc 1 100 0 discriminator 1
	add	w7, w2, w6
	cmp	w20, w7
	bcs	.L6
	.loc 1 102 0 is_stmt 1
	adrp	x19, .LANCHOR2
	adrp	x1, .LC0
.LVL13:
	add	x19, x19, :lo12:.LANCHOR2
	add	x1, x1, :lo12:.LC0
	mov	x2, x19
	mov	w3, w20
	add	w4, w20, w23
.LVL14:
	mov	w0, 32
	.loc 1 117 0
	mov	w22, -1
.LVL15:
	.loc 1 102 0
	bl	dprint_linux_kernel
.LVL16:
	.loc 1 116 0
	adrp	x1, .LC1
	mov	w0, 0
	add	x1, x1, :lo12:.LC1
	mov	x2, x19
	bl	dprint_linux_kernel
.LVL17:
.L7:
	.loc 1 132 0
	add	x21, x21, :lo12:g_vfmw_osal_fun_ptr
	mov	w0, 1
	ldr	x1, [x21,32]
.LVL18:
	blr	x1
.LVL19:
	.loc 1 135 0
	ldr	x23, [sp,48]
	.cfi_remember_state
	.cfi_restore 23
.LVL20:
	mov	w0, w22
	ldp	x19, x20, [sp,16]
	.cfi_restore 20
	.cfi_restore 19
.LVL21:
	ldp	x21, x22, [sp,32]
	.cfi_restore 22
	.cfi_restore 21
.LVL22:
	ldp	x29, x30, [sp], 80
	.cfi_restore 30
	.cfi_restore 29
	.cfi_def_cfa 31, 0
	ret
.LVL23:
.L25:
	.cfi_restore_state
	.loc 1 119 0
	cmn	w19, #1
	beq	.L26
	.loc 1 126 0
	sxtw	x19, w19
	add	x3, x3, :lo12:.LANCHOR0
	lsl	x0, x19, 5
	.loc 1 129 0
	mov	w22, 0
.LVL24:
	.loc 1 126 0
	sub	x0, x0, x19, lsl 3
	add	x2, x3, x0
	str	w20, [x3,x0]
	.loc 1 127 0
	str	x1, [x2,16]
	.loc 1 128 0
	str	w23, [x2,4]
	b	.L7
.LVL25:
.L26:
	.loc 1 121 0
	adrp	x1, .LC2
.LVL26:
	adrp	x2, .LANCHOR2
	add	x1, x1, :lo12:.LC2
	add	x2, x2, :lo12:.LANCHOR2
	mov	w0, 0
	.loc 1 122 0
	mov	w22, w19
.LVL27:
	.loc 1 121 0
	bl	dprint_linux_kernel
.LVL28:
	b	.L7
	.cfi_endproc
.LFE2117:
	.size	MEM_AddMemRecord, .-MEM_AddMemRecord
	.align	2
	.global	MEM_DelMemRecord
	.type	MEM_DelMemRecord, %function
MEM_DelMemRecord:
.LFB2118:
	.loc 1 141 0
	.cfi_startproc
.LVL29:
	stp	x29, x30, [sp, -48]!
	.cfi_def_cfa_offset 48
	.cfi_offset 29, -48
	.cfi_offset 30, -40
	add	x29, sp, 0
	.cfi_def_cfa_register 29
	stp	x19, x20, [sp,16]
	.cfi_offset 19, -32
	.cfi_offset 20, -24
	.loc 1 144 0
	adrp	x20, g_vfmw_osal_fun_ptr
	.loc 1 141 0
	mov	w19, w0
	.loc 1 144 0
	add	x3, x20, :lo12:g_vfmw_osal_fun_ptr
	mov	w0, 1
.LVL30:
	.loc 1 141 0
	str	x1, [x29,32]
	str	x2, [x29,40]
	.loc 1 144 0
	ldr	x3, [x3,24]
	blr	x3
.LVL31:
	adrp	x6, .LANCHOR0
	.loc 1 145 0
	mov	w3, 0
.LVL32:
	add	x0, x6, :lo12:.LANCHOR0
	ldr	x1, [x29,32]
.LVL33:
	ldr	x2, [x29,40]
.LVL34:
	b	.L30
.L28:
	.loc 1 145 0 is_stmt 0 discriminator 2
	add	w3, w3, 1
	add	x0, x0, 24
	.loc 1 145 0 discriminator 1
	cmp	w3, 1024
	beq	.L41
.L30:
	.loc 1 147 0 is_stmt 1
	ldr	w4, [x0,4]
	cbz	w4, .L28
	.loc 1 152 0
	ldr	w5, [x0]
	cmp	w5, w19
	bne	.L28
	.loc 1 152 0 is_stmt 0 discriminator 1
	ldr	x5, [x0,16]
	.loc 1 153 0 is_stmt 1
	cmp	x5, x1
	bne	.L28
	cmp	w4, w2
	bne	.L28
	.loc 1 155 0
	sxtw	x3, w3
	add	x6, x6, :lo12:.LANCHOR0
	lsl	x0, x3, 5
	.loc 1 158 0
	add	x20, x20, :lo12:g_vfmw_osal_fun_ptr
	.loc 1 155 0
	sub	x3, x0, x3, lsl 3
.LVL35:
	.loc 1 158 0
	mov	w0, 1
	.loc 1 155 0
	add	x1, x6, x3
.LVL36:
	.loc 1 158 0
	ldr	x2, [x20,32]
.LVL37:
	.loc 1 156 0
	str	wzr, [x6,x3]
	.loc 1 155 0
	str	wzr, [x1,4]
	.loc 1 157 0
	str	xzr, [x1,16]
	.loc 1 158 0
	blr	x2
.LVL38:
	.loc 1 160 0
	mov	w0, 0
	.loc 1 166 0
	ldp	x19, x20, [sp,16]
	.cfi_remember_state
	.cfi_restore 20
	.cfi_restore 19
.LVL39:
	ldp	x29, x30, [sp], 48
	.cfi_restore 30
	.cfi_restore 29
	.cfi_def_cfa 31, 0
	ret
.LVL40:
.L41:
	.cfi_restore_state
	.loc 1 163 0
	add	x20, x20, :lo12:g_vfmw_osal_fun_ptr
	mov	w0, 1
	ldr	x1, [x20,32]
.LVL41:
	blr	x1
.LVL42:
	.loc 1 165 0
	mov	w0, -1
	.loc 1 166 0
	ldp	x19, x20, [sp,16]
	.cfi_restore 19
	.cfi_restore 20
.LVL43:
	ldp	x29, x30, [sp], 48
	.cfi_restore 29
	.cfi_restore 30
	.cfi_def_cfa 31, 0
	ret
	.cfi_endproc
.LFE2118:
	.size	MEM_DelMemRecord, .-MEM_DelMemRecord
	.align	2
	.global	MEM_Phy2Vir
	.type	MEM_Phy2Vir, %function
MEM_Phy2Vir:
.LFB2119:
	.loc 1 195 0
	.cfi_startproc
.LVL44:
	adrp	x5, .LANCHOR0
	.loc 1 199 0
	mov	x3, 0
	add	x1, x5, :lo12:.LANCHOR0
	b	.L45
.LVL45:
.L43:
	.loc 1 199 0 is_stmt 0 discriminator 2
	add	w3, w3, 1
.LVL46:
	add	x1, x1, 24
.LVL47:
	.loc 1 199 0 discriminator 1
	cmp	w3, 1024
	beq	.L50
.L45:
	.loc 1 201 0 is_stmt 1
	ldr	w2, [x1,4]
	cbz	w2, .L43
	.loc 1 206 0
	ldr	w4, [x1]
	cmp	w4, w0
	.loc 1 206 0 is_stmt 0 discriminator 1
	add	w2, w4, w2
	.loc 1 206 0
	bhi	.L43
	.loc 1 206 0 discriminator 1
	cmp	w0, w2
	bcs	.L43
	.loc 1 208 0 is_stmt 1
	lsl	x2, x3, 5
	add	x5, x5, :lo12:.LANCHOR0
	sub	x2, x2, x3, lsl 3
	sub	w0, w0, w4
.LVL48:
	add	x1, x5, x2
	ldr	x1, [x1,16]
	add	x0, x1, x0
.LVL49:
.LVL50:
	.loc 1 214 0
	ret
.LVL51:
.L50:
	.loc 1 197 0
	mov	x0, 0
.LVL52:
.LVL53:
	.loc 1 214 0
	ret
	.cfi_endproc
.LFE2119:
	.size	MEM_Phy2Vir, .-MEM_Phy2Vir
	.align	2
	.global	MEM_Vir2Phy
	.type	MEM_Vir2Phy, %function
MEM_Vir2Phy:
.LFB2120:
	.loc 1 221 0
	.cfi_startproc
.LVL54:
	adrp	x5, .LANCHOR0
	.loc 1 225 0
	mov	x3, 0
	add	x1, x5, :lo12:.LANCHOR0
	add	x1, x1, 4
	b	.L54
.LVL55:
.L52:
	.loc 1 225 0 is_stmt 0 discriminator 2
	add	w3, w3, 1
.LVL56:
	add	x1, x1, 24
.LVL57:
	.loc 1 225 0 discriminator 1
	cmp	w3, 1024
	beq	.L59
.L54:
	.loc 1 227 0 is_stmt 1
	ldr	w2, [x1]
	cbz	w2, .L52
	.loc 1 232 0
	ldr	x4, [x1,12]
	.loc 1 232 0 is_stmt 0 discriminator 1
	add	x2, x4, x2, uxtw
	.loc 1 232 0
	cmp	x4, x0
	bhi	.L52
	.loc 1 232 0 discriminator 1
	cmp	x0, x2
	bcs	.L52
	.loc 1 234 0 is_stmt 1
	lsl	x1, x3, 5
	add	x5, x5, :lo12:.LANCHOR0
	sub	x1, x1, x3, lsl 3
	sub	x2, x0, x4
	ldr	w0, [x5,x1]
.LVL58:
	add	w0, w0, w2
.LVL59:
.LVL60:
	.loc 1 240 0
	ret
.LVL61:
.L59:
	.loc 1 224 0
	mov	w0, 0
.LVL62:
.LVL63:
	.loc 1 240 0
	ret
	.cfi_endproc
.LFE2120:
	.size	MEM_Vir2Phy, .-MEM_Vir2Phy
	.align	2
	.global	MEM_WritePhyWord
	.type	MEM_WritePhyWord, %function
MEM_WritePhyWord:
.LFB2121:
	.loc 1 247 0
	.cfi_startproc
.LVL64:
	stp	x29, x30, [sp, -32]!
	.cfi_def_cfa_offset 32
	.cfi_offset 29, -32
	.cfi_offset 30, -24
	add	x29, sp, 0
	.cfi_def_cfa_register 29
	.loc 1 247 0
	str	x1, [x29,24]
	.loc 1 250 0
	bl	MEM_Phy2Vir
.LVL65:
	.loc 1 251 0
	cbz	x0, .L60
	.loc 1 253 0
	ldr	x1, [x29,24]
.LVL66:
	str	w1, [x0]
.L60:
	.loc 1 255 0
	ldp	x29, x30, [sp], 32
	.cfi_restore 30
	.cfi_restore 29
	.cfi_def_cfa 31, 0
	ret
	.cfi_endproc
.LFE2121:
	.size	MEM_WritePhyWord, .-MEM_WritePhyWord
	.align	2
	.global	MEM_ReadPhyWord
	.type	MEM_ReadPhyWord, %function
MEM_ReadPhyWord:
.LFB2122:
	.loc 1 258 0
	.cfi_startproc
.LVL67:
	stp	x29, x30, [sp, -16]!
	.cfi_def_cfa_offset 16
	.cfi_offset 29, -16
	.cfi_offset 30, -8
	add	x29, sp, 0
	.cfi_def_cfa_register 29
	.loc 1 263 0
	bl	MEM_Phy2Vir
.LVL68:
	.loc 1 264 0
	cbz	x0, .L67
	.loc 1 266 0
	ldr	w0, [x0]
.LVL69:
	.loc 1 270 0
	ldp	x29, x30, [sp], 16
	.cfi_remember_state
	.cfi_restore 30
	.cfi_restore 29
	.cfi_def_cfa 31, 0
	ret
.LVL70:
.L67:
	.cfi_restore_state
	.loc 1 262 0
	mov	w0, 0
.LVL71:
.LVL72:
	.loc 1 270 0
	ldp	x29, x30, [sp], 16
	.cfi_restore 29
	.cfi_restore 30
	.cfi_def_cfa 31, 0
	ret
	.cfi_endproc
.LFE2122:
	.size	MEM_ReadPhyWord, .-MEM_ReadPhyWord
	.align	2
	.global	MEM_CopyPhy2Phy
	.type	MEM_CopyPhy2Phy, %function
MEM_CopyPhy2Phy:
.LFB2123:
	.loc 1 276 0
	.cfi_startproc
.LVL73:
	stp	x29, x30, [sp, -48]!
	.cfi_def_cfa_offset 48
	.cfi_offset 29, -48
	.cfi_offset 30, -40
	add	x29, sp, 0
	.cfi_def_cfa_register 29
	str	x19, [sp,16]
	.cfi_offset 19, -32
	.loc 1 276 0
	str	x1, [x29,40]
	str	x2, [x29,32]
	.loc 1 279 0
	bl	MEM_Phy2Vir
.LVL74:
	.loc 1 280 0
	ldr	x1, [x29,40]
.LVL75:
	.loc 1 279 0
	mov	x19, x0
.LVL76:
	.loc 1 280 0
	mov	w0, w1
	bl	MEM_Phy2Vir
.LVL77:
	mov	x1, x0
.LVL78:
	.loc 1 281 0
	cbz	x0, .L68
	cbz	x19, .L68
	.loc 1 283 0
	ldr	x2, [x29,32]
.LVL79:
	mov	x0, x19
	uxtw	x2, w2
.LVL80:
	bl	memcpy
.LVL81:
.L68:
	.loc 1 285 0
	ldr	x19, [sp,16]
	.cfi_restore 19
.LVL82:
	ldp	x29, x30, [sp], 48
	.cfi_restore 30
	.cfi_restore 29
	.cfi_def_cfa 31, 0
	ret
	.cfi_endproc
.LFE2123:
	.size	MEM_CopyPhy2Phy, .-MEM_CopyPhy2Phy
	.align	2
	.global	MEM_CopyPhy2Vir
	.type	MEM_CopyPhy2Vir, %function
MEM_CopyPhy2Vir:
.LFB2124:
	.loc 1 291 0
	.cfi_startproc
.LVL83:
	stp	x29, x30, [sp, -48]!
	.cfi_def_cfa_offset 48
	.cfi_offset 29, -48
	.cfi_offset 30, -40
	add	x29, sp, 0
	.cfi_def_cfa_register 29
	str	x19, [sp,16]
	.cfi_offset 19, -32
	.loc 1 291 0
	mov	x19, x0
	.loc 1 294 0
	mov	w0, w1
.LVL84:
	.loc 1 291 0
	str	x2, [x29,40]
	.loc 1 294 0
	bl	MEM_Phy2Vir
.LVL85:
	mov	x1, x0
.LVL86:
	.loc 1 295 0
	cbz	x0, .L76
	cbz	x19, .L76
	.loc 1 297 0
	ldr	x2, [x29,40]
.LVL87:
	mov	x0, x19
	uxtw	x2, w2
.LVL88:
	bl	memcpy
.LVL89:
.L76:
	.loc 1 299 0
	ldr	x19, [sp,16]
	.cfi_restore 19
.LVL90:
	ldp	x29, x30, [sp], 48
	.cfi_restore 30
	.cfi_restore 29
	.cfi_def_cfa 31, 0
	ret
	.cfi_endproc
.LFE2124:
	.size	MEM_CopyPhy2Vir, .-MEM_CopyPhy2Vir
	.align	2
	.global	MEM_CopyVir2Phy
	.type	MEM_CopyVir2Phy, %function
MEM_CopyVir2Phy:
.LFB2125:
	.loc 1 305 0
	.cfi_startproc
.LVL91:
	stp	x29, x30, [sp, -32]!
	.cfi_def_cfa_offset 32
	.cfi_offset 29, -32
	.cfi_offset 30, -24
	add	x29, sp, 0
	.cfi_def_cfa_register 29
	.loc 1 305 0
	str	x1, [x29,24]
	str	x2, [x29,16]
	.loc 1 308 0
	bl	MEM_Phy2Vir
.LVL92:
	.loc 1 309 0
	cbz	x0, .L84
	ldr	x1, [x29,24]
.LVL93:
	cbz	x1, .L84
	.loc 1 311 0
	ldr	x2, [x29,16]
.LVL94:
	uxtw	x2, w2
.LVL95:
	bl	memcpy
.LVL96:
.L84:
	.loc 1 313 0
	ldp	x29, x30, [sp], 32
	.cfi_restore 30
	.cfi_restore 29
	.cfi_def_cfa 31, 0
	ret
	.cfi_endproc
.LFE2125:
	.size	MEM_CopyVir2Phy, .-MEM_CopyVir2Phy
	.align	2
	.global	MEM_AllocMemBlock
	.type	MEM_AllocMemBlock, %function
MEM_AllocMemBlock:
.LFB2126:
	.loc 1 319 0
	.cfi_startproc
.LVL97:
	stp	x29, x30, [sp, -80]!
	.cfi_def_cfa_offset 80
	.cfi_offset 29, -80
	.cfi_offset 30, -72
	add	x29, sp, 0
	.cfi_def_cfa_register 29
	stp	x19, x20, [sp,16]
	.cfi_offset 19, -64
	.cfi_offset 20, -56
	adrp	x20, __stack_chk_guard
	mov	x19, x2
	str	x21, [sp,32]
	.cfi_offset 21, -48
	.loc 1 319 0
	mov	w21, w1
	ldr	x2, [x20,#:lo12:__stack_chk_guard]
.LVL98:
	str	x2, [x29,72]
	.loc 1 324 0
	cbz	x19, .L96
	cbz	w1, .L96
	.loc 1 324 0 is_stmt 0 discriminator 1
	adrp	x2, g_vfmw_osal_fun_ptr
	add	x2, x2, :lo12:g_vfmw_osal_fun_ptr
	ldr	x4, [x2,136]
	cbz	x4, .L96
	.loc 1 330 0 is_stmt 1
	stp	xzr, xzr, [x19]
	str	xzr, [x19,16]
	.loc 1 336 0
	add	x4, x29, 48
	.loc 1 333 0
	str	xzr, [x29,64]
	.loc 1 336 0
	ldr	x5, [x2,136]
	mov	w2, 4
	.loc 1 333 0
	stp	xzr, xzr, [x29,48]
	.loc 1 336 0
	blr	x5
.LVL99:
	.loc 1 337 0
	cbnz	w0, .L96
	.loc 1 339 0
	ldr	w0, [x29,56]
	cbz	w0, .L96
	.loc 1 339 0 is_stmt 0 discriminator 1
	ldr	x1, [x29,64]
	cbz	x1, .L96
	.loc 1 339 0 discriminator 2
	ldr	w3, [x29,60]
	cmp	w21, w3
	bhi	.L96
	.loc 1 350 0 is_stmt 1
	adrp	x2, .LANCHOR1
	.loc 1 347 0
	str	x1, [x19,16]
	.loc 1 350 0
	add	x2, x2, :lo12:.LANCHOR1
	.loc 1 346 0
	str	w0, [x19]
	.loc 1 348 0
	str	w3, [x19,4]
	.loc 1 351 0
	mov	w0, 0
	.loc 1 349 0
	ldr	w1, [x2,2824]
	add	w1, w3, w1
	.loc 1 350 0
	add	w1, w1, 3
	and	w1, w1, -4
	str	w1, [x2,2824]
.LVL100:
.L95:
	.loc 1 358 0
	ldr	x2, [x29,72]
	ldr	x1, [x20,#:lo12:__stack_chk_guard]
	cmp	x2, x1
	bne	.L107
	ldp	x19, x20, [sp,16]
	.cfi_remember_state
	.cfi_restore 20
	.cfi_restore 19
.LVL101:
	ldr	x21, [sp,32]
	.cfi_restore 21
.LVL102:
	ldp	x29, x30, [sp], 80
	.cfi_restore 30
	.cfi_restore 29
	.cfi_def_cfa 31, 0
	ret
.LVL103:
.L96:
	.cfi_restore_state
	.loc 1 326 0
	mov	w0, -1
.LVL104:
	b	.L95
.L107:
	.loc 1 358 0
	bl	__stack_chk_fail
.LVL105:
	.cfi_endproc
.LFE2126:
	.size	MEM_AllocMemBlock, .-MEM_AllocMemBlock
	.align	2
	.global	MEM_ReleaseMemBlock
	.type	MEM_ReleaseMemBlock, %function
MEM_ReleaseMemBlock:
.LFB2127:
	.loc 1 364 0
	.cfi_startproc
.LVL106:
	stp	x29, x30, [sp, -64]!
	.cfi_def_cfa_offset 64
	.cfi_offset 29, -64
	.cfi_offset 30, -56
	add	x29, sp, 0
	.cfi_def_cfa_register 29
	str	x19, [sp,16]
	.cfi_offset 19, -48
	.loc 1 364 0
	adrp	x19, __stack_chk_guard
	ldr	x2, [x19,#:lo12:__stack_chk_guard]
	str	x2, [x29,56]
	.loc 1 369 0
	cbz	w0, .L108
	cbz	x1, .L108
	.loc 1 369 0 is_stmt 0 discriminator 1
	adrp	x2, g_vfmw_osal_fun_ptr+144
	ldr	x5, [x2,#:lo12:g_vfmw_osal_fun_ptr+144]
	cbz	x5, .L108
	.loc 1 376 0 is_stmt 1
	str	x1, [x29,48]
	adrp	x1, .LANCHOR0
.LVL107:
	.loc 1 373 0
	stp	xzr, xzr, [x29,32]
	add	x1, x1, :lo12:.LANCHOR0
	.loc 1 375 0
	str	w0, [x29,40]
	add	x4, x1, 24576
	b	.L112
.L110:
	add	x1, x1, 24
	.loc 1 377 0 discriminator 1
	cmp	x1, x4
	beq	.L111
.L112:
	.loc 1 379 0
	ldr	w2, [x1,4]
	cbz	w2, .L110
	.loc 1 384 0
	ldr	w3, [x1]
	cmp	w0, w3
	bcc	.L110
	.loc 1 384 0 is_stmt 0 discriminator 1
	add	w3, w3, w2
	cmp	w0, w3
	bcs	.L110
	.loc 1 386 0 is_stmt 1
	str	w2, [x29,44]
.L111:
	.loc 1 391 0
	add	x0, x29, 32
.LVL108:
	blr	x5
.LVL109:
.L108:
	.loc 1 399 0
	ldr	x1, [x29,56]
.LVL110:
	ldr	x0, [x19,#:lo12:__stack_chk_guard]
.LVL111:
	cmp	x1, x0
	bne	.L121
	ldr	x19, [sp,16]
	.cfi_remember_state
	.cfi_restore 19
	ldp	x29, x30, [sp], 64
	.cfi_restore 30
	.cfi_restore 29
	.cfi_def_cfa 31, 0
	ret
.L121:
	.cfi_restore_state
	bl	__stack_chk_fail
.LVL112:
	.cfi_endproc
.LFE2127:
	.size	MEM_ReleaseMemBlock, .-MEM_ReleaseMemBlock
	.align	2
	.global	MEM_AllocMemBlock_2
	.type	MEM_AllocMemBlock_2, %function
MEM_AllocMemBlock_2:
.LFB2128:
	.loc 1 405 0
	.cfi_startproc
.LVL113:
	.loc 1 408 0
	adrp	x4, g_vfmw_osal_fun_ptr+136
	.loc 1 405 0
	stp	x29, x30, [sp, -16]!
	.cfi_def_cfa_offset 16
	.cfi_offset 29, -16
	.cfi_offset 30, -8
	add	x29, sp, 0
	.cfi_def_cfa_register 29
	.loc 1 408 0
	ldr	x5, [x4,#:lo12:g_vfmw_osal_fun_ptr+136]
	cbz	x5, .L124
	mov	x4, x2
	.loc 1 410 0
	mov	w2, 4
.LVL114:
	blr	x5
.LVL115:
	.loc 1 411 0
	cmp	w0, wzr
	csetm	w0, ne
.LVL116:
.L123:
	.loc 1 415 0
	ldp	x29, x30, [sp], 16
	.cfi_remember_state
	.cfi_restore 30
	.cfi_restore 29
	.cfi_def_cfa 31, 0
	ret
.LVL117:
.L124:
	.cfi_restore_state
	.loc 1 406 0
	mov	w0, -1
.LVL118:
	b	.L123
	.cfi_endproc
.LFE2128:
	.size	MEM_AllocMemBlock_2, .-MEM_AllocMemBlock_2
	.align	2
	.global	MEM_ReleaseMemBlock_2
	.type	MEM_ReleaseMemBlock_2, %function
MEM_ReleaseMemBlock_2:
.LFB2129:
	.loc 1 421 0
	.cfi_startproc
.LVL119:
	.loc 1 424 0
	adrp	x1, g_vfmw_osal_fun_ptr+144
	.loc 1 421 0
	stp	x29, x30, [sp, -16]!
	.cfi_def_cfa_offset 16
	.cfi_offset 29, -16
	.cfi_offset 30, -8
	add	x29, sp, 0
	.cfi_def_cfa_register 29
	.loc 1 424 0
	ldr	x1, [x1,#:lo12:g_vfmw_osal_fun_ptr+144]
	cbz	x1, .L127
	.loc 1 426 0
	blr	x1
.LVL120:
	.loc 1 427 0
	cmp	w0, wzr
	csetm	w0, ne
.L126:
	.loc 1 431 0
	ldp	x29, x30, [sp], 16
	.cfi_remember_state
	.cfi_restore 30
	.cfi_restore 29
	.cfi_def_cfa 31, 0
	ret
.LVL121:
.L127:
	.cfi_restore_state
	.loc 1 422 0
	mov	w0, -1
.LVL122:
	b	.L126
	.cfi_endproc
.LFE2129:
	.size	MEM_ReleaseMemBlock_2, .-MEM_ReleaseMemBlock_2
	.align	2
	.global	MEM_MapRegisterAddr
	.type	MEM_MapRegisterAddr, %function
MEM_MapRegisterAddr:
.LFB2130:
	.loc 1 437 0
	.cfi_startproc
.LVL123:
	stp	x29, x30, [sp, -48]!
	.cfi_def_cfa_offset 48
	.cfi_offset 29, -48
	.cfi_offset 30, -40
	add	x29, sp, 0
	.cfi_def_cfa_register 29
	stp	x19, x20, [sp,16]
	.cfi_offset 19, -32
	.cfi_offset 20, -24
	mov	x19, x2
	str	x21, [sp,32]
	.cfi_offset 21, -16
	.loc 1 441 0
	cmp	x19, xzr
	cset	w5, eq
	cmp	w0, wzr
	cset	w4, eq
	.loc 1 441 0 is_stmt 0 discriminator 1
	orr	w4, w5, w4
	cbnz	w4, .L132
	cbz	w1, .L132
	.loc 1 441 0 discriminator 2
	adrp	x4, g_vfmw_osal_fun_ptr
	add	x4, x4, :lo12:g_vfmw_osal_fun_ptr
	ldr	x5, [x4,152]
	cbz	x5, .L132
	.loc 1 447 0 is_stmt 1
	stp	xzr, xzr, [x19]
	str	xzr, [x19,16]
	mov	w21, w1
	mov	w20, w0
	.loc 1 450 0
	ldr	x2, [x4,152]
	blr	x2
.LVL124:
	mov	x1, x0
.LVL125:
	.loc 1 452 0
	cbz	x0, .L132
	.loc 1 454 0
	str	w20, [x19]
	.loc 1 457 0
	mov	w0, 0
	.loc 1 455 0
	str	x1, [x19,16]
	.loc 1 456 0
	str	w21, [x19,4]
.LVL126:
.L131:
	.loc 1 461 0
	ldp	x19, x20, [sp,16]
	.cfi_remember_state
	.cfi_restore 20
	.cfi_restore 19
.LVL127:
	ldr	x21, [sp,32]
	.cfi_restore 21
.LVL128:
	ldp	x29, x30, [sp], 48
	.cfi_restore 30
	.cfi_restore 29
	.cfi_def_cfa 31, 0
	ret
.LVL129:
.L132:
	.cfi_restore_state
	.loc 1 443 0
	mov	w0, -1
.LVL130:
	b	.L131
	.cfi_endproc
.LFE2130:
	.size	MEM_MapRegisterAddr, .-MEM_MapRegisterAddr
	.align	2
	.global	MEM_UnmapRegisterAddr
	.type	MEM_UnmapRegisterAddr, %function
MEM_UnmapRegisterAddr:
.LFB2131:
	.loc 1 467 0
	.cfi_startproc
.LVL131:
	stp	x29, x30, [sp, -16]!
	.cfi_def_cfa_offset 16
	.cfi_offset 29, -16
	.cfi_offset 30, -8
	add	x29, sp, 0
	.cfi_def_cfa_register 29
	.loc 1 469 0
	cbz	w0, .L139
	cbz	x1, .L139
	.loc 1 469 0 is_stmt 0 discriminator 1
	adrp	x0, g_vfmw_osal_fun_ptr+160
.LVL132:
	ldr	x3, [x0,#:lo12:g_vfmw_osal_fun_ptr+160]
	cbz	x3, .L139
	mov	x0, x1
	.loc 1 475 0 is_stmt 1
	mov	w1, w2
.LVL133:
	blr	x3
.LVL134:
.L139:
	.loc 1 478 0
	ldp	x29, x30, [sp], 16
	.cfi_restore 30
	.cfi_restore 29
	.cfi_def_cfa 31, 0
	ret
	.cfi_endproc
.LFE2131:
	.size	MEM_UnmapRegisterAddr, .-MEM_UnmapRegisterAddr
	.global	g_pfnMemFree
	.global	g_pfnMemMalloc
	.global	s_MemRecord
	.section	.rodata
	.align	3
.LANCHOR2 = . + 0
	.type	__func__.32221, %object
	.size	__func__.32221, 17
__func__.32221:
	.string	"MEM_AddMemRecord"
	.section	.rodata.str1.8,"aMS",%progbits,1
	.align	3
.LC0:
	.string	"%s ERROR: Phy [0x%x ~ 0x%x] overlap with Record[%d] [0x%x ~ 0x%x]\n"
	.zero	5
.LC1:
	.string	"%s conflict occured!\n "
	.zero	1
.LC2:
	.string	"%s no free record slot!\n "
	.bss
	.align	3
.LANCHOR0 = . + 0
.LANCHOR1 = . + 21760
	.type	s_MemRecord, %object
	.size	s_MemRecord, 24576
s_MemRecord:
	.zero	24576
	.type	s_MemBaseAddr, %object
	.size	s_MemBaseAddr, 4
s_MemBaseAddr:
	.zero	4
	.type	s_MemSize, %object
	.size	s_MemSize, 4
s_MemSize:
	.zero	4
	.type	s_MemOffset, %object
	.size	s_MemOffset, 4
s_MemOffset:
	.zero	4
	.zero	4
	.type	g_pfnMemMalloc, %object
	.size	g_pfnMemMalloc, 8
g_pfnMemMalloc:
	.zero	8
	.type	g_pfnMemFree, %object
	.size	g_pfnMemFree, 8
g_pfnMemFree:
	.zero	8
	.text
.Letext0:
	.file 2 "/home/jenkins/slave-135/workspace/chipset_component_CHICAGO_B100_Open_Source/component_code/vendor/huawei/extra/build/build_script/austin_kernel_release/kernel/drivers/vcodec/hi_vcodec/vdec/include/hi_type.h"
	.file 3 "/home/jenkins/slave-135/workspace/chipset_component_CHICAGO_B100_Open_Source/component_code/vendor/huawei/extra/build/build_script/austin_kernel_release/kernel/drivers/vcodec/hi_vcodec/vdec/vfmw/vfmw_v4.0/vfmw.h"
	.file 4 "/home/jenkins/slave-135/workspace/chipset_component_CHICAGO_B100_Open_Source/component_code/vendor/huawei/extra/build/build_script/austin_kernel_release/kernel/drivers/vcodec/hi_vcodec/vdec/vfmw/vfmw_v4.0/firmware/common/mem_manage.h"
	.file 5 "/home/jenkins/slave-135/workspace/chipset_component_CHICAGO_B100_Open_Source/component_code/vendor/huawei/extra/build/build_script/austin_kernel_release/kernel/drivers/vcodec/hi_vcodec/vdec/vfmw/vfmw_v4.0/firmware/osal/vfmw_osal_ext.h"
	.file 6 "/home/jenkins/slave-135/workspace/chipset_component_CHICAGO_B100_Open_Source/component_code/vendor/huawei/extra/build/build_script/austin_kernel_release/kernel/include/uapi/asm-generic/int-ll64.h"
	.file 7 "/home/jenkins/slave-135/workspace/chipset_component_CHICAGO_B100_Open_Source/component_code/vendor/huawei/extra/build/build_script/austin_kernel_release/kernel/include/asm-generic/int-ll64.h"
	.file 8 "/home/jenkins/slave-135/workspace/chipset_component_CHICAGO_B100_Open_Source/component_code/vendor/huawei/extra/build/build_script/austin_kernel_release/kernel/include/uapi/asm-generic/posix_types.h"
	.file 9 "/home/jenkins/slave-135/workspace/chipset_component_CHICAGO_B100_Open_Source/component_code/vendor/huawei/extra/build/build_script/austin_kernel_release/kernel/include/linux/export.h"
	.file 10 "/home/jenkins/slave-135/workspace/chipset_component_CHICAGO_B100_Open_Source/component_code/vendor/huawei/extra/build/build_script/austin_kernel_release/kernel/include/linux/types.h"
	.file 11 "/home/jenkins/slave-135/workspace/chipset_component_CHICAGO_B100_Open_Source/component_code/vendor/huawei/extra/build/build_script/austin_kernel_release/kernel/include/linux/thread_info.h"
	.file 12 "/home/jenkins/slave-135/workspace/chipset_component_CHICAGO_B100_Open_Source/component_code/vendor/huawei/extra/build/build_script/austin_kernel_release/kernel/include/uapi/linux/time.h"
	.file 13 "/home/jenkins/slave-135/workspace/chipset_component_CHICAGO_B100_Open_Source/component_code/vendor/huawei/extra/build/build_script/austin_kernel_release/kernel/arch/arm64/include/asm/compat.h"
	.file 14 "/home/jenkins/slave-135/workspace/chipset_component_CHICAGO_B100_Open_Source/component_code/vendor/huawei/extra/build/build_script/austin_kernel_release/kernel/include/uapi/asm-generic/poll.h"
	.file 15 "/home/jenkins/slave-135/workspace/chipset_component_CHICAGO_B100_Open_Source/component_code/vendor/huawei/extra/build/build_script/austin_kernel_release/kernel/include/linux/sched.h"
	.file 16 "/home/jenkins/slave-135/workspace/chipset_component_CHICAGO_B100_Open_Source/component_code/vendor/huawei/extra/build/build_script/austin_kernel_release/kernel/arch/arm64/include/uapi/asm/ptrace.h"
	.file 17 "/home/jenkins/slave-135/workspace/chipset_component_CHICAGO_B100_Open_Source/component_code/vendor/huawei/extra/build/build_script/austin_kernel_release/kernel/arch/arm64/include/asm/ptrace.h"
	.file 18 "/home/jenkins/slave-135/workspace/chipset_component_CHICAGO_B100_Open_Source/component_code/vendor/huawei/extra/build/build_script/austin_kernel_release/kernel/arch/arm64/include/asm/spinlock_types.h"
	.file 19 "/home/jenkins/slave-135/workspace/chipset_component_CHICAGO_B100_Open_Source/component_code/vendor/huawei/extra/build/build_script/austin_kernel_release/kernel/include/linux/spinlock_types.h"
	.file 20 "/home/jenkins/slave-135/workspace/chipset_component_CHICAGO_B100_Open_Source/component_code/vendor/huawei/extra/build/build_script/austin_kernel_release/kernel/include/linux/rwlock_types.h"
	.file 21 "/home/jenkins/slave-135/workspace/chipset_component_CHICAGO_B100_Open_Source/component_code/vendor/huawei/extra/build/build_script/austin_kernel_release/kernel/arch/arm64/include/asm/fpsimd.h"
	.file 22 "/home/jenkins/slave-135/workspace/chipset_component_CHICAGO_B100_Open_Source/component_code/vendor/huawei/extra/build/build_script/austin_kernel_release/kernel/arch/arm64/include/asm/hw_breakpoint.h"
	.file 23 "/home/jenkins/slave-135/workspace/chipset_component_CHICAGO_B100_Open_Source/component_code/vendor/huawei/extra/build/build_script/austin_kernel_release/kernel/arch/arm64/include/asm/processor.h"
	.file 24 "/home/jenkins/slave-135/workspace/chipset_component_CHICAGO_B100_Open_Source/component_code/vendor/huawei/extra/build/build_script/austin_kernel_release/kernel/include/linux/perf_event.h"
	.file 25 "/home/jenkins/slave-135/workspace/chipset_component_CHICAGO_B100_Open_Source/component_code/vendor/huawei/extra/build/build_script/austin_kernel_release/kernel/include/asm-generic/atomic-long.h"
	.file 26 "/home/jenkins/slave-135/workspace/chipset_component_CHICAGO_B100_Open_Source/component_code/vendor/huawei/extra/build/build_script/austin_kernel_release/kernel/include/linux/wait.h"
	.file 27 "/home/jenkins/slave-135/workspace/chipset_component_CHICAGO_B100_Open_Source/component_code/vendor/huawei/extra/build/build_script/austin_kernel_release/kernel/include/linux/seqlock.h"
	.file 28 "/home/jenkins/slave-135/workspace/chipset_component_CHICAGO_B100_Open_Source/component_code/vendor/huawei/extra/build/build_script/austin_kernel_release/kernel/include/linux/nodemask.h"
	.file 29 "/home/jenkins/slave-135/workspace/chipset_component_CHICAGO_B100_Open_Source/component_code/vendor/huawei/extra/build/build_script/austin_kernel_release/kernel/arch/arm64/include/asm/pgtable-types.h"
	.file 30 "/home/jenkins/slave-135/workspace/chipset_component_CHICAGO_B100_Open_Source/component_code/vendor/huawei/extra/build/build_script/austin_kernel_release/kernel/include/linux/mm_types.h"
	.file 31 "/home/jenkins/slave-135/workspace/chipset_component_CHICAGO_B100_Open_Source/component_code/vendor/huawei/extra/build/build_script/austin_kernel_release/kernel/include/linux/mmzone.h"
	.file 32 "/home/jenkins/slave-135/workspace/chipset_component_CHICAGO_B100_Open_Source/component_code/vendor/huawei/extra/build/build_script/austin_kernel_release/kernel/include/linux/osq_lock.h"
	.file 33 "/home/jenkins/slave-135/workspace/chipset_component_CHICAGO_B100_Open_Source/component_code/vendor/huawei/extra/build/build_script/austin_kernel_release/kernel/include/linux/mutex.h"
	.file 34 "/home/jenkins/slave-135/workspace/chipset_component_CHICAGO_B100_Open_Source/component_code/vendor/huawei/extra/build/build_script/austin_kernel_release/kernel/include/linux/rwsem.h"
	.file 35 "/home/jenkins/slave-135/workspace/chipset_component_CHICAGO_B100_Open_Source/component_code/vendor/huawei/extra/build/build_script/austin_kernel_release/kernel/include/linux/cpumask.h"
	.file 36 "/home/jenkins/slave-135/workspace/chipset_component_CHICAGO_B100_Open_Source/component_code/vendor/huawei/extra/build/build_script/austin_kernel_release/kernel/include/linux/completion.h"
	.file 37 "/home/jenkins/slave-135/workspace/chipset_component_CHICAGO_B100_Open_Source/component_code/vendor/huawei/extra/build/build_script/austin_kernel_release/kernel/include/linux/ktime.h"
	.file 38 "/home/jenkins/slave-135/workspace/chipset_component_CHICAGO_B100_Open_Source/component_code/vendor/huawei/extra/build/build_script/austin_kernel_release/kernel/include/linux/timer.h"
	.file 39 "/home/jenkins/slave-135/workspace/chipset_component_CHICAGO_B100_Open_Source/component_code/vendor/huawei/extra/build/build_script/austin_kernel_release/kernel/include/linux/workqueue.h"
	.file 40 "/home/jenkins/slave-135/workspace/chipset_component_CHICAGO_B100_Open_Source/component_code/vendor/huawei/extra/build/build_script/austin_kernel_release/kernel/include/linux/llist.h"
	.file 41 "/home/jenkins/slave-135/workspace/chipset_component_CHICAGO_B100_Open_Source/component_code/vendor/huawei/extra/build/build_script/austin_kernel_release/kernel/include/linux/percpu.h"
	.file 42 "/home/jenkins/slave-135/workspace/chipset_component_CHICAGO_B100_Open_Source/component_code/vendor/huawei/extra/build/build_script/austin_kernel_release/kernel/include/linux/rbtree.h"
	.file 43 "/home/jenkins/slave-135/workspace/chipset_component_CHICAGO_B100_Open_Source/component_code/vendor/huawei/extra/build/build_script/austin_kernel_release/kernel/include/linux/lockdep.h"
	.file 44 "/home/jenkins/slave-135/workspace/chipset_component_CHICAGO_B100_Open_Source/component_code/vendor/huawei/extra/build/build_script/austin_kernel_release/kernel/include/linux/uprobes.h"
	.file 45 "/home/jenkins/slave-135/workspace/chipset_component_CHICAGO_B100_Open_Source/component_code/vendor/huawei/extra/build/build_script/austin_kernel_release/kernel/arch/arm64/include/asm/mmu.h"
	.file 46 "/home/jenkins/slave-135/workspace/chipset_component_CHICAGO_B100_Open_Source/component_code/vendor/huawei/extra/build/build_script/austin_kernel_release/kernel/include/linux/fs.h"
	.file 47 "/home/jenkins/slave-135/workspace/chipset_component_CHICAGO_B100_Open_Source/component_code/vendor/huawei/extra/build/build_script/austin_kernel_release/kernel/include/linux/mm.h"
	.file 48 "/home/jenkins/slave-135/workspace/chipset_component_CHICAGO_B100_Open_Source/component_code/vendor/huawei/extra/build/build_script/austin_kernel_release/kernel/include/linux/shrinker.h"
	.file 49 "/home/jenkins/slave-135/workspace/chipset_component_CHICAGO_B100_Open_Source/component_code/vendor/huawei/extra/build/build_script/austin_kernel_release/kernel/include/uapi/linux/resource.h"
	.file 50 "/home/jenkins/slave-135/workspace/chipset_component_CHICAGO_B100_Open_Source/component_code/vendor/huawei/extra/build/build_script/austin_kernel_release/kernel/include/linux/vm_event_item.h"
	.file 51 "/home/jenkins/slave-135/workspace/chipset_component_CHICAGO_B100_Open_Source/component_code/vendor/huawei/extra/build/build_script/austin_kernel_release/kernel/include/linux/vmstat.h"
	.file 52 "/home/jenkins/slave-135/workspace/chipset_component_CHICAGO_B100_Open_Source/component_code/vendor/huawei/extra/build/build_script/austin_kernel_release/kernel/include/linux/capability.h"
	.file 53 "/home/jenkins/slave-135/workspace/chipset_component_CHICAGO_B100_Open_Source/component_code/vendor/huawei/extra/build/build_script/austin_kernel_release/kernel/include/linux/plist.h"
	.file 54 "/home/jenkins/slave-135/workspace/chipset_component_CHICAGO_B100_Open_Source/component_code/vendor/huawei/extra/build/build_script/austin_kernel_release/kernel/include/asm-generic/cputime_jiffies.h"
	.file 55 "/home/jenkins/slave-135/workspace/chipset_component_CHICAGO_B100_Open_Source/component_code/vendor/huawei/extra/build/build_script/austin_kernel_release/kernel/include/linux/uidgid.h"
	.file 56 "/home/jenkins/slave-135/workspace/chipset_component_CHICAGO_B100_Open_Source/component_code/vendor/huawei/extra/build/build_script/austin_kernel_release/kernel/include/linux/sem.h"
	.file 57 "/home/jenkins/slave-135/workspace/chipset_component_CHICAGO_B100_Open_Source/component_code/vendor/huawei/extra/build/build_script/austin_kernel_release/kernel/include/linux/shm.h"
	.file 58 "/home/jenkins/slave-135/workspace/chipset_component_CHICAGO_B100_Open_Source/component_code/vendor/huawei/extra/build/build_script/austin_kernel_release/kernel/include/uapi/asm-generic/signal.h"
	.file 59 "/home/jenkins/slave-135/workspace/chipset_component_CHICAGO_B100_Open_Source/component_code/vendor/huawei/extra/build/build_script/austin_kernel_release/kernel/include/uapi/asm-generic/signal-defs.h"
	.file 60 "/home/jenkins/slave-135/workspace/chipset_component_CHICAGO_B100_Open_Source/component_code/vendor/huawei/extra/build/build_script/austin_kernel_release/kernel/include/uapi/asm-generic/siginfo.h"
	.file 61 "/home/jenkins/slave-135/workspace/chipset_component_CHICAGO_B100_Open_Source/component_code/vendor/huawei/extra/build/build_script/austin_kernel_release/kernel/include/linux/signal.h"
	.file 62 "/home/jenkins/slave-135/workspace/chipset_component_CHICAGO_B100_Open_Source/component_code/vendor/huawei/extra/build/build_script/austin_kernel_release/kernel/include/linux/pid.h"
	.file 63 "/home/jenkins/slave-135/workspace/chipset_component_CHICAGO_B100_Open_Source/component_code/vendor/huawei/extra/build/build_script/austin_kernel_release/kernel/include/linux/pid_namespace.h"
	.file 64 "/home/jenkins/slave-135/workspace/chipset_component_CHICAGO_B100_Open_Source/component_code/vendor/huawei/extra/build/build_script/austin_kernel_release/kernel/include/linux/percpu_counter.h"
	.file 65 "/home/jenkins/slave-135/workspace/chipset_component_CHICAGO_B100_Open_Source/component_code/vendor/huawei/extra/build/build_script/austin_kernel_release/kernel/include/linux/seccomp.h"
	.file 66 "/home/jenkins/slave-135/workspace/chipset_component_CHICAGO_B100_Open_Source/component_code/vendor/huawei/extra/build/build_script/austin_kernel_release/kernel/include/linux/timerqueue.h"
	.file 67 "/home/jenkins/slave-135/workspace/chipset_component_CHICAGO_B100_Open_Source/component_code/vendor/huawei/extra/build/build_script/austin_kernel_release/kernel/include/linux/hrtimer.h"
	.file 68 "/home/jenkins/slave-135/workspace/chipset_component_CHICAGO_B100_Open_Source/component_code/vendor/huawei/extra/build/build_script/austin_kernel_release/kernel/include/linux/task_io_accounting.h"
	.file 69 "/home/jenkins/slave-135/workspace/chipset_component_CHICAGO_B100_Open_Source/component_code/vendor/huawei/extra/build/build_script/austin_kernel_release/kernel/include/linux/nsproxy.h"
	.file 70 "/home/jenkins/slave-135/workspace/chipset_component_CHICAGO_B100_Open_Source/component_code/vendor/huawei/extra/build/build_script/austin_kernel_release/kernel/include/linux/assoc_array.h"
	.file 71 "/home/jenkins/slave-135/workspace/chipset_component_CHICAGO_B100_Open_Source/component_code/vendor/huawei/extra/build/build_script/austin_kernel_release/kernel/include/linux/key.h"
	.file 72 "/home/jenkins/slave-135/workspace/chipset_component_CHICAGO_B100_Open_Source/component_code/vendor/huawei/extra/build/build_script/austin_kernel_release/kernel/include/linux/cred.h"
	.file 73 "/home/jenkins/slave-135/workspace/chipset_component_CHICAGO_B100_Open_Source/component_code/vendor/huawei/extra/build/build_script/austin_kernel_release/kernel/include/uapi/linux/taskstats.h"
	.file 74 "/home/jenkins/slave-135/workspace/chipset_component_CHICAGO_B100_Open_Source/component_code/vendor/huawei/extra/build/build_script/austin_kernel_release/kernel/include/linux/cgroup-defs.h"
	.file 75 "/home/jenkins/slave-135/workspace/chipset_component_CHICAGO_B100_Open_Source/component_code/vendor/huawei/extra/build/build_script/austin_kernel_release/kernel/include/linux/compat.h"
	.file 76 "/home/jenkins/slave-135/workspace/chipset_component_CHICAGO_B100_Open_Source/component_code/vendor/huawei/extra/build/build_script/austin_kernel_release/kernel/include/linux/kref.h"
	.file 77 "/home/jenkins/slave-135/workspace/chipset_component_CHICAGO_B100_Open_Source/component_code/vendor/huawei/extra/build/build_script/austin_kernel_release/kernel/include/linux/ns_common.h"
	.file 78 "/home/jenkins/slave-135/workspace/chipset_component_CHICAGO_B100_Open_Source/component_code/vendor/huawei/extra/build/build_script/austin_kernel_release/kernel/include/linux/dcache.h"
	.file 79 "/home/jenkins/slave-135/workspace/chipset_component_CHICAGO_B100_Open_Source/component_code/vendor/huawei/extra/build/build_script/austin_kernel_release/kernel/include/linux/stat.h"
	.file 80 "/home/jenkins/slave-135/workspace/chipset_component_CHICAGO_B100_Open_Source/component_code/vendor/huawei/extra/build/build_script/austin_kernel_release/kernel/include/uapi/linux/elf.h"
	.file 81 "/home/jenkins/slave-135/workspace/chipset_component_CHICAGO_B100_Open_Source/component_code/vendor/huawei/extra/build/build_script/austin_kernel_release/kernel/include/linux/idr.h"
	.file 82 "/home/jenkins/slave-135/workspace/chipset_component_CHICAGO_B100_Open_Source/component_code/vendor/huawei/extra/build/build_script/austin_kernel_release/kernel/include/linux/kernfs.h"
	.file 83 "/home/jenkins/slave-135/workspace/chipset_component_CHICAGO_B100_Open_Source/component_code/vendor/huawei/extra/build/build_script/austin_kernel_release/kernel/include/linux/seq_file.h"
	.file 84 "/home/jenkins/slave-135/workspace/chipset_component_CHICAGO_B100_Open_Source/component_code/vendor/huawei/extra/build/build_script/austin_kernel_release/kernel/include/linux/kobject_ns.h"
	.file 85 "/home/jenkins/slave-135/workspace/chipset_component_CHICAGO_B100_Open_Source/component_code/vendor/huawei/extra/build/build_script/austin_kernel_release/kernel/include/linux/sysfs.h"
	.file 86 "/home/jenkins/slave-135/workspace/chipset_component_CHICAGO_B100_Open_Source/component_code/vendor/huawei/extra/build/build_script/austin_kernel_release/kernel/include/linux/kobject.h"
	.file 87 "/home/jenkins/slave-135/workspace/chipset_component_CHICAGO_B100_Open_Source/component_code/vendor/huawei/extra/build/build_script/austin_kernel_release/kernel/include/linux/moduleparam.h"
	.file 88 "/home/jenkins/slave-135/workspace/chipset_component_CHICAGO_B100_Open_Source/component_code/vendor/huawei/extra/build/build_script/austin_kernel_release/kernel/include/linux/jump_label.h"
	.file 89 "/home/jenkins/slave-135/workspace/chipset_component_CHICAGO_B100_Open_Source/component_code/vendor/huawei/extra/build/build_script/austin_kernel_release/kernel/include/asm-generic/module.h"
	.file 90 "/home/jenkins/slave-135/workspace/chipset_component_CHICAGO_B100_Open_Source/component_code/vendor/huawei/extra/build/build_script/austin_kernel_release/kernel/include/linux/module.h"
	.file 91 "/home/jenkins/slave-135/workspace/chipset_component_CHICAGO_B100_Open_Source/component_code/vendor/huawei/extra/build/build_script/austin_kernel_release/kernel/arch/arm64/include/asm/uaccess.h"
	.file 92 "/home/jenkins/slave-135/workspace/chipset_component_CHICAGO_B100_Open_Source/component_code/vendor/huawei/extra/build/build_script/austin_kernel_release/kernel/include/linux/tracepoint.h"
	.file 93 "/home/jenkins/slave-135/workspace/chipset_component_CHICAGO_B100_Open_Source/component_code/vendor/huawei/extra/build/build_script/austin_kernel_release/kernel/include/linux/ftrace_event.h"
	.file 94 "/home/jenkins/slave-135/workspace/chipset_component_CHICAGO_B100_Open_Source/component_code/vendor/huawei/extra/build/build_script/austin_kernel_release/kernel/include/linux/quota.h"
	.file 95 "/home/jenkins/slave-135/workspace/chipset_component_CHICAGO_B100_Open_Source/component_code/vendor/huawei/extra/build/build_script/austin_kernel_release/kernel/include/linux/projid.h"
	.file 96 "/home/jenkins/slave-135/workspace/chipset_component_CHICAGO_B100_Open_Source/component_code/vendor/huawei/extra/build/build_script/austin_kernel_release/kernel/include/uapi/linux/quota.h"
	.file 97 "/home/jenkins/slave-135/workspace/chipset_component_CHICAGO_B100_Open_Source/component_code/vendor/huawei/extra/build/build_script/austin_kernel_release/kernel/include/linux/path.h"
	.file 98 "/home/jenkins/slave-135/workspace/chipset_component_CHICAGO_B100_Open_Source/component_code/vendor/huawei/extra/build/build_script/austin_kernel_release/kernel/include/linux/list_bl.h"
	.file 99 "/home/jenkins/slave-135/workspace/chipset_component_CHICAGO_B100_Open_Source/component_code/vendor/huawei/extra/build/build_script/austin_kernel_release/kernel/include/linux/lockref.h"
	.file 100 "/home/jenkins/slave-135/workspace/chipset_component_CHICAGO_B100_Open_Source/component_code/vendor/huawei/extra/build/build_script/austin_kernel_release/kernel/include/linux/list_lru.h"
	.file 101 "/home/jenkins/slave-135/workspace/chipset_component_CHICAGO_B100_Open_Source/component_code/vendor/huawei/extra/build/build_script/austin_kernel_release/kernel/include/linux/radix-tree.h"
	.file 102 "/home/jenkins/slave-135/workspace/chipset_component_CHICAGO_B100_Open_Source/component_code/vendor/huawei/extra/build/build_script/austin_kernel_release/kernel/include/uapi/linux/fiemap.h"
	.file 103 "/home/jenkins/slave-135/workspace/chipset_component_CHICAGO_B100_Open_Source/component_code/vendor/huawei/extra/build/build_script/austin_kernel_release/kernel/include/linux/migrate_mode.h"
	.file 104 "/home/jenkins/slave-135/workspace/chipset_component_CHICAGO_B100_Open_Source/component_code/vendor/huawei/extra/build/build_script/austin_kernel_release/kernel/include/linux/blk_types.h"
	.file 105 "/home/jenkins/slave-135/workspace/chipset_component_CHICAGO_B100_Open_Source/component_code/vendor/huawei/extra/build/build_script/austin_kernel_release/kernel/include/linux/uio.h"
	.file 106 "/home/jenkins/slave-135/workspace/chipset_component_CHICAGO_B100_Open_Source/component_code/vendor/huawei/extra/build/build_script/austin_kernel_release/kernel/include/linux/nfs_fs_i.h"
	.file 107 "/home/jenkins/slave-135/workspace/chipset_component_CHICAGO_B100_Open_Source/component_code/vendor/huawei/extra/build/build_script/austin_kernel_release/kernel/include/linux/poll.h"
	.file 108 "/home/jenkins/slave-135/workspace/chipset_component_CHICAGO_B100_Open_Source/component_code/vendor/huawei/extra/build/build_script/austin_kernel_release/kernel/include/linux/seq_buf.h"
	.file 109 "/home/jenkins/slave-135/workspace/chipset_component_CHICAGO_B100_Open_Source/component_code/vendor/huawei/extra/build/build_script/austin_kernel_release/kernel/include/linux/trace_seq.h"
	.file 110 "/home/jenkins/slave-135/workspace/chipset_component_CHICAGO_B100_Open_Source/component_code/vendor/huawei/extra/build/build_script/austin_kernel_release/kernel/include/uapi/linux/perf_event.h"
	.file 111 "/home/jenkins/slave-135/workspace/chipset_component_CHICAGO_B100_Open_Source/component_code/vendor/huawei/extra/build/build_script/austin_kernel_release/kernel/include/asm-generic/local.h"
	.file 112 "/home/jenkins/slave-135/workspace/chipset_component_CHICAGO_B100_Open_Source/component_code/vendor/huawei/extra/build/build_script/austin_kernel_release/kernel/include/asm-generic/local64.h"
	.file 113 "/home/jenkins/slave-135/workspace/chipset_component_CHICAGO_B100_Open_Source/component_code/vendor/huawei/extra/build/build_script/austin_kernel_release/kernel/include/uapi/linux/uio.h"
	.file 114 "/home/jenkins/slave-135/workspace/chipset_component_CHICAGO_B100_Open_Source/component_code/vendor/huawei/extra/build/build_script/austin_kernel_release/kernel/include/linux/ftrace.h"
	.file 115 "/home/jenkins/slave-135/workspace/chipset_component_CHICAGO_B100_Open_Source/component_code/vendor/huawei/extra/build/build_script/austin_kernel_release/kernel/include/linux/klist.h"
	.file 116 "/home/jenkins/slave-135/workspace/chipset_component_CHICAGO_B100_Open_Source/component_code/vendor/huawei/extra/build/build_script/austin_kernel_release/kernel/include/linux/pinctrl/devinfo.h"
	.file 117 "/home/jenkins/slave-135/workspace/chipset_component_CHICAGO_B100_Open_Source/component_code/vendor/huawei/extra/build/build_script/austin_kernel_release/kernel/include/linux/pm.h"
	.file 118 "/home/jenkins/slave-135/workspace/chipset_component_CHICAGO_B100_Open_Source/component_code/vendor/huawei/extra/build/build_script/austin_kernel_release/kernel/include/linux/device.h"
	.file 119 "/home/jenkins/slave-135/workspace/chipset_component_CHICAGO_B100_Open_Source/component_code/vendor/huawei/extra/build/build_script/austin_kernel_release/kernel/include/linux/pm_wakeup.h"
	.file 120 "/home/jenkins/slave-135/workspace/chipset_component_CHICAGO_B100_Open_Source/component_code/vendor/huawei/extra/build/build_script/austin_kernel_release/kernel/arch/arm64/include/asm/device.h"
	.file 121 "/home/jenkins/slave-135/workspace/chipset_component_CHICAGO_B100_Open_Source/component_code/vendor/huawei/extra/build/build_script/austin_kernel_release/kernel/include/linux/irq_work.h"
	.file 122 "/home/jenkins/slave-135/workspace/chipset_component_CHICAGO_B100_Open_Source/component_code/vendor/huawei/extra/build/build_script/austin_kernel_release/kernel/include/linux/jump_label_ratelimit.h"
	.file 123 "/home/jenkins/slave-135/workspace/chipset_component_CHICAGO_B100_Open_Source/component_code/vendor/huawei/extra/build/build_script/austin_kernel_release/kernel/include/linux/perf_regs.h"
	.file 124 "/home/jenkins/slave-135/workspace/chipset_component_CHICAGO_B100_Open_Source/component_code/vendor/huawei/extra/build/build_script/austin_kernel_release/kernel/include/linux/percpu-refcount.h"
	.file 125 "/home/jenkins/slave-135/workspace/chipset_component_CHICAGO_B100_Open_Source/component_code/vendor/huawei/extra/build/build_script/austin_kernel_release/kernel/include/linux/interrupt.h"
	.file 126 "/home/jenkins/slave-135/workspace/chipset_component_CHICAGO_B100_Open_Source/component_code/vendor/huawei/extra/build/build_script/austin_kernel_release/kernel/drivers/vcodec/hi_vcodec/vdec/vfmw/vfmw_v4.0/firmware/common/public.h"
	.file 127 "/home/jenkins/slave-135/workspace/chipset_component_CHICAGO_B100_Open_Source/component_code/vendor/huawei/extra/build/build_script/austin_kernel_release/kernel/arch/arm64/include/asm/cachetype.h"
	.file 128 "/home/jenkins/slave-135/workspace/chipset_component_CHICAGO_B100_Open_Source/component_code/vendor/huawei/extra/build/build_script/austin_kernel_release/kernel/include/linux/printk.h"
	.file 129 "/home/jenkins/slave-135/workspace/chipset_component_CHICAGO_B100_Open_Source/component_code/vendor/huawei/extra/build/build_script/austin_kernel_release/kernel/include/linux/kernel.h"
	.file 130 "/home/jenkins/slave-135/workspace/chipset_component_CHICAGO_B100_Open_Source/component_code/vendor/huawei/extra/build/build_script/austin_kernel_release/kernel/arch/arm64/include/asm/thread_info.h"
	.file 131 "/home/jenkins/slave-135/workspace/chipset_component_CHICAGO_B100_Open_Source/component_code/vendor/huawei/extra/build/build_script/austin_kernel_release/kernel/include/chipset_common/kernel_harden/kaslr.h"
	.file 132 "/home/jenkins/slave-135/workspace/chipset_component_CHICAGO_B100_Open_Source/component_code/vendor/huawei/extra/build/build_script/austin_kernel_release/kernel/arch/arm64/include/asm/hwcap.h"
	.file 133 "/home/jenkins/slave-135/workspace/chipset_component_CHICAGO_B100_Open_Source/component_code/vendor/huawei/extra/build/build_script/austin_kernel_release/kernel/arch/arm64/include/asm/memory.h"
	.file 134 "/home/jenkins/slave-135/workspace/chipset_component_CHICAGO_B100_Open_Source/component_code/vendor/huawei/extra/build/build_script/austin_kernel_release/kernel/include/linux/jiffies.h"
	.file 135 "/home/jenkins/slave-135/workspace/chipset_component_CHICAGO_B100_Open_Source/component_code/vendor/huawei/extra/build/build_script/austin_kernel_release/kernel/arch/arm64/include/asm/smp.h"
	.file 136 "/home/jenkins/slave-135/workspace/chipset_component_CHICAGO_B100_Open_Source/component_code/vendor/huawei/extra/build/build_script/austin_kernel_release/kernel/include/asm-generic/percpu.h"
	.file 137 "/home/jenkins/slave-135/workspace/chipset_component_CHICAGO_B100_Open_Source/component_code/vendor/huawei/extra/build/build_script/austin_kernel_release/kernel/include/linux/debug_locks.h"
	.file 138 "/home/jenkins/slave-135/workspace/chipset_component_CHICAGO_B100_Open_Source/component_code/vendor/huawei/extra/build/build_script/austin_kernel_release/kernel/include/asm-generic/pgtable.h"
	.file 139 "/home/jenkins/slave-135/workspace/chipset_component_CHICAGO_B100_Open_Source/component_code/vendor/huawei/extra/build/build_script/austin_kernel_release/kernel/include/linux/highuid.h"
	.file 140 "/home/jenkins/slave-135/workspace/chipset_component_CHICAGO_B100_Open_Source/component_code/vendor/huawei/extra/build/build_script/austin_kernel_release/kernel/arch/arm64/include/asm/cpufeature.h"
	.file 141 "/home/jenkins/slave-135/workspace/chipset_component_CHICAGO_B100_Open_Source/component_code/vendor/huawei/extra/build/build_script/austin_kernel_release/kernel/arch/arm64/include/asm/hardirq.h"
	.file 142 "/home/jenkins/slave-135/workspace/chipset_component_CHICAGO_B100_Open_Source/component_code/vendor/huawei/extra/build/build_script/austin_kernel_release/kernel/include/linux/cgroup.h"
	.file 143 "/home/jenkins/slave-135/workspace/chipset_component_CHICAGO_B100_Open_Source/component_code/vendor/huawei/extra/build/build_script/austin_kernel_release/kernel/include/linux/slab.h"
	.section	.note.GNU-stack,"",%progbits
