	.cpu generic+fp+simd
	.file	"venc_regulator.c"
	.text
.Ltext0:
	.cfi_sections	.debug_frame
	.align	2
	.global	Venc_Regulator_Init
	.type	Venc_Regulator_Init, %function
Venc_Regulator_Init:
.LFB2163:
	.file 1 "/home/jenkins/slave-135/workspace/chipset_component_CHICAGO_B100_Open_Source/component_code/vendor/huawei/extra/build/build_script/austin_kernel_release/kernel/drivers/vcodec/hi_vcodec/venc/drv/venc/venc_regulator.c"
	.loc 1 240 0
	.cfi_startproc
.LVL0:
	stp	x29, x30, [sp, -176]!
	.cfi_def_cfa_offset 176
	.cfi_offset 29, -176
	.cfi_offset 30, -168
	add	x29, sp, 0
	.cfi_def_cfa_register 29
	stp	x25, x26, [sp,64]
	.cfi_offset 25, -112
	.cfi_offset 26, -104
	adrp	x26, __stack_chk_guard
	stp	x19, x20, [sp,16]
	.cfi_offset 19, -160
	.cfi_offset 20, -152
	mov	x20, x0
	ldr	x0, [x26,#:lo12:__stack_chk_guard]
.LVL1:
	stp	x21, x22, [sp,32]
	stp	x23, x24, [sp,48]
	stp	x27, x28, [sp,80]
	.cfi_offset 21, -144
	.cfi_offset 22, -136
	.cfi_offset 23, -128
	.cfi_offset 24, -120
	.cfi_offset 27, -96
	.cfi_offset 28, -88
	.loc 1 240 0
	str	x0, [x29,168]
	.loc 1 243 0
	cbz	x20, .L50
.LBB67:
.LBB68:
	.loc 1 203 0
	adrp	x24, .LC0
	adrp	x21, .LANCHOR0
	add	x25, x21, :lo12:.LANCHOR0
	add	x28, x24, :lo12:.LC0
	adrp	x4, .LC2
	mov	w0, 3
	mov	x1, x28
	mov	w2, 203
	add	x3, x25, 48
	add	x4, x4, :lo12:.LC2
	add	x5, x25, 72
	.loc 1 205 0
	adrp	x19, .LANCHOR1
	.loc 1 206 0
	add	x20, x20, 16
.LVL2:
	.loc 1 205 0
	add	x27, x19, :lo12:.LANCHOR1
	.loc 1 203 0
	bl	HI_PRINT
.LVL3:
	.loc 1 206 0
	adrp	x1, .LC3
	mov	x0, x20
	add	x1, x1, :lo12:.LC3
	.loc 1 205 0
	str	xzr, [x19,#:lo12:.LANCHOR1]
	.loc 1 206 0
	bl	devm_regulator_get
.LVL4:
	str	x0, [x19,#:lo12:.LANCHOR1]
	mov	x6, x0
.LBB69:
.LBB70:
	.file 2 "/home/jenkins/slave-135/workspace/chipset_component_CHICAGO_B100_Open_Source/component_code/vendor/huawei/extra/build/build_script/austin_kernel_release/kernel/include/linux/err.h"
	.loc 2 40 0
	cbz	x0, .L4
	.loc 2 40 0 is_stmt 0 discriminator 2
	cmn	x0, #4096
	bhi	.L4
.LBE70:
.LBE69:
.LBE68:
.LBE67:
.LBB72:
.LBB73:
	.loc 1 49 0 is_stmt 1
	ldr	x0, [x20,160]
	bl	iommu_domain_alloc
.LVL5:
	mov	x22, x0
.LVL6:
	.loc 1 50 0
	cbz	x0, .L51
	.loc 1 56 0
	mov	x1, x20
	bl	iommu_attach_device
.LVL7:
	.loc 1 57 0
	cbnz	w0, .L52
	.loc 1 64 0
	ldr	x0, [x22,64]
.LVL8:
	.loc 1 62 0
	str	x22, [x27,8]
	.loc 1 65 0
	cbz	x0, .L9
	.loc 1 68 0
	ldr	x6, [x0,8]
	adrp	x4, .LC6
.LBE73:
.LBE72:
	.loc 1 266 0
	add	x23, x27, 16
.LBB77:
.LBB74:
	.loc 1 68 0
	mov	w0, 3
.LVL9:
	mov	x1, x28
	mov	w2, 68
	add	x3, x25, 96
	add	x4, x4, :lo12:.LC6
	add	x5, x25, 120
	bl	HI_PRINT
.LVL10:
.LBE74:
.LBE77:
.LBB78:
.LBB79:
	.loc 1 115 0
	ldr	x22, [x20,664]
.LVL11:
.LBE79:
.LBE78:
	.loc 1 266 0
	stp	xzr, xzr, [x27,16]
	stp	xzr, xzr, [x23,16]
	stp	xzr, xzr, [x23,32]
.LBB106:
.LBB100:
	.loc 1 99 0
	str	wzr, [x29,104]
.LVL12:
	.loc 1 100 0
	str	wzr, [x29,108]
.LVL13:
	.loc 1 117 0
	stp	xzr, xzr, [x29,112]
	stp	xzr, xzr, [x29,128]
	stp	xzr, xzr, [x29,144]
	str	xzr, [x29,160]
	.loc 1 118 0
	cbz	x22, .L10
	cbz	x23, .L10
	.loc 1 125 0
	mov	x0, x22
	mov	w1, 0
	bl	irq_of_parse_and_map
.LVL14:
	str	w0, [x23,4]
	.loc 1 126 0
	cbz	w0, .L53
	.loc 1 132 0
	mov	x0, x22
	mov	w1, 1
	bl	irq_of_parse_and_map
.LVL15:
	str	w0, [x23,8]
	.loc 1 133 0
	cbz	w0, .L54
	.loc 1 140 0
	mov	x0, x22
	mov	w1, 0
	add	x2, x29, 112
	bl	of_address_to_resource
.LVL16:
	mov	w6, w0
	.loc 1 141 0
	cbnz	w0, .L55
	ldr	x2, [x29,120]
	.loc 1 146 0
	add	x25, x19, :lo12:.LANCHOR1
	ldr	x3, [x29,112]
	add	x23, x25, 16
	.loc 1 150 0
	adrp	x1, .LC11
	add	x2, x2, 1
.LBB80:
.LBB81:
	.file 3 "/home/jenkins/slave-135/workspace/chipset_component_CHICAGO_B100_Open_Source/component_code/vendor/huawei/extra/build/build_script/austin_kernel_release/kernel/include/linux/ioport.h"
	.loc 3 166 0
	sub	x2, x2, x3
.LBE81:
.LBE80:
	.loc 1 150 0
	add	x1, x1, :lo12:.LC11
	mov	x0, x20
	.loc 1 146 0
	str	w3, [x23,20]
	.loc 1 147 0
	str	w2, [x23,24]
	.loc 1 150 0
	bl	devm_clk_get
.LVL17:
	mov	x27, x0
.LVL18:
	.loc 1 151 0
	adrp	x1, .LC12
	mov	x0, x20
	add	x1, x1, :lo12:.LC12
	bl	devm_clk_get
.LVL19:
	mov	x5, x0
.LVL20:
.LBB82:
.LBB83:
	.loc 2 40 0
	cbz	x0, .L16
.LBE83:
.LBE82:
.LBB84:
.LBB85:
	cmn	x0, #4096
	bhi	.L16
	cbz	x27, .L16
	.loc 2 40 0 is_stmt 0 discriminator 2
	cmn	x27, #4096
	bhi	.L16
.LBE85:
.LBE84:
	.loc 1 160 0 is_stmt 1
	adrp	x20, .LC26
	mov	w2, 0
	add	x20, x20, :lo12:.LC26
	add	x3, x29, 104
	mov	x1, x20
	mov	x0, x22
	.loc 1 158 0
	str	x5, [x25,72]
	.loc 1 157 0
	str	x27, [x25,64]
	.loc 1 160 0
	bl	of_property_read_u32_index
.LVL21:
	.loc 1 161 0
	mov	x1, x20
	.loc 1 160 0
	mov	w25, w0
	.loc 1 161 0
	mov	w2, 1
	mov	x0, x22
	add	x3, x29, 108
	bl	of_property_read_u32_index
.LVL22:
	.loc 1 162 0
	adds	w6, w25, w0
	bne	.L56
	.loc 1 167 0
	ldr	w4, [x29,108]
.LBB86:
.LBB87:
	.file 4 "/home/jenkins/slave-135/workspace/chipset_component_CHICAGO_B100_Open_Source/component_code/vendor/huawei/extra/build/build_script/austin_kernel_release/kernel/include/linux/of.h"
	.loc 4 855 0
	adrp	x1, .LC15
.LVL23:
.LBE87:
.LBE86:
	.loc 1 167 0
	str	w4, [x23,28]
.LBB91:
.LBB88:
	.loc 4 855 0
	mov	x0, x22
.LBE88:
.LBE91:
	.loc 1 168 0
	ldr	w4, [x29,104]
.LVL24:
.LBB92:
.LBB89:
	.loc 4 855 0
	add	x1, x1, :lo12:.LC15
	mov	x2, x23
	mov	x3, 1
.LVL25:
.LBE89:
.LBE92:
	.loc 1 168 0
	str	w4, [x23,32]
.LBB93:
.LBB90:
	.loc 4 855 0
	bl	of_property_read_u32_array
.LVL26:
.LBE90:
.LBE93:
	.loc 1 172 0
	cbnz	w0, .L57
.LBB94:
.LBB95:
	.loc 4 855 0
	adrp	x20, .LANCHOR2
	adrp	x1, .LC17
	mov	x0, x22
	add	x1, x1, :lo12:.LC17
	add	x2, x20, :lo12:.LANCHOR2
	mov	x3, 1
	bl	of_property_read_u32_array
.LVL27:
.LBE95:
.LBE94:
	.loc 1 179 0
	cbnz	w0, .L58
.L19:
	.loc 1 185 0
	add	x7, x19, :lo12:.LANCHOR1
	ldr	x0, [x7,8]
	ldr	x0, [x0,64]
.LVL28:
	.loc 1 186 0
	cbz	x0, .L20
.L62:
	.loc 1 188 0
	ldr	x8, [x0,8]
	.loc 1 189 0
	add	x5, x21, :lo12:.LANCHOR0
	adrp	x4, .LC19
	add	x3, x5, 144
	mov	w0, 3
.LVL29:
	add	x1, x24, :lo12:.LC0
	mov	w2, 189
	add	x4, x4, :lo12:.LC19
	add	x5, x5, 168
	mov	x6, x8
	.loc 1 188 0
	str	x8, [x7,56]
	.loc 1 189 0
	bl	HI_PRINT
.LVL30:
.L20:
	.loc 1 192 0
	add	x0, x19, :lo12:.LANCHOR1
.LVL31:
	add	x0, x0, 16
	ldr	x1, [x0,40]
	cbz	x1, .L59
.LBE100:
.LBE106:
	.loc 1 275 0
	bl	VENC_SetDtsConfig
.LVL32:
	.loc 1 276 0
	cbnz	w0, .L60
	.loc 1 282 0
	add	x3, x21, :lo12:.LANCHOR0
	adrp	x4, .LC22
	mov	w0, 3
	add	x1, x24, :lo12:.LC0
	mov	w2, 282
	add	x4, x4, :lo12:.LC22
	add	x5, x3, 24
	bl	HI_PRINT
.LVL33:
	.loc 1 283 0
	mov	w0, 0
.LVL34:
.L3:
	.loc 1 284 0
	ldr	x2, [x29,168]
	ldr	x1, [x26,#:lo12:__stack_chk_guard]
	cmp	x2, x1
	bne	.L61
	ldp	x19, x20, [sp,16]
	.cfi_remember_state
	.cfi_restore 20
	.cfi_restore 19
.LVL35:
	ldp	x21, x22, [sp,32]
	.cfi_restore 22
	.cfi_restore 21
.LVL36:
	ldp	x23, x24, [sp,48]
	.cfi_restore 24
	.cfi_restore 23
	ldp	x25, x26, [sp,64]
	.cfi_restore 26
	.cfi_restore 25
	ldp	x27, x28, [sp,80]
	.cfi_restore 28
	.cfi_restore 27
.LVL37:
	ldp	x29, x30, [sp], 176
	.cfi_restore 30
	.cfi_restore 29
	.cfi_def_cfa 31, 0
	ret
.LVL38:
.L58:
	.cfi_restore_state
.LBB107:
.LBB101:
	.loc 1 182 0
	add	x3, x21, :lo12:.LANCHOR0
	adrp	x4, .LC18
	mov	w0, 1
	.loc 1 181 0
	mov	w5, 2
	.loc 1 182 0
	add	x1, x24, :lo12:.LC0
	mov	w2, 182
	add	x3, x3, 144
	add	x4, x4, :lo12:.LC18
	.loc 1 181 0
	str	w5, [x20,#:lo12:.LANCHOR2]
	.loc 1 182 0
	bl	HI_PRINT
.LVL39:
	.loc 1 185 0
	add	x7, x19, :lo12:.LANCHOR1
	ldr	x0, [x7,8]
	ldr	x0, [x0,64]
.LVL40:
	.loc 1 186 0
	cbnz	x0, .L62
	b	.L20
.LVL41:
.L57:
	.loc 1 174 0
	add	x5, x21, :lo12:.LANCHOR0
	adrp	x4, .LC16
	add	x3, x5, 144
	mov	w0, 3
	add	x1, x24, :lo12:.LC0
	mov	w2, 174
	add	x4, x4, :lo12:.LC16
	add	x5, x5, 168
.LBB98:
.LBB96:
	.loc 4 855 0
	adrp	x20, .LANCHOR2
.LBE96:
.LBE98:
	.loc 1 174 0
	bl	HI_PRINT
.LVL42:
.LBB99:
.LBB97:
	.loc 4 855 0
	adrp	x1, .LC17
	mov	x0, x22
	add	x1, x1, :lo12:.LC17
	add	x2, x20, :lo12:.LANCHOR2
	mov	x3, 1
	bl	of_property_read_u32_array
.LVL43:
.LBE97:
.LBE99:
	.loc 1 179 0
	cbz	w0, .L19
	b	.L58
.LVL44:
.L4:
.LBE101:
.LBE107:
.LBB108:
.LBB71:
	.loc 1 209 0 discriminator 1
	add	x21, x21, :lo12:.LANCHOR0
	add	x24, x24, :lo12:.LC0
	adrp	x4, .LC23
	mov	w0, 1
	mov	x1, x24
	mov	w2, 209
	add	x3, x21, 48
	add	x4, x4, :lo12:.LC23
	add	x5, x21, 72
	bl	HI_PRINT
.LVL45:
	.loc 1 210 0
	str	xzr, [x19,#:lo12:.LANCHOR1]
.LBE71:
.LBE108:
	.loc 1 253 0
	adrp	x4, .LC24
	mov	w0, 1
	mov	x1, x24
	mov	w2, 253
	mov	x3, x21
	add	x4, x4, :lo12:.LC24
	add	x5, x21, 24
	bl	HI_PRINT
.LVL46:
	.loc 1 254 0
	mov	w0, -1
	b	.L3
.LVL47:
.L16:
.LBB109:
.LBB102:
	.loc 1 154 0
	add	x3, x21, :lo12:.LANCHOR0
	adrp	x4, .LC13
	mov	w0, 1
.LVL48:
	add	x1, x24, :lo12:.LC0
	mov	w2, 154
	add	x3, x3, 144
	add	x4, x4, :lo12:.LC13
	mov	x6, x27
	bl	HI_PRINT
.LVL49:
.L12:
.LBE102:
.LBE109:
	.loc 1 270 0
	add	x3, x21, :lo12:.LANCHOR0
	adrp	x4, .LC27
	mov	w0, 1
	add	x1, x24, :lo12:.LC0
	mov	w2, 270
	add	x4, x4, :lo12:.LC27
	add	x5, x3, 24
	bl	HI_PRINT
.LVL50:
	.loc 1 271 0
	mov	w0, -1
	b	.L3
.LVL51:
.L10:
.LBB110:
.LBB103:
	.loc 1 120 0
	add	x3, x21, :lo12:.LANCHOR0
	add	x6, x19, :lo12:.LANCHOR1
	adrp	x4, .LC7
	mov	w0, 1
	add	x1, x24, :lo12:.LC0
	mov	w2, 120
	add	x3, x3, 144
	add	x4, x4, :lo12:.LC7
	mov	x5, x22
	add	x6, x6, 16
	bl	HI_PRINT
.LVL52:
	b	.L12
.LVL53:
.L60:
.LBE103:
.LBE110:
	.loc 1 278 0
	add	x3, x21, :lo12:.LANCHOR0
	adrp	x4, .LC21
	mov	w0, 1
	add	x1, x24, :lo12:.LC0
	mov	w2, 278
	add	x4, x4, :lo12:.LC21
	add	x5, x3, 24
	bl	HI_PRINT
.LVL54:
	.loc 1 279 0
	mov	w0, -1
	b	.L3
.LVL55:
.L53:
.LBB111:
.LBB104:
	.loc 1 128 0
	adrp	x4, .LC8
	mov	w0, 1
	mov	x1, x28
	mov	w2, 128
	add	x3, x25, 144
	add	x4, x4, :lo12:.LC8
	add	x5, x25, 168
	bl	HI_PRINT
.LVL56:
	b	.L12
.L54:
	.loc 1 135 0
	add	x5, x21, :lo12:.LANCHOR0
	adrp	x4, .LC9
	add	x3, x5, 144
	mov	w0, 1
	add	x1, x24, :lo12:.LC0
	mov	w2, 135
	add	x4, x4, :lo12:.LC9
	add	x5, x5, 168
	bl	HI_PRINT
.LVL57:
	b	.L12
.L55:
	.loc 1 143 0
	add	x5, x21, :lo12:.LANCHOR0
	adrp	x4, .LC10
	add	x3, x5, 144
	mov	w0, 1
	add	x1, x24, :lo12:.LC0
	mov	w2, 143
	add	x4, x4, :lo12:.LC10
	add	x5, x5, 168
	bl	HI_PRINT
.LVL58:
	b	.L12
.LVL59:
.L56:
	.loc 1 164 0
	add	x5, x21, :lo12:.LANCHOR0
	adrp	x4, .LC14
	add	x3, x5, 144
	mov	w0, 1
	add	x1, x24, :lo12:.LC0
	mov	w2, 164
	add	x4, x4, :lo12:.LC14
	add	x5, x5, 168
	bl	HI_PRINT
.LVL60:
	b	.L12
.LVL61:
.L52:
.LBE104:
.LBE111:
.LBB112:
.LBB75:
	.loc 1 59 0
	adrp	x4, .LC5
	mov	w0, 1
	mov	x1, x28
	mov	w2, 59
	add	x3, x25, 96
	add	x4, x4, :lo12:.LC5
	bl	HI_PRINT
.LVL62:
.L8:
	.loc 1 80 0
	mov	x0, x22
	bl	iommu_domain_free
.LVL63:
.L6:
.LBE75:
.LBE112:
	.loc 1 261 0
	add	x3, x21, :lo12:.LANCHOR0
	adrp	x4, .LC25
	mov	w0, 1
	add	x1, x24, :lo12:.LC0
	mov	w2, 261
	add	x4, x4, :lo12:.LC25
	add	x5, x3, 24
	bl	HI_PRINT
.LVL64:
	.loc 1 262 0
	mov	w0, -1
	b	.L3
.LVL65:
.L59:
.LBB113:
.LBB105:
	.loc 1 194 0
	add	x5, x21, :lo12:.LANCHOR0
	adrp	x4, .LC20
	add	x3, x5, 144
	mov	w0, 1
	add	x1, x24, :lo12:.LC0
	mov	w2, 194
	add	x4, x4, :lo12:.LC20
	add	x5, x5, 168
	bl	HI_PRINT
.LVL66:
	b	.L12
.LVL67:
.L50:
.LBE105:
.LBE113:
	.loc 1 245 0
	adrp	x3, .LANCHOR0
	adrp	x1, .LC0
	add	x3, x3, :lo12:.LANCHOR0
	adrp	x4, .LC1
	mov	w0, 1
	add	x1, x1, :lo12:.LC0
	mov	w2, 245
	add	x4, x4, :lo12:.LC1
	add	x5, x3, 24
	bl	HI_PRINT
.LVL68:
	.loc 1 246 0
	mov	w0, -1
	b	.L3
.LVL69:
.L51:
.LBB114:
.LBB76:
	.loc 1 51 0
	adrp	x4, .LC4
	mov	w0, 1
.LVL70:
	mov	x1, x28
	mov	w2, 51
	add	x3, x25, 96
	add	x4, x4, :lo12:.LC4
	add	x5, x25, 120
	bl	HI_PRINT
.LVL71:
	b	.L6
.LVL72:
.L9:
	.loc 1 78 0
	mov	x0, x22
.LVL73:
	mov	x1, x20
	bl	iommu_detach_device
.LVL74:
	b	.L8
.LVL75:
.L61:
.LBE76:
.LBE114:
	.loc 1 284 0
	bl	__stack_chk_fail
.LVL76:
	.cfi_endproc
.LFE2163:
	.size	Venc_Regulator_Init, .-Venc_Regulator_Init
	.align	2
	.global	Venc_Regulator_Deinit
	.type	Venc_Regulator_Deinit, %function
Venc_Regulator_Deinit:
.LFB2164:
	.loc 1 287 0
	.cfi_startproc
.LVL77:
	stp	x29, x30, [sp, -32]!
	.cfi_def_cfa_offset 32
	.cfi_offset 29, -32
	.cfi_offset 30, -24
	add	x29, sp, 0
	.cfi_def_cfa_register 29
	str	x19, [sp,16]
	.cfi_offset 19, -16
	.loc 1 288 0
	cbz	x0, .L63
.LBB117:
.LBB118:
	.loc 1 86 0
	adrp	x19, .LANCHOR1
	add	x19, x19, :lo12:.LANCHOR1
	ldr	x2, [x19,8]
	cbz	x2, .L63
	mov	x1, x0
	.loc 1 88 0
	mov	x0, x2
.LVL78:
	add	x1, x1, 16
.LVL79:
	bl	iommu_detach_device
.LVL80:
	.loc 1 89 0
	ldr	x0, [x19,8]
	bl	iommu_domain_free
.LVL81:
	.loc 1 90 0
	str	xzr, [x19,8]
.LVL82:
.L63:
.LBE118:
.LBE117:
	.loc 1 294 0
	ldr	x19, [sp,16]
	.cfi_restore 19
	ldp	x29, x30, [sp], 32
	.cfi_restore 30
	.cfi_restore 29
	.cfi_def_cfa 31, 0
	ret
	.cfi_endproc
.LFE2164:
	.size	Venc_Regulator_Deinit, .-Venc_Regulator_Deinit
	.align	2
	.global	Venc_Regulator_Enable
	.type	Venc_Regulator_Enable, %function
Venc_Regulator_Enable:
.LFB2165:
	.loc 1 297 0
	.cfi_startproc
	stp	x29, x30, [sp, -48]!
	.cfi_def_cfa_offset 48
	.cfi_offset 29, -48
	.cfi_offset 30, -40
	add	x29, sp, 0
	.cfi_def_cfa_register 29
	stp	x19, x20, [sp,16]
	.cfi_offset 19, -32
	.cfi_offset 20, -24
	.loc 1 300 0
	adrp	x20, .LANCHOR1
	.loc 1 297 0
	str	x21, [sp,32]
	.cfi_offset 21, -16
	.loc 1 300 0
	add	x19, x20, :lo12:.LANCHOR1
	ldr	w0, [x19,80]
	cmp	w0, 1
	beq	.L89
	.loc 1 305 0
	ldr	x5, [x19,64]
.LBB134:
.LBB135:
	.loc 2 40 0
	cbz	x5, .L75
	.loc 2 40 0 is_stmt 0 discriminator 2
	cmn	x5, #4096
	bhi	.L75
.LBE135:
.LBE134:
	.loc 1 305 0 is_stmt 1 discriminator 1
	ldr	x6, [x19,72]
	ldr	x7, [x20,#:lo12:.LANCHOR1]
.LBB136:
.LBB137:
	.loc 2 40 0
	cbz	x6, .L74
	.loc 2 40 0 is_stmt 0 discriminator 2
	cmn	x6, #4096
	bhi	.L74
.LBE137:
.LBE136:
.LBB138:
.LBB139:
	.loc 2 40 0
	cbz	x7, .L74
	.loc 2 40 0 discriminator 2
	cmn	x7, #4096
	bhi	.L74
.LBE139:
.LBE138:
	.loc 1 312 0 is_stmt 1
	ldr	w1, [x19,44]
	mov	x0, x5
	bl	clk_set_rate
.LVL83:
	.loc 1 313 0
	cbnz	w0, .L100
	.loc 1 319 0
	ldr	x19, [x19,64]
.LBB140:
.LBB141:
	.file 5 "/home/jenkins/slave-135/workspace/chipset_component_CHICAGO_B100_Open_Source/component_code/vendor/huawei/extra/build/build_script/austin_kernel_release/kernel/include/linux/clk.h"
	.loc 5 477 0
	mov	x0, x19
	bl	clk_prepare
.LVL84:
	.loc 5 478 0
	cbz	w0, .L101
.L79:
.LBE141:
.LBE140:
	.loc 1 322 0
	adrp	x3, .LANCHOR0
	adrp	x1, .LC0
	add	x3, x3, :lo12:.LANCHOR0
	adrp	x4, .LC34
	mov	w0, 1
	add	x1, x1, :lo12:.LC0
	mov	w2, 322
	add	x3, x3, 192
	add	x4, x4, :lo12:.LC34
	bl	HI_PRINT
.LVL85:
	.loc 1 323 0
	mov	w0, -1
.L94:
	.loc 1 369 0
	ldp	x19, x20, [sp,16]
	.cfi_remember_state
	.cfi_restore 20
	.cfi_restore 19
	ldr	x21, [sp,32]
	.cfi_restore 21
	ldp	x29, x30, [sp], 48
	.cfi_restore 30
	.cfi_restore 29
	.cfi_def_cfa 31, 0
	ret
.L101:
	.cfi_restore_state
.LBB144:
.LBB142:
	.loc 5 480 0
	mov	x0, x19
	bl	clk_enable
.LVL86:
	.loc 5 481 0
	cbnz	w0, .L102
.LBE142:
.LBE144:
	.loc 1 340 0
	ldr	x0, [x20,#:lo12:.LANCHOR1]
	add	x19, x20, :lo12:.LANCHOR1
	bl	regulator_enable
.LVL87:
	.loc 1 341 0
	cbnz	w0, .L103
.LBB145:
.LBB146:
	.loc 1 222 0
	mov	x0, 12
	mov	x2, 1799
	movk	x0, 0xe894, lsl 16
	movk	x2, 0x60, lsl 48
	mov	x1, 4
	bl	__ioremap
.LVL88:
	.loc 1 223 0
	cbz	x0, .L82
.LBB147:
	.loc 1 225 0
#APP
// 225 "/home/jenkins/slave-135/workspace/chipset_component_CHICAGO_B100_Open_Source/component_code/vendor/huawei/extra/build/build_script/austin_kernel_release/kernel/drivers/vcodec/hi_vcodec/venc/drv/venc/venc_regulator.c" 1
	dsb st
// 0 "" 2
#NO_APP
	adrp	x2, .LANCHOR2
.LBB148:
.LBB149:
	.file 6 "/home/jenkins/slave-135/workspace/chipset_component_CHICAGO_B100_Open_Source/component_code/vendor/huawei/extra/build/build_script/austin_kernel_release/kernel/arch/arm64/include/asm/io.h"
	.loc 6 55 0
	ldr	w2, [x2,#:lo12:.LANCHOR2]
#APP
// 55 "/home/jenkins/slave-135/workspace/chipset_component_CHICAGO_B100_Open_Source/component_code/vendor/huawei/extra/build/build_script/austin_kernel_release/kernel/arch/arm64/include/asm/io.h" 1
	str w2, [x0]
// 0 "" 2
#NO_APP
.LBE149:
.LBE148:
.LBE147:
	.loc 1 226 0
	bl	__iounmap
.LVL89:
.LBE146:
.LBE145:
	.loc 1 355 0
	adrp	x3, .LANCHOR0
	adrp	x1, .LC0
	add	x3, x3, :lo12:.LANCHOR0
	adrp	x4, .LC31
	.loc 1 354 0
	mov	w5, 1
	.loc 1 355 0
	mov	w0, 3
	add	x1, x1, :lo12:.LC0
	mov	w2, 355
	add	x3, x3, 192
	add	x4, x4, :lo12:.LC31
	.loc 1 354 0
	str	w5, [x19,80]
	.loc 1 355 0
	bl	HI_PRINT
.LVL90:
	.loc 1 369 0
	ldr	x21, [sp,32]
	.cfi_remember_state
	.cfi_restore 21
	.loc 1 356 0
	mov	w0, 0
	.loc 1 369 0
	ldp	x19, x20, [sp,16]
	.cfi_restore 19
	.cfi_restore 20
	ldp	x29, x30, [sp], 48
	.cfi_restore 29
	.cfi_restore 30
	.cfi_def_cfa 31, 0
	ret
.L89:
	.cfi_restore_state
	.loc 1 302 0
	mov	w0, 0
	.loc 1 369 0
	ldr	x21, [sp,32]
	.cfi_remember_state
	.cfi_restore 21
	ldp	x19, x20, [sp,16]
	.cfi_restore 19
	.cfi_restore 20
	ldp	x29, x30, [sp], 48
	.cfi_restore 29
	.cfi_restore 30
	.cfi_def_cfa 31, 0
	ret
.L75:
	.cfi_restore_state
	add	x0, x20, :lo12:.LANCHOR1
	ldr	x7, [x20,#:lo12:.LANCHOR1]
	ldr	x6, [x0,72]
.L74:
	.loc 1 307 0
	adrp	x3, .LANCHOR0
	adrp	x1, .LC0
	add	x3, x3, :lo12:.LANCHOR0
	adrp	x4, .LC28
	mov	w0, 1
	add	x1, x1, :lo12:.LC0
	mov	w2, 308
	add	x3, x3, 192
	add	x4, x4, :lo12:.LC28
	bl	HI_PRINT
.LVL91:
	.loc 1 369 0
	ldr	x21, [sp,32]
	.cfi_remember_state
	.cfi_restore 21
	.loc 1 309 0
	mov	w0, -1
	.loc 1 369 0
	ldp	x19, x20, [sp,16]
	.cfi_restore 19
	.cfi_restore 20
	ldp	x29, x30, [sp], 48
	.cfi_restore 29
	.cfi_restore 30
	.cfi_def_cfa 31, 0
	ret
.L102:
	.cfi_restore_state
.LBB151:
.LBB143:
	.loc 5 482 0
	mov	x0, x19
	bl	clk_unprepare
.LVL92:
	b	.L79
.L100:
.LBE143:
.LBE151:
	.loc 1 315 0
	adrp	x3, .LANCHOR0
	adrp	x1, .LC0
	add	x3, x3, :lo12:.LANCHOR0
	adrp	x4, .LC29
	mov	w0, 1
	add	x1, x1, :lo12:.LC0
	mov	w2, 315
	add	x3, x3, 192
	add	x4, x4, :lo12:.LC29
	bl	HI_PRINT
.LVL93:
	.loc 1 316 0
	mov	w0, -1
	b	.L94
.L103:
	.loc 1 343 0
	adrp	x3, .LANCHOR0
	adrp	x1, .LC0
	add	x3, x3, :lo12:.LANCHOR0
	adrp	x4, .LC30
	mov	w0, 1
	add	x1, x1, :lo12:.LC0
	mov	w2, 343
	add	x3, x3, 192
	add	x4, x4, :lo12:.LC30
	bl	HI_PRINT
.LVL94:
.L81:
	.loc 1 362 0
	add	x20, x20, :lo12:.LANCHOR1
	ldr	x19, [x20,72]
.LBB152:
.LBB153:
	.loc 5 490 0
	mov	x0, x19
	bl	clk_disable
.LVL95:
	.loc 5 491 0
	mov	x0, x19
	bl	clk_unprepare
.LVL96:
.LBE153:
.LBE152:
	.loc 1 368 0
	mov	w0, -1
	b	.L94
.LVL97:
.L82:
.LBB154:
.LBB150:
	.loc 1 232 0
	adrp	x21, .LC0
	adrp	x19, .LANCHOR0
	add	x21, x21, :lo12:.LC0
	add	x19, x19, :lo12:.LANCHOR0
	adrp	x4, .LC32
	mov	x1, x21
	add	x3, x19, 216
	mov	w0, 1
.LVL98:
	mov	w2, 232
	add	x4, x4, :lo12:.LC32
	bl	HI_PRINT
.LVL99:
.LBE150:
.LBE154:
	.loc 1 350 0
	adrp	x4, .LC33
	mov	w0, 1
	mov	x1, x21
	mov	w2, 350
	add	x3, x19, 192
	add	x4, x4, :lo12:.LC33
	bl	HI_PRINT
.LVL100:
	.loc 1 359 0
	adrp	x0, .LANCHOR1
	ldr	x0, [x0,#:lo12:.LANCHOR1]
	bl	regulator_disable
.LVL101:
	b	.L81
	.cfi_endproc
.LFE2165:
	.size	Venc_Regulator_Enable, .-Venc_Regulator_Enable
	.align	2
	.global	Venc_Regulator_Disable
	.type	Venc_Regulator_Disable, %function
Venc_Regulator_Disable:
.LFB2166:
	.loc 1 372 0
	.cfi_startproc
.LVL102:
	stp	x29, x30, [sp, -80]!
	.cfi_def_cfa_offset 80
	.cfi_offset 29, -80
	.cfi_offset 30, -72
	.loc 1 374 0
	adrp	x4, .LC35
	mov	w0, 4
.LVL103:
	.loc 1 372 0
	add	x29, sp, 0
	.cfi_def_cfa_register 29
	stp	x19, x20, [sp,16]
	.cfi_offset 19, -64
	.cfi_offset 20, -56
	.loc 1 374 0
	adrp	x20, .LANCHOR1
	.loc 1 372 0
	str	x25, [sp,64]
	stp	x23, x24, [sp,48]
	.cfi_offset 25, -16
	.cfi_offset 23, -32
	.cfi_offset 24, -24
	.loc 1 374 0
	adrp	x23, .LANCHOR0
	adrp	x25, .LC0
	add	x5, x23, :lo12:.LANCHOR0
	ldr	x6, [x20,#:lo12:.LANCHOR1]
	.loc 1 372 0
	stp	x21, x22, [sp,32]
	.cfi_offset 21, -48
	.cfi_offset 22, -40
	.loc 1 374 0
	add	x22, x5, 232
	add	x21, x25, :lo12:.LC0
	add	x19, x20, :lo12:.LANCHOR1
	mov	x1, x21
	mov	w2, 374
	mov	x3, x22
	add	x4, x4, :lo12:.LC35
	add	x5, x5, 256
	.loc 1 378 0
	mov	w24, 0
	.loc 1 374 0
	bl	HI_PRINT
.LVL104:
	.loc 1 376 0
	ldr	w0, [x19,80]
	cbz	w0, .L119
	.loc 1 381 0
	ldr	x5, [x19,64]
.LBB155:
.LBB156:
	.loc 2 40 0
	cbz	x5, .L108
	.loc 2 40 0 is_stmt 0 discriminator 2
	cmn	x5, #4096
	bhi	.L108
.LBE156:
.LBE155:
	.loc 1 381 0 is_stmt 1 discriminator 1
	ldr	x6, [x19,72]
	ldr	x7, [x20,#:lo12:.LANCHOR1]
.LBB157:
.LBB158:
	.loc 2 40 0
	cbz	x6, .L107
	.loc 2 40 0 is_stmt 0 discriminator 2
	cmn	x6, #4096
	bhi	.L107
.LBE158:
.LBE157:
.LBB159:
.LBB160:
	.loc 2 40 0
	cbz	x7, .L107
	.loc 2 40 0 discriminator 2
	cmn	x7, #4096
	bhi	.L107
.LBE160:
.LBE159:
	.loc 1 388 0 is_stmt 1
	mov	x0, x7
	bl	regulator_disable
.LVL105:
	.loc 1 389 0
	cbnz	w0, .L126
	.loc 1 395 0
	ldr	x20, [x19,64]
.LBB161:
.LBB162:
	.loc 5 490 0
	mov	x0, x20
	bl	clk_disable
.LVL106:
	.loc 5 491 0
	mov	x0, x20
	bl	clk_unprepare
.LVL107:
.LBE162:
.LBE161:
	.loc 1 406 0
	str	wzr, [x19,80]
	.loc 1 407 0
	adrp	x4, .LC37
	mov	w0, 3
	mov	x1, x21
	mov	w2, 407
	mov	x3, x22
	add	x4, x4, :lo12:.LC37
	bl	HI_PRINT
.LVL108:
.L119:
	.loc 1 410 0
	mov	w0, w24
	ldr	x25, [sp,64]
	.cfi_remember_state
	.cfi_restore 25
	ldp	x19, x20, [sp,16]
	.cfi_restore 20
	.cfi_restore 19
	ldp	x21, x22, [sp,32]
	.cfi_restore 22
	.cfi_restore 21
	ldp	x23, x24, [sp,48]
	.cfi_restore 24
	.cfi_restore 23
	ldp	x29, x30, [sp], 80
	.cfi_restore 30
	.cfi_restore 29
	.cfi_def_cfa 31, 0
	ret
.L108:
	.cfi_restore_state
	add	x0, x20, :lo12:.LANCHOR1
	ldr	x7, [x20,#:lo12:.LANCHOR1]
	ldr	x6, [x0,72]
.L107:
	.loc 1 383 0
	add	x3, x23, :lo12:.LANCHOR0
	adrp	x4, .LC28
	mov	w0, 1
	add	x1, x25, :lo12:.LC0
	mov	w2, 384
	add	x3, x3, 232
	add	x4, x4, :lo12:.LC28
	.loc 1 385 0
	mov	w24, -1
	.loc 1 383 0
	bl	HI_PRINT
.LVL109:
	.loc 1 385 0
	b	.L119
.L126:
	.loc 1 391 0
	adrp	x4, .LC36
	mov	w0, 1
	mov	x1, x21
	mov	w2, 391
	mov	x3, x22
	add	x4, x4, :lo12:.LC36
	.loc 1 392 0
	mov	w24, -1
	.loc 1 391 0
	bl	HI_PRINT
.LVL110:
	.loc 1 392 0
	b	.L119
	.cfi_endproc
.LFE2166:
	.size	Venc_Regulator_Disable, .-Venc_Regulator_Disable
	.align	2
	.global	Venc_SetRate
	.type	Venc_SetRate, %function
Venc_SetRate:
.LFB2167:
	.loc 1 413 0
	.cfi_startproc
.LVL111:
	stp	x29, x30, [sp, -16]!
	.cfi_def_cfa_offset 16
	.cfi_offset 29, -16
	.cfi_offset 30, -8
	add	x29, sp, 0
	.cfi_def_cfa_register 29
	.loc 1 416 0
	cbnz	w0, .L134
.L127:
	.loc 1 424 0
	ldp	x29, x30, [sp], 16
	.cfi_remember_state
	.cfi_restore 30
	.cfi_restore 29
	.cfi_def_cfa 31, 0
	ret
.L134:
	.cfi_restore_state
	.loc 1 418 0
	adrp	x1, .LANCHOR1
	add	x1, x1, :lo12:.LANCHOR1
	ldr	x0, [x1,64]
.LVL112:
	ldr	w1, [x1,48]
	bl	clk_set_rate
.LVL113:
	.loc 1 419 0
	cbz	w0, .L127
	.loc 1 421 0
	adrp	x3, .LANCHOR0
	adrp	x1, .LC0
	add	x3, x3, :lo12:.LANCHOR0
	adrp	x4, .LC38
	mov	w0, 1
	add	x1, x1, :lo12:.LC0
	mov	w2, 421
	add	x3, x3, 280
	add	x4, x4, :lo12:.LC38
	bl	HI_PRINT
.LVL114:
	.loc 1 424 0
	ldp	x29, x30, [sp], 16
	.cfi_restore 29
	.cfi_restore 30
	.cfi_def_cfa 31, 0
	ret
	.cfi_endproc
.LFE2167:
	.size	Venc_SetRate, .-Venc_SetRate
	.global	g_voltHold
	.global	g_hisi_mmu_domain
	.section	.rodata
	.align	3
.LANCHOR0 = . + 0
	.type	__FUNCTION__.32886, %object
	.size	__FUNCTION__.32886, 20
__FUNCTION__.32886:
	.string	"Venc_Regulator_Init"
	.zero	4
	.type	__func__.32887, %object
	.size	__func__.32887, 20
__func__.32887:
	.string	"Venc_Regulator_Init"
	.zero	4
	.type	__FUNCTION__.32874, %object
	.size	__FUNCTION__.32874, 19
__FUNCTION__.32874:
	.string	"Venc_Regulator_Get"
	.zero	5
	.type	__func__.32875, %object
	.size	__func__.32875, 19
__func__.32875:
	.string	"Venc_Regulator_Get"
	.zero	5
	.type	__FUNCTION__.32849, %object
	.size	__FUNCTION__.32849, 18
__FUNCTION__.32849:
	.string	"Venc_Enable_Iommu"
	.zero	6
	.type	__func__.32850, %object
	.size	__func__.32850, 18
__func__.32850:
	.string	"Venc_Enable_Iommu"
	.zero	6
	.type	__FUNCTION__.32869, %object
	.size	__FUNCTION__.32869, 22
__FUNCTION__.32869:
	.string	"Venc_GetDtsConfigInfo"
	.zero	2
	.type	__func__.32870, %object
	.size	__func__.32870, 22
__func__.32870:
	.string	"Venc_GetDtsConfigInfo"
	.zero	2
	.type	__FUNCTION__.32895, %object
	.size	__FUNCTION__.32895, 22
__FUNCTION__.32895:
	.string	"Venc_Regulator_Enable"
	.zero	2
	.type	__FUNCTION__.32881, %object
	.size	__FUNCTION__.32881, 16
__FUNCTION__.32881:
	.string	"Venc_config_QOS"
	.type	__FUNCTION__.32902, %object
	.size	__FUNCTION__.32902, 23
__FUNCTION__.32902:
	.string	"Venc_Regulator_Disable"
	.zero	1
	.type	__func__.32903, %object
	.size	__func__.32903, 23
__func__.32903:
	.string	"Venc_Regulator_Disable"
	.zero	1
	.type	__FUNCTION__.32908, %object
	.size	__FUNCTION__.32908, 13
__FUNCTION__.32908:
	.string	"Venc_SetRate"
	.data
	.align	2
.LANCHOR2 = . + 0
	.type	g_vencQosMode, %object
	.size	g_vencQosMode, 4
g_vencQosMode:
	.word	2
	.section	.rodata.str1.8,"aMS",%progbits,1
	.align	3
.LC0:
	.string	"/home/jenkins/slave-135/workspace/chipset_component_CHICAGO_B100_Open_Source/component_code/vendor/huawei/extra/build/build_script/austin_kernel_release/kernel/drivers/vcodec/hi_vcodec/venc/drv/venc/venc_regulator.c"
.LC1:
	.string	"%s, invalid argument!!\n"
.LC2:
	.string	"enter %s!\n"
	.zero	5
.LC3:
	.string	"ldo_venc"
	.zero	7
.LC4:
	.string	"%s, iommu_domain_alloc failed!\n"
.LC5:
	.string	"iommu_attach_device failed!\n"
	.zero	3
.LC6:
	.string	"%s, phy_pgd_base:0x%x\n"
	.zero	1
.LC7:
	.string	"invalid argument np:0x%x, pDtsConfig:0x%x \n"
	.zero	4
.LC8:
	.string	"%s, irq_of_parse_and_map VeduIrqNum failed!\n"
	.zero	3
.LC9:
	.string	"%s, irq_of_parse_and_map MmuIrqNum failed!\n"
	.zero	4
.LC10:
	.string	"%s of_address_to_resource failed! ret = %d\n"
	.zero	4
.LC11:
	.string	"clk_venc"
	.zero	7
.LC12:
	.string	"venc_volt_hold"
	.zero	1
.LC13:
	.string	"can not get venc clock, pvenc_volt = 0x%x, pvenc_clk = 0x%x!\n"
	.zero	2
.LC14:
	.string	"%s can not get venc rate, return %d\n"
	.zero	3
.LC15:
	.string	"venc_fpga"
	.zero	6
.LC16:
	.string	"%s, read failed!\n"
	.zero	6
.LC17:
	.string	"venc_qos_mode"
	.zero	2
.LC18:
	.string	"get venc qos mode failed set default!\n"
	.zero	1
.LC19:
	.string	"%s, SmmuPageBaseAddr:0x%x\n"
	.zero	5
.LC20:
	.string	"%s, Regulator_GetSmmuBasePhy failed!\n"
	.zero	2
.LC21:
	.string	"%s VENC_SetDtsConfig failed.\n"
	.zero	2
.LC22:
	.string	"exit %s()\n"
	.zero	5
.LC23:
	.string	"%s, get regulator failed, error no = %ld!\n"
	.zero	5
.LC24:
	.string	"%s, Venc_Regulator_Get failed!\n"
.LC25:
	.string	"%s, VENC_Enable_Iommu failed!\n"
	.zero	1
.LC26:
	.string	"enc_clk_rate"
	.zero	3
.LC27:
	.string	"%s VENC_GetDtsConfigInfo failed.\n"
	.zero	6
.LC28:
	.string	"invalid_argument g_PvencClk:0x%x, g_PvencVolt:0x%x, g_VencRegulator:0x%x\n"
	.zero	6
.LC29:
	.string	"clk_set_rate high/2 failed!\n"
	.zero	3
.LC30:
	.string	"enable regulator failed!\n"
	.zero	6
.LC31:
	.string	"++\n"
	.zero	4
.LC32:
	.string	"ioremap VENC_QOS_MODE reg failed!\n"
	.zero	5
.LC33:
	.string	"Venc_config_QOS failed!\n"
	.zero	7
.LC34:
	.string	"clk_prepare_enable failed!\n"
	.zero	4
.LC35:
	.string	"%s, Venc_Regulator_Disable g_VencRegulator:0x%x\n"
	.zero	7
.LC36:
	.string	"disable regulator failed!\n"
	.zero	5
.LC37:
	.string	"--\n"
	.zero	4
.LC38:
	.string	"clk_set_rate high failed!\n"
	.bss
	.align	3
.LANCHOR1 = . + 0
	.type	g_VencRegulator, %object
	.size	g_VencRegulator, 8
g_VencRegulator:
	.zero	8
	.type	g_hisi_mmu_domain, %object
	.size	g_hisi_mmu_domain, 8
g_hisi_mmu_domain:
	.zero	8
	.type	g_VencDtsConfig, %object
	.size	g_VencDtsConfig, 48
g_VencDtsConfig:
	.zero	48
	.type	g_PvencClk, %object
	.size	g_PvencClk, 8
g_PvencClk:
	.zero	8
	.type	g_PvencVolt, %object
	.size	g_PvencVolt, 8
g_PvencVolt:
	.zero	8
	.type	g_VencPowerOn, %object
	.size	g_VencPowerOn, 4
g_VencPowerOn:
	.zero	4
	.type	g_voltHold, %object
	.size	g_voltHold, 4
g_voltHold:
	.zero	4
	.text
.Letext0:
	.file 7 "/home/jenkins/slave-135/workspace/chipset_component_CHICAGO_B100_Open_Source/component_code/vendor/huawei/extra/build/build_script/austin_kernel_release/kernel/include/uapi/asm-generic/int-ll64.h"
	.file 8 "/home/jenkins/slave-135/workspace/chipset_component_CHICAGO_B100_Open_Source/component_code/vendor/huawei/extra/build/build_script/austin_kernel_release/kernel/include/asm-generic/int-ll64.h"
	.file 9 "/home/jenkins/slave-135/workspace/chipset_component_CHICAGO_B100_Open_Source/component_code/vendor/huawei/extra/build/build_script/austin_kernel_release/kernel/include/uapi/asm-generic/posix_types.h"
	.file 10 "/home/jenkins/slave-135/workspace/chipset_component_CHICAGO_B100_Open_Source/component_code/vendor/huawei/extra/build/build_script/austin_kernel_release/kernel/include/uapi/linux/types.h"
	.file 11 "/home/jenkins/slave-135/workspace/chipset_component_CHICAGO_B100_Open_Source/component_code/vendor/huawei/extra/build/build_script/austin_kernel_release/kernel/include/linux/types.h"
	.file 12 "/home/jenkins/slave-135/workspace/chipset_component_CHICAGO_B100_Open_Source/component_code/vendor/huawei/extra/build/build_script/austin_kernel_release/kernel/include/linux/export.h"
	.file 13 "/home/jenkins/slave-135/workspace/chipset_component_CHICAGO_B100_Open_Source/component_code/vendor/huawei/extra/build/build_script/austin_kernel_release/kernel/include/linux/capability.h"
	.file 14 "/home/jenkins/slave-135/workspace/chipset_component_CHICAGO_B100_Open_Source/component_code/vendor/huawei/extra/build/build_script/austin_kernel_release/kernel/include/linux/thread_info.h"
	.file 15 "/home/jenkins/slave-135/workspace/chipset_component_CHICAGO_B100_Open_Source/component_code/vendor/huawei/extra/build/build_script/austin_kernel_release/kernel/include/uapi/linux/time.h"
	.file 16 "/home/jenkins/slave-135/workspace/chipset_component_CHICAGO_B100_Open_Source/component_code/vendor/huawei/extra/build/build_script/austin_kernel_release/kernel/arch/arm64/include/asm/compat.h"
	.file 17 "/home/jenkins/slave-135/workspace/chipset_component_CHICAGO_B100_Open_Source/component_code/vendor/huawei/extra/build/build_script/austin_kernel_release/kernel/include/linux/sched.h"
	.file 18 "/home/jenkins/slave-135/workspace/chipset_component_CHICAGO_B100_Open_Source/component_code/vendor/huawei/extra/build/build_script/austin_kernel_release/kernel/arch/arm64/include/uapi/asm/ptrace.h"
	.file 19 "/home/jenkins/slave-135/workspace/chipset_component_CHICAGO_B100_Open_Source/component_code/vendor/huawei/extra/build/build_script/austin_kernel_release/kernel/arch/arm64/include/asm/ptrace.h"
	.file 20 "/home/jenkins/slave-135/workspace/chipset_component_CHICAGO_B100_Open_Source/component_code/vendor/huawei/extra/build/build_script/austin_kernel_release/kernel/arch/arm64/include/asm/spinlock_types.h"
	.file 21 "/home/jenkins/slave-135/workspace/chipset_component_CHICAGO_B100_Open_Source/component_code/vendor/huawei/extra/build/build_script/austin_kernel_release/kernel/include/linux/spinlock_types.h"
	.file 22 "/home/jenkins/slave-135/workspace/chipset_component_CHICAGO_B100_Open_Source/component_code/vendor/huawei/extra/build/build_script/austin_kernel_release/kernel/include/linux/rwlock_types.h"
	.file 23 "/home/jenkins/slave-135/workspace/chipset_component_CHICAGO_B100_Open_Source/component_code/vendor/huawei/extra/build/build_script/austin_kernel_release/kernel/arch/arm64/include/asm/fpsimd.h"
	.file 24 "/home/jenkins/slave-135/workspace/chipset_component_CHICAGO_B100_Open_Source/component_code/vendor/huawei/extra/build/build_script/austin_kernel_release/kernel/arch/arm64/include/asm/processor.h"
	.file 25 "/home/jenkins/slave-135/workspace/chipset_component_CHICAGO_B100_Open_Source/component_code/vendor/huawei/extra/build/build_script/austin_kernel_release/kernel/include/asm-generic/atomic-long.h"
	.file 26 "/home/jenkins/slave-135/workspace/chipset_component_CHICAGO_B100_Open_Source/component_code/vendor/huawei/extra/build/build_script/austin_kernel_release/kernel/include/linux/seqlock.h"
	.file 27 "/home/jenkins/slave-135/workspace/chipset_component_CHICAGO_B100_Open_Source/component_code/vendor/huawei/extra/build/build_script/austin_kernel_release/kernel/include/linux/plist.h"
	.file 28 "/home/jenkins/slave-135/workspace/chipset_component_CHICAGO_B100_Open_Source/component_code/vendor/huawei/extra/build/build_script/austin_kernel_release/kernel/include/linux/rbtree.h"
	.file 29 "/home/jenkins/slave-135/workspace/chipset_component_CHICAGO_B100_Open_Source/component_code/vendor/huawei/extra/build/build_script/austin_kernel_release/kernel/include/linux/cpumask.h"
	.file 30 "/home/jenkins/slave-135/workspace/chipset_component_CHICAGO_B100_Open_Source/component_code/vendor/huawei/extra/build/build_script/austin_kernel_release/kernel/include/linux/nodemask.h"
	.file 31 "/home/jenkins/slave-135/workspace/chipset_component_CHICAGO_B100_Open_Source/component_code/vendor/huawei/extra/build/build_script/austin_kernel_release/kernel/include/linux/osq_lock.h"
	.file 32 "/home/jenkins/slave-135/workspace/chipset_component_CHICAGO_B100_Open_Source/component_code/vendor/huawei/extra/build/build_script/austin_kernel_release/kernel/include/linux/rwsem.h"
	.file 33 "/home/jenkins/slave-135/workspace/chipset_component_CHICAGO_B100_Open_Source/component_code/vendor/huawei/extra/build/build_script/austin_kernel_release/kernel/include/linux/wait.h"
	.file 34 "/home/jenkins/slave-135/workspace/chipset_component_CHICAGO_B100_Open_Source/component_code/vendor/huawei/extra/build/build_script/austin_kernel_release/kernel/include/linux/completion.h"
	.file 35 "/home/jenkins/slave-135/workspace/chipset_component_CHICAGO_B100_Open_Source/component_code/vendor/huawei/extra/build/build_script/austin_kernel_release/kernel/include/linux/mm_types.h"
	.file 36 "/home/jenkins/slave-135/workspace/chipset_component_CHICAGO_B100_Open_Source/component_code/vendor/huawei/extra/build/build_script/austin_kernel_release/kernel/include/linux/lockdep.h"
	.file 37 "/home/jenkins/slave-135/workspace/chipset_component_CHICAGO_B100_Open_Source/component_code/vendor/huawei/extra/build/build_script/austin_kernel_release/kernel/include/linux/uprobes.h"
	.file 38 "/home/jenkins/slave-135/workspace/chipset_component_CHICAGO_B100_Open_Source/component_code/vendor/huawei/extra/build/build_script/austin_kernel_release/kernel/arch/arm64/include/asm/pgtable-types.h"
	.file 39 "/home/jenkins/slave-135/workspace/chipset_component_CHICAGO_B100_Open_Source/component_code/vendor/huawei/extra/build/build_script/austin_kernel_release/kernel/arch/arm64/include/asm/mmu.h"
	.file 40 "/home/jenkins/slave-135/workspace/chipset_component_CHICAGO_B100_Open_Source/component_code/vendor/huawei/extra/build/build_script/austin_kernel_release/kernel/include/linux/fs.h"
	.file 41 "/home/jenkins/slave-135/workspace/chipset_component_CHICAGO_B100_Open_Source/component_code/vendor/huawei/extra/build/build_script/austin_kernel_release/kernel/include/linux/mm.h"
	.file 42 "/home/jenkins/slave-135/workspace/chipset_component_CHICAGO_B100_Open_Source/component_code/vendor/huawei/extra/build/build_script/austin_kernel_release/kernel/include/asm-generic/cputime_jiffies.h"
	.file 43 "/home/jenkins/slave-135/workspace/chipset_component_CHICAGO_B100_Open_Source/component_code/vendor/huawei/extra/build/build_script/austin_kernel_release/kernel/include/linux/llist.h"
	.file 44 "/home/jenkins/slave-135/workspace/chipset_component_CHICAGO_B100_Open_Source/component_code/vendor/huawei/extra/build/build_script/austin_kernel_release/kernel/include/linux/uidgid.h"
	.file 45 "/home/jenkins/slave-135/workspace/chipset_component_CHICAGO_B100_Open_Source/component_code/vendor/huawei/extra/build/build_script/austin_kernel_release/kernel/include/linux/sem.h"
	.file 46 "/home/jenkins/slave-135/workspace/chipset_component_CHICAGO_B100_Open_Source/component_code/vendor/huawei/extra/build/build_script/austin_kernel_release/kernel/include/linux/shm.h"
	.file 47 "/home/jenkins/slave-135/workspace/chipset_component_CHICAGO_B100_Open_Source/component_code/vendor/huawei/extra/build/build_script/austin_kernel_release/kernel/include/uapi/asm-generic/signal.h"
	.file 48 "/home/jenkins/slave-135/workspace/chipset_component_CHICAGO_B100_Open_Source/component_code/vendor/huawei/extra/build/build_script/austin_kernel_release/kernel/include/uapi/asm-generic/signal-defs.h"
	.file 49 "/home/jenkins/slave-135/workspace/chipset_component_CHICAGO_B100_Open_Source/component_code/vendor/huawei/extra/build/build_script/austin_kernel_release/kernel/include/uapi/asm-generic/siginfo.h"
	.file 50 "/home/jenkins/slave-135/workspace/chipset_component_CHICAGO_B100_Open_Source/component_code/vendor/huawei/extra/build/build_script/austin_kernel_release/kernel/include/linux/signal.h"
	.file 51 "/home/jenkins/slave-135/workspace/chipset_component_CHICAGO_B100_Open_Source/component_code/vendor/huawei/extra/build/build_script/austin_kernel_release/kernel/include/linux/pid.h"
	.file 52 "/home/jenkins/slave-135/workspace/chipset_component_CHICAGO_B100_Open_Source/component_code/vendor/huawei/extra/build/build_script/austin_kernel_release/kernel/include/linux/pid_namespace.h"
	.file 53 "/home/jenkins/slave-135/workspace/chipset_component_CHICAGO_B100_Open_Source/component_code/vendor/huawei/extra/build/build_script/austin_kernel_release/kernel/include/linux/mmzone.h"
	.file 54 "/home/jenkins/slave-135/workspace/chipset_component_CHICAGO_B100_Open_Source/component_code/vendor/huawei/extra/build/build_script/austin_kernel_release/kernel/include/linux/mutex.h"
	.file 55 "/home/jenkins/slave-135/workspace/chipset_component_CHICAGO_B100_Open_Source/component_code/vendor/huawei/extra/build/build_script/austin_kernel_release/kernel/include/linux/ktime.h"
	.file 56 "/home/jenkins/slave-135/workspace/chipset_component_CHICAGO_B100_Open_Source/component_code/vendor/huawei/extra/build/build_script/austin_kernel_release/kernel/include/linux/timer.h"
	.file 57 "/home/jenkins/slave-135/workspace/chipset_component_CHICAGO_B100_Open_Source/component_code/vendor/huawei/extra/build/build_script/austin_kernel_release/kernel/include/linux/workqueue.h"
	.file 58 "/home/jenkins/slave-135/workspace/chipset_component_CHICAGO_B100_Open_Source/component_code/vendor/huawei/extra/build/build_script/austin_kernel_release/kernel/include/linux/percpu_counter.h"
	.file 59 "/home/jenkins/slave-135/workspace/chipset_component_CHICAGO_B100_Open_Source/component_code/vendor/huawei/extra/build/build_script/austin_kernel_release/kernel/include/linux/seccomp.h"
	.file 60 "/home/jenkins/slave-135/workspace/chipset_component_CHICAGO_B100_Open_Source/component_code/vendor/huawei/extra/build/build_script/austin_kernel_release/kernel/include/uapi/linux/resource.h"
	.file 61 "/home/jenkins/slave-135/workspace/chipset_component_CHICAGO_B100_Open_Source/component_code/vendor/huawei/extra/build/build_script/austin_kernel_release/kernel/include/linux/timerqueue.h"
	.file 62 "/home/jenkins/slave-135/workspace/chipset_component_CHICAGO_B100_Open_Source/component_code/vendor/huawei/extra/build/build_script/austin_kernel_release/kernel/include/linux/hrtimer.h"
	.file 63 "/home/jenkins/slave-135/workspace/chipset_component_CHICAGO_B100_Open_Source/component_code/vendor/huawei/extra/build/build_script/austin_kernel_release/kernel/include/linux/task_io_accounting.h"
	.file 64 "/home/jenkins/slave-135/workspace/chipset_component_CHICAGO_B100_Open_Source/component_code/vendor/huawei/extra/build/build_script/austin_kernel_release/kernel/include/linux/nsproxy.h"
	.file 65 "/home/jenkins/slave-135/workspace/chipset_component_CHICAGO_B100_Open_Source/component_code/vendor/huawei/extra/build/build_script/austin_kernel_release/kernel/include/linux/assoc_array.h"
	.file 66 "/home/jenkins/slave-135/workspace/chipset_component_CHICAGO_B100_Open_Source/component_code/vendor/huawei/extra/build/build_script/austin_kernel_release/kernel/include/linux/key.h"
	.file 67 "/home/jenkins/slave-135/workspace/chipset_component_CHICAGO_B100_Open_Source/component_code/vendor/huawei/extra/build/build_script/austin_kernel_release/kernel/include/linux/cred.h"
	.file 68 "/home/jenkins/slave-135/workspace/chipset_component_CHICAGO_B100_Open_Source/component_code/vendor/huawei/extra/build/build_script/austin_kernel_release/kernel/include/linux/shrinker.h"
	.file 69 "/home/jenkins/slave-135/workspace/chipset_component_CHICAGO_B100_Open_Source/component_code/vendor/huawei/extra/build/build_script/austin_kernel_release/kernel/include/linux/vmstat.h"
	.file 70 "/home/jenkins/slave-135/workspace/chipset_component_CHICAGO_B100_Open_Source/component_code/vendor/huawei/extra/build/build_script/austin_kernel_release/kernel/include/linux/kref.h"
	.file 71 "/home/jenkins/slave-135/workspace/chipset_component_CHICAGO_B100_Open_Source/component_code/vendor/huawei/extra/build/build_script/austin_kernel_release/kernel/include/linux/ns_common.h"
	.file 72 "/home/jenkins/slave-135/workspace/chipset_component_CHICAGO_B100_Open_Source/component_code/vendor/huawei/extra/build/build_script/austin_kernel_release/kernel/include/linux/dcache.h"
	.file 73 "/home/jenkins/slave-135/workspace/chipset_component_CHICAGO_B100_Open_Source/component_code/vendor/huawei/extra/build/build_script/austin_kernel_release/kernel/include/linux/stat.h"
	.file 74 "/home/jenkins/slave-135/workspace/chipset_component_CHICAGO_B100_Open_Source/component_code/vendor/huawei/extra/build/build_script/austin_kernel_release/kernel/include/uapi/linux/elf.h"
	.file 75 "/home/jenkins/slave-135/workspace/chipset_component_CHICAGO_B100_Open_Source/component_code/vendor/huawei/extra/build/build_script/austin_kernel_release/kernel/include/linux/idr.h"
	.file 76 "/home/jenkins/slave-135/workspace/chipset_component_CHICAGO_B100_Open_Source/component_code/vendor/huawei/extra/build/build_script/austin_kernel_release/kernel/include/linux/kernfs.h"
	.file 77 "/home/jenkins/slave-135/workspace/chipset_component_CHICAGO_B100_Open_Source/component_code/vendor/huawei/extra/build/build_script/austin_kernel_release/kernel/include/linux/seq_file.h"
	.file 78 "/home/jenkins/slave-135/workspace/chipset_component_CHICAGO_B100_Open_Source/component_code/vendor/huawei/extra/build/build_script/austin_kernel_release/kernel/include/linux/kobject_ns.h"
	.file 79 "/home/jenkins/slave-135/workspace/chipset_component_CHICAGO_B100_Open_Source/component_code/vendor/huawei/extra/build/build_script/austin_kernel_release/kernel/include/linux/sysfs.h"
	.file 80 "/home/jenkins/slave-135/workspace/chipset_component_CHICAGO_B100_Open_Source/component_code/vendor/huawei/extra/build/build_script/austin_kernel_release/kernel/include/linux/kobject.h"
	.file 81 "/home/jenkins/slave-135/workspace/chipset_component_CHICAGO_B100_Open_Source/component_code/vendor/huawei/extra/build/build_script/austin_kernel_release/kernel/include/linux/moduleparam.h"
	.file 82 "/home/jenkins/slave-135/workspace/chipset_component_CHICAGO_B100_Open_Source/component_code/vendor/huawei/extra/build/build_script/austin_kernel_release/kernel/include/linux/jump_label.h"
	.file 83 "/home/jenkins/slave-135/workspace/chipset_component_CHICAGO_B100_Open_Source/component_code/vendor/huawei/extra/build/build_script/austin_kernel_release/kernel/include/asm-generic/module.h"
	.file 84 "/home/jenkins/slave-135/workspace/chipset_component_CHICAGO_B100_Open_Source/component_code/vendor/huawei/extra/build/build_script/austin_kernel_release/kernel/include/linux/module.h"
	.file 85 "/home/jenkins/slave-135/workspace/chipset_component_CHICAGO_B100_Open_Source/component_code/vendor/huawei/extra/build/build_script/austin_kernel_release/kernel/include/linux/tracepoint.h"
	.file 86 "/home/jenkins/slave-135/workspace/chipset_component_CHICAGO_B100_Open_Source/component_code/vendor/huawei/extra/build/build_script/austin_kernel_release/kernel/include/linux/klist.h"
	.file 87 "/home/jenkins/slave-135/workspace/chipset_component_CHICAGO_B100_Open_Source/component_code/vendor/huawei/extra/build/build_script/austin_kernel_release/kernel/include/linux/pinctrl/devinfo.h"
	.file 88 "/home/jenkins/slave-135/workspace/chipset_component_CHICAGO_B100_Open_Source/component_code/vendor/huawei/extra/build/build_script/austin_kernel_release/kernel/include/linux/pm.h"
	.file 89 "/home/jenkins/slave-135/workspace/chipset_component_CHICAGO_B100_Open_Source/component_code/vendor/huawei/extra/build/build_script/austin_kernel_release/kernel/include/linux/device.h"
	.file 90 "/home/jenkins/slave-135/workspace/chipset_component_CHICAGO_B100_Open_Source/component_code/vendor/huawei/extra/build/build_script/austin_kernel_release/kernel/include/linux/pm_wakeup.h"
	.file 91 "/home/jenkins/slave-135/workspace/chipset_component_CHICAGO_B100_Open_Source/component_code/vendor/huawei/extra/build/build_script/austin_kernel_release/kernel/arch/arm64/include/asm/device.h"
	.file 92 "/home/jenkins/slave-135/workspace/chipset_component_CHICAGO_B100_Open_Source/component_code/vendor/huawei/extra/build/build_script/austin_kernel_release/kernel/include/linux/dma-mapping.h"
	.file 93 "/home/jenkins/slave-135/workspace/chipset_component_CHICAGO_B100_Open_Source/component_code/vendor/huawei/extra/build/build_script/austin_kernel_release/kernel/include/linux/iommu.h"
	.file 94 "/home/jenkins/slave-135/workspace/chipset_component_CHICAGO_B100_Open_Source/component_code/vendor/huawei/extra/build/build_script/austin_kernel_release/kernel/include/linux/mod_devicetable.h"
	.file 95 "/home/jenkins/slave-135/workspace/chipset_component_CHICAGO_B100_Open_Source/component_code/vendor/huawei/extra/build/build_script/austin_kernel_release/kernel/include/linux/irqdomain.h"
	.file 96 "/home/jenkins/slave-135/workspace/chipset_component_CHICAGO_B100_Open_Source/component_code/vendor/huawei/extra/build/build_script/austin_kernel_release/kernel/include/linux/fwnode.h"
	.file 97 "/home/jenkins/slave-135/workspace/chipset_component_CHICAGO_B100_Open_Source/component_code/vendor/huawei/extra/build/build_script/austin_kernel_release/kernel/include/linux/platform_device.h"
	.file 98 "/home/jenkins/slave-135/workspace/chipset_component_CHICAGO_B100_Open_Source/component_code/vendor/huawei/extra/build/build_script/austin_kernel_release/kernel/include/linux/irqhandler.h"
	.file 99 "/home/jenkins/slave-135/workspace/chipset_component_CHICAGO_B100_Open_Source/component_code/vendor/huawei/extra/build/build_script/austin_kernel_release/kernel/include/linux/irqdesc.h"
	.file 100 "/home/jenkins/slave-135/workspace/chipset_component_CHICAGO_B100_Open_Source/component_code/vendor/huawei/extra/build/build_script/austin_kernel_release/kernel/include/linux/irq.h"
	.file 101 "/home/jenkins/slave-135/workspace/chipset_component_CHICAGO_B100_Open_Source/component_code/vendor/huawei/extra/build/build_script/austin_kernel_release/kernel/include/linux/irqreturn.h"
	.file 102 "/home/jenkins/slave-135/workspace/chipset_component_CHICAGO_B100_Open_Source/component_code/vendor/huawei/extra/build/build_script/austin_kernel_release/kernel/include/linux/interrupt.h"
	.file 103 "/home/jenkins/slave-135/workspace/chipset_component_CHICAGO_B100_Open_Source/component_code/vendor/huawei/extra/build/build_script/austin_kernel_release/kernel/include/linux/radix-tree.h"
	.file 104 "/home/jenkins/slave-135/workspace/chipset_component_CHICAGO_B100_Open_Source/component_code/vendor/huawei/extra/build/build_script/austin_kernel_release/kernel/include/linux/list_bl.h"
	.file 105 "/home/jenkins/slave-135/workspace/chipset_component_CHICAGO_B100_Open_Source/component_code/vendor/huawei/extra/build/build_script/austin_kernel_release/kernel/include/linux/lockref.h"
	.file 106 "/home/jenkins/slave-135/workspace/chipset_component_CHICAGO_B100_Open_Source/component_code/vendor/huawei/extra/build/build_script/austin_kernel_release/kernel/include/linux/path.h"
	.file 107 "/home/jenkins/slave-135/workspace/chipset_component_CHICAGO_B100_Open_Source/component_code/vendor/huawei/extra/build/build_script/austin_kernel_release/kernel/include/linux/list_lru.h"
	.file 108 "/home/jenkins/slave-135/workspace/chipset_component_CHICAGO_B100_Open_Source/component_code/vendor/huawei/extra/build/build_script/austin_kernel_release/kernel/include/uapi/linux/fiemap.h"
	.file 109 "/home/jenkins/slave-135/workspace/chipset_component_CHICAGO_B100_Open_Source/component_code/vendor/huawei/extra/build/build_script/austin_kernel_release/kernel/include/linux/migrate_mode.h"
	.file 110 "/home/jenkins/slave-135/workspace/chipset_component_CHICAGO_B100_Open_Source/component_code/vendor/huawei/extra/build/build_script/austin_kernel_release/kernel/include/linux/quota.h"
	.file 111 "/home/jenkins/slave-135/workspace/chipset_component_CHICAGO_B100_Open_Source/component_code/vendor/huawei/extra/build/build_script/austin_kernel_release/kernel/include/linux/projid.h"
	.file 112 "/home/jenkins/slave-135/workspace/chipset_component_CHICAGO_B100_Open_Source/component_code/vendor/huawei/extra/build/build_script/austin_kernel_release/kernel/include/linux/nfs_fs_i.h"
	.file 113 "/home/jenkins/slave-135/workspace/chipset_component_CHICAGO_B100_Open_Source/component_code/vendor/huawei/extra/build/build_script/austin_kernel_release/kernel/drivers/vcodec/hi_vcodec/venc/include/hi_type.h"
	.file 114 "/home/jenkins/slave-135/workspace/chipset_component_CHICAGO_B100_Open_Source/component_code/vendor/huawei/extra/build/build_script/austin_kernel_release/kernel/include/asm-generic/scatterlist.h"
	.file 115 "/home/jenkins/slave-135/workspace/chipset_component_CHICAGO_B100_Open_Source/component_code/vendor/huawei/extra/build/build_script/austin_kernel_release/kernel/include/linux/scatterlist.h"
	.file 116 "/home/jenkins/slave-135/workspace/chipset_component_CHICAGO_B100_Open_Source/component_code/vendor/huawei/extra/build/build_script/austin_kernel_release/kernel/include/linux/dma-attrs.h"
	.file 117 "/home/jenkins/slave-135/workspace/chipset_component_CHICAGO_B100_Open_Source/component_code/vendor/huawei/extra/build/build_script/austin_kernel_release/kernel/include/linux/dma-direction.h"
	.file 118 "/home/jenkins/slave-135/workspace/chipset_component_CHICAGO_B100_Open_Source/component_code/vendor/huawei/extra/build/build_script/austin_kernel_release/kernel/drivers/vcodec/hi_vcodec/venc/drv/include/hi_drv_mem.h"
	.file 119 "/home/jenkins/slave-135/workspace/chipset_component_CHICAGO_B100_Open_Source/component_code/vendor/huawei/extra/build/build_script/austin_kernel_release/kernel/include/linux/hisi/hisi-iommu.h"
	.file 120 "/home/jenkins/slave-135/workspace/chipset_component_CHICAGO_B100_Open_Source/component_code/vendor/huawei/extra/build/build_script/austin_kernel_release/kernel/drivers/vcodec/hi_vcodec/venc/drv/include/hi_drv_video.h"
	.file 121 "/home/jenkins/slave-135/workspace/chipset_component_CHICAGO_B100_Open_Source/component_code/vendor/huawei/extra/build/build_script/austin_kernel_release/kernel/drivers/vcodec/hi_vcodec/venc/drv/venc/drv_venc_efl.h"
	.file 122 "/home/jenkins/slave-135/workspace/chipset_component_CHICAGO_B100_Open_Source/component_code/vendor/huawei/extra/build/build_script/austin_kernel_release/kernel/drivers/vcodec/hi_vcodec/venc/drv/venc/drv_venc_buf_mng.h"
	.file 123 "/home/jenkins/slave-135/workspace/chipset_component_CHICAGO_B100_Open_Source/component_code/vendor/huawei/extra/build/build_script/austin_kernel_release/kernel/arch/arm64/include/asm/cachetype.h"
	.file 124 "/home/jenkins/slave-135/workspace/chipset_component_CHICAGO_B100_Open_Source/component_code/vendor/huawei/extra/build/build_script/austin_kernel_release/kernel/include/linux/printk.h"
	.file 125 "/home/jenkins/slave-135/workspace/chipset_component_CHICAGO_B100_Open_Source/component_code/vendor/huawei/extra/build/build_script/austin_kernel_release/kernel/include/linux/kernel.h"
	.file 126 "/home/jenkins/slave-135/workspace/chipset_component_CHICAGO_B100_Open_Source/component_code/vendor/huawei/extra/build/build_script/austin_kernel_release/kernel/arch/arm64/include/asm/thread_info.h"
	.file 127 "/home/jenkins/slave-135/workspace/chipset_component_CHICAGO_B100_Open_Source/component_code/vendor/huawei/extra/build/build_script/austin_kernel_release/kernel/include/chipset_common/kernel_harden/kaslr.h"
	.file 128 "/home/jenkins/slave-135/workspace/chipset_component_CHICAGO_B100_Open_Source/component_code/vendor/huawei/extra/build/build_script/austin_kernel_release/kernel/arch/arm64/include/asm/hwcap.h"
	.file 129 "/home/jenkins/slave-135/workspace/chipset_component_CHICAGO_B100_Open_Source/component_code/vendor/huawei/extra/build/build_script/austin_kernel_release/kernel/include/linux/jiffies.h"
	.file 130 "/home/jenkins/slave-135/workspace/chipset_component_CHICAGO_B100_Open_Source/component_code/vendor/huawei/extra/build/build_script/austin_kernel_release/kernel/arch/arm64/include/asm/memory.h"
	.file 131 "/home/jenkins/slave-135/workspace/chipset_component_CHICAGO_B100_Open_Source/component_code/vendor/huawei/extra/build/build_script/austin_kernel_release/kernel/include/linux/highuid.h"
	.file 132 "/home/jenkins/slave-135/workspace/chipset_component_CHICAGO_B100_Open_Source/component_code/vendor/huawei/extra/build/build_script/austin_kernel_release/kernel/include/asm-generic/percpu.h"
	.file 133 "/home/jenkins/slave-135/workspace/chipset_component_CHICAGO_B100_Open_Source/component_code/vendor/huawei/extra/build/build_script/austin_kernel_release/kernel/include/linux/debug_locks.h"
	.file 134 "/home/jenkins/slave-135/workspace/chipset_component_CHICAGO_B100_Open_Source/component_code/vendor/huawei/extra/build/build_script/austin_kernel_release/kernel/include/asm-generic/pgtable.h"
	.file 135 "/home/jenkins/slave-135/workspace/chipset_component_CHICAGO_B100_Open_Source/component_code/vendor/huawei/extra/build/build_script/austin_kernel_release/kernel/arch/arm64/include/asm/cpufeature.h"
	.file 136 "/home/jenkins/slave-135/workspace/chipset_component_CHICAGO_B100_Open_Source/component_code/vendor/huawei/extra/build/build_script/austin_kernel_release/kernel/include/asm-generic/irq_regs.h"
	.file 137 "/home/jenkins/slave-135/workspace/chipset_component_CHICAGO_B100_Open_Source/component_code/vendor/huawei/extra/build/build_script/austin_kernel_release/kernel/include/linux/slab.h"
	.file 138 "/home/jenkins/slave-135/workspace/chipset_component_CHICAGO_B100_Open_Source/component_code/vendor/huawei/extra/build/build_script/austin_kernel_release/kernel/include/linux/pci.h"
	.file 139 "/home/jenkins/slave-135/workspace/chipset_component_CHICAGO_B100_Open_Source/component_code/vendor/huawei/extra/build/build_script/austin_kernel_release/kernel/arch/arm64/include/../../arm/include/asm/xen/hypervisor.h"
	.file 140 "/home/jenkins/slave-135/workspace/chipset_component_CHICAGO_B100_Open_Source/component_code/vendor/huawei/extra/build/build_script/austin_kernel_release/kernel/arch/arm64/include/asm/dma-mapping.h"
	.file 141 "/home/jenkins/slave-135/workspace/chipset_component_CHICAGO_B100_Open_Source/component_code/vendor/huawei/extra/build/build_script/austin_kernel_release/kernel/include/asm-generic/pci-bridge.h"
	.file 142 "/home/jenkins/slave-135/workspace/chipset_component_CHICAGO_B100_Open_Source/component_code/vendor/huawei/extra/build/build_script/austin_kernel_release/kernel/include/trace/events/iommu.h"
	.file 143 "/home/jenkins/slave-135/workspace/chipset_component_CHICAGO_B100_Open_Source/component_code/vendor/huawei/extra/build/build_script/austin_kernel_release/kernel/arch/arm64/include/asm/hardirq.h"
	.file 144 "/home/jenkins/slave-135/workspace/chipset_component_CHICAGO_B100_Open_Source/component_code/vendor/huawei/extra/build/build_script/austin_kernel_release/kernel/include/linux/regulator/consumer.h"
	.file 145 "/home/jenkins/slave-135/workspace/chipset_component_CHICAGO_B100_Open_Source/component_code/vendor/huawei/extra/build/build_script/austin_kernel_release/kernel/include/linux/of_irq.h"
	.file 146 "/home/jenkins/slave-135/workspace/chipset_component_CHICAGO_B100_Open_Source/component_code/vendor/huawei/extra/build/build_script/austin_kernel_release/kernel/include/linux/of_address.h"
	.section	.note.GNU-stack,"",%progbits
