	.cpu generic+fp+simd
	.file	"vfmw_intf.c"
	.text
.Ltext0:
	.cfi_sections	.debug_frame
	.align	2
	.global	VFMW_GetFunction
	.type	VFMW_GetFunction, %function
VFMW_GetFunction:
.LFB1414:
	.file 1 "/home/jenkins/slave-135/workspace/chipset_component_CHICAGO_B100_Open_Source/component_code/vendor/huawei/extra/build/build_script/austin_kernel_release/kernel/drivers/vcodec/hi_vcodec/vdec/vfmw/vfmw_v4.0/scene/kirin/vfmw_intf.c"
	.loc 1 44 0
	.cfi_startproc
.LVL0:
	.loc 1 45 0
	adrp	x1, .LANCHOR0
	add	x1, x1, :lo12:.LANCHOR0
	str	x1, [x0]
	.loc 1 48 0
	mov	w0, 0
.LVL1:
	ret
	.cfi_endproc
.LFE1414:
	.size	VFMW_GetFunction, .-VFMW_GetFunction
	.align	2
	.global	VFMW_DRV_ModInit
	.type	VFMW_DRV_ModInit, %function
VFMW_DRV_ModInit:
.LFB1417:
	.loc 1 76 0
	.cfi_startproc
	stp	x29, x30, [sp, -16]!
	.cfi_def_cfa_offset 16
	.cfi_offset 29, -16
	.cfi_offset 30, -8
	add	x29, sp, 0
	.cfi_def_cfa_register 29
.LBB6:
.LBB7:
	.loc 1 55 0
	bl	VDEC_OpenModule
.LVL2:
	.loc 1 58 0
	bl	TVP_VDEC_OpenModule
.LVL3:
.LBE7:
.LBE6:
	.loc 1 91 0
	mov	w0, 0
	ldp	x29, x30, [sp], 16
	.cfi_restore 30
	.cfi_restore 29
	.cfi_def_cfa 31, 0
	ret
	.cfi_endproc
.LFE1417:
	.size	VFMW_DRV_ModInit, .-VFMW_DRV_ModInit
	.align	2
	.global	VFMW_DRV_ModExit
	.type	VFMW_DRV_ModExit, %function
VFMW_DRV_ModExit:
.LFB1418:
	.loc 1 94 0
	.cfi_startproc
	stp	x29, x30, [sp, -16]!
	.cfi_def_cfa_offset 16
	.cfi_offset 29, -16
	.cfi_offset 30, -8
	add	x29, sp, 0
	.cfi_def_cfa_register 29
.LBB8:
.LBB9:
	.loc 1 66 0
	bl	VDEC_ExitModule
.LVL4:
	.loc 1 69 0
	bl	TVP_VDEC_ExitModule
.LVL5:
.LBE9:
.LBE8:
	.loc 1 102 0
	ldp	x29, x30, [sp], 16
	.cfi_restore 30
	.cfi_restore 29
	.cfi_def_cfa 31, 0
	ret
	.cfi_endproc
.LFE1418:
	.size	VFMW_DRV_ModExit, .-VFMW_DRV_ModExit
	.align	2
	.global	VFMW_DRV_Init
	.type	VFMW_DRV_Init, %function
VFMW_DRV_Init:
.LFB1415:
	.loc 1 54 0
	.cfi_startproc
	stp	x29, x30, [sp, -16]!
	.cfi_def_cfa_offset 16
	.cfi_offset 29, -16
	.cfi_offset 30, -8
	add	x29, sp, 0
	.cfi_def_cfa_register 29
	.loc 1 55 0
	bl	VDEC_OpenModule
.LVL6:
	.loc 1 58 0
	bl	TVP_VDEC_OpenModule
.LVL7:
	.loc 1 62 0
	mov	w0, 0
	ldp	x29, x30, [sp], 16
	.cfi_restore 30
	.cfi_restore 29
	.cfi_def_cfa 31, 0
	ret
	.cfi_endproc
.LFE1415:
	.size	VFMW_DRV_Init, .-VFMW_DRV_Init
	.align	2
	.global	VFMW_DRV_Exit
	.type	VFMW_DRV_Exit, %function
VFMW_DRV_Exit:
.LFB1416:
	.loc 1 65 0
	.cfi_startproc
	stp	x29, x30, [sp, -16]!
	.cfi_def_cfa_offset 16
	.cfi_offset 29, -16
	.cfi_offset 30, -8
	add	x29, sp, 0
	.cfi_def_cfa_register 29
	.loc 1 66 0
	bl	VDEC_ExitModule
.LVL8:
	.loc 1 69 0
	bl	TVP_VDEC_ExitModule
.LVL9:
	.loc 1 73 0
	ldp	x29, x30, [sp], 16
	.cfi_restore 30
	.cfi_restore 29
	.cfi_def_cfa 31, 0
	ret
	.cfi_endproc
.LFE1416:
	.size	VFMW_DRV_Exit, .-VFMW_DRV_Exit
	.global	__ksymtab_VFMW_GetFunction
	.section	__ksymtab_strings,"a",%progbits
	.type	__kstrtab_VFMW_GetFunction, %object
	.size	__kstrtab_VFMW_GetFunction, 17
__kstrtab_VFMW_GetFunction:
	.string	"VFMW_GetFunction"
	.section	___ksymtab+VFMW_GetFunction,"a",%progbits
	.align	3
	.type	__ksymtab_VFMW_GetFunction, %object
	.size	__ksymtab_VFMW_GetFunction, 16
__ksymtab_VFMW_GetFunction:
	.xword	VFMW_GetFunction
	.xword	__kstrtab_VFMW_GetFunction
	.section	.exitcall.exit,"aw",%progbits
	.align	3
	.type	__exitcall_VFMW_DRV_ModExit, %object
	.size	__exitcall_VFMW_DRV_ModExit, 8
__exitcall_VFMW_DRV_ModExit:
	.xword	VFMW_DRV_ModExit
	.section	.initcall6.init,"aw",%progbits
	.align	3
	.type	__initcall_VFMW_DRV_ModInit6, %object
	.size	__initcall_VFMW_DRV_ModInit6, 8
__initcall_VFMW_DRV_ModInit6:
	.xword	VFMW_DRV_ModInit
	.data
	.align	3
.LANCHOR0 = . + 0
	.type	s_VfmwExportFuncs, %object
	.size	s_VfmwExportFuncs, 56
s_VfmwExportFuncs:
	.xword	TVP_VDEC_OpenModule
	.xword	TVP_VDEC_ExitModule
	.xword	TVP_VDEC_Init
	.xword	TVP_VDEC_Exit
	.xword	TVP_VDEC_Control
	.xword	TVP_VDEC_Suspend
	.xword	TVP_VDEC_Resume
	.text
.Letext0:
	.file 2 "/home/jenkins/slave-135/workspace/chipset_component_CHICAGO_B100_Open_Source/component_code/vendor/huawei/extra/build/build_script/austin_kernel_release/kernel/include/uapi/asm-generic/int-ll64.h"
	.file 3 "/home/jenkins/slave-135/workspace/chipset_component_CHICAGO_B100_Open_Source/component_code/vendor/huawei/extra/build/build_script/austin_kernel_release/kernel/include/asm-generic/int-ll64.h"
	.file 4 "/home/jenkins/slave-135/workspace/chipset_component_CHICAGO_B100_Open_Source/component_code/vendor/huawei/extra/build/build_script/austin_kernel_release/kernel/include/uapi/asm-generic/posix_types.h"
	.file 5 "/home/jenkins/slave-135/workspace/chipset_component_CHICAGO_B100_Open_Source/component_code/vendor/huawei/extra/build/build_script/austin_kernel_release/kernel/include/linux/types.h"
	.file 6 "/home/jenkins/slave-135/workspace/chipset_component_CHICAGO_B100_Open_Source/component_code/vendor/huawei/extra/build/build_script/austin_kernel_release/kernel/include/linux/export.h"
	.file 7 "/home/jenkins/slave-135/workspace/chipset_component_CHICAGO_B100_Open_Source/component_code/vendor/huawei/extra/build/build_script/austin_kernel_release/kernel/include/linux/init.h"
	.file 8 "/home/jenkins/slave-135/workspace/chipset_component_CHICAGO_B100_Open_Source/component_code/vendor/huawei/extra/build/build_script/austin_kernel_release/kernel/include/linux/capability.h"
	.file 9 "/home/jenkins/slave-135/workspace/chipset_component_CHICAGO_B100_Open_Source/component_code/vendor/huawei/extra/build/build_script/austin_kernel_release/kernel/include/linux/thread_info.h"
	.file 10 "/home/jenkins/slave-135/workspace/chipset_component_CHICAGO_B100_Open_Source/component_code/vendor/huawei/extra/build/build_script/austin_kernel_release/kernel/include/uapi/linux/time.h"
	.file 11 "/home/jenkins/slave-135/workspace/chipset_component_CHICAGO_B100_Open_Source/component_code/vendor/huawei/extra/build/build_script/austin_kernel_release/kernel/arch/arm64/include/asm/compat.h"
	.file 12 "/home/jenkins/slave-135/workspace/chipset_component_CHICAGO_B100_Open_Source/component_code/vendor/huawei/extra/build/build_script/austin_kernel_release/kernel/include/linux/sched.h"
	.file 13 "/home/jenkins/slave-135/workspace/chipset_component_CHICAGO_B100_Open_Source/component_code/vendor/huawei/extra/build/build_script/austin_kernel_release/kernel/arch/arm64/include/uapi/asm/ptrace.h"
	.file 14 "/home/jenkins/slave-135/workspace/chipset_component_CHICAGO_B100_Open_Source/component_code/vendor/huawei/extra/build/build_script/austin_kernel_release/kernel/arch/arm64/include/asm/spinlock_types.h"
	.file 15 "/home/jenkins/slave-135/workspace/chipset_component_CHICAGO_B100_Open_Source/component_code/vendor/huawei/extra/build/build_script/austin_kernel_release/kernel/include/linux/spinlock_types.h"
	.file 16 "/home/jenkins/slave-135/workspace/chipset_component_CHICAGO_B100_Open_Source/component_code/vendor/huawei/extra/build/build_script/austin_kernel_release/kernel/arch/arm64/include/asm/fpsimd.h"
	.file 17 "/home/jenkins/slave-135/workspace/chipset_component_CHICAGO_B100_Open_Source/component_code/vendor/huawei/extra/build/build_script/austin_kernel_release/kernel/arch/arm64/include/asm/processor.h"
	.file 18 "/home/jenkins/slave-135/workspace/chipset_component_CHICAGO_B100_Open_Source/component_code/vendor/huawei/extra/build/build_script/austin_kernel_release/kernel/include/asm-generic/atomic-long.h"
	.file 19 "/home/jenkins/slave-135/workspace/chipset_component_CHICAGO_B100_Open_Source/component_code/vendor/huawei/extra/build/build_script/austin_kernel_release/kernel/include/linux/seqlock.h"
	.file 20 "/home/jenkins/slave-135/workspace/chipset_component_CHICAGO_B100_Open_Source/component_code/vendor/huawei/extra/build/build_script/austin_kernel_release/kernel/include/linux/plist.h"
	.file 21 "/home/jenkins/slave-135/workspace/chipset_component_CHICAGO_B100_Open_Source/component_code/vendor/huawei/extra/build/build_script/austin_kernel_release/kernel/include/linux/rbtree.h"
	.file 22 "/home/jenkins/slave-135/workspace/chipset_component_CHICAGO_B100_Open_Source/component_code/vendor/huawei/extra/build/build_script/austin_kernel_release/kernel/include/linux/cpumask.h"
	.file 23 "/home/jenkins/slave-135/workspace/chipset_component_CHICAGO_B100_Open_Source/component_code/vendor/huawei/extra/build/build_script/austin_kernel_release/kernel/include/linux/nodemask.h"
	.file 24 "/home/jenkins/slave-135/workspace/chipset_component_CHICAGO_B100_Open_Source/component_code/vendor/huawei/extra/build/build_script/austin_kernel_release/kernel/include/linux/osq_lock.h"
	.file 25 "/home/jenkins/slave-135/workspace/chipset_component_CHICAGO_B100_Open_Source/component_code/vendor/huawei/extra/build/build_script/austin_kernel_release/kernel/include/linux/rwsem.h"
	.file 26 "/home/jenkins/slave-135/workspace/chipset_component_CHICAGO_B100_Open_Source/component_code/vendor/huawei/extra/build/build_script/austin_kernel_release/kernel/include/linux/wait.h"
	.file 27 "/home/jenkins/slave-135/workspace/chipset_component_CHICAGO_B100_Open_Source/component_code/vendor/huawei/extra/build/build_script/austin_kernel_release/kernel/include/linux/completion.h"
	.file 28 "/home/jenkins/slave-135/workspace/chipset_component_CHICAGO_B100_Open_Source/component_code/vendor/huawei/extra/build/build_script/austin_kernel_release/kernel/include/linux/mm_types.h"
	.file 29 "/home/jenkins/slave-135/workspace/chipset_component_CHICAGO_B100_Open_Source/component_code/vendor/huawei/extra/build/build_script/austin_kernel_release/kernel/arch/arm64/include/asm/pgtable-types.h"
	.file 30 "/home/jenkins/slave-135/workspace/chipset_component_CHICAGO_B100_Open_Source/component_code/vendor/huawei/extra/build/build_script/austin_kernel_release/kernel/arch/arm64/include/asm/mmu.h"
	.file 31 "/home/jenkins/slave-135/workspace/chipset_component_CHICAGO_B100_Open_Source/component_code/vendor/huawei/extra/build/build_script/austin_kernel_release/kernel/include/linux/mm.h"
	.file 32 "/home/jenkins/slave-135/workspace/chipset_component_CHICAGO_B100_Open_Source/component_code/vendor/huawei/extra/build/build_script/austin_kernel_release/kernel/include/asm-generic/cputime_jiffies.h"
	.file 33 "/home/jenkins/slave-135/workspace/chipset_component_CHICAGO_B100_Open_Source/component_code/vendor/huawei/extra/build/build_script/austin_kernel_release/kernel/include/linux/llist.h"
	.file 34 "/home/jenkins/slave-135/workspace/chipset_component_CHICAGO_B100_Open_Source/component_code/vendor/huawei/extra/build/build_script/austin_kernel_release/kernel/include/linux/uidgid.h"
	.file 35 "/home/jenkins/slave-135/workspace/chipset_component_CHICAGO_B100_Open_Source/component_code/vendor/huawei/extra/build/build_script/austin_kernel_release/kernel/include/linux/sem.h"
	.file 36 "/home/jenkins/slave-135/workspace/chipset_component_CHICAGO_B100_Open_Source/component_code/vendor/huawei/extra/build/build_script/austin_kernel_release/kernel/include/linux/shm.h"
	.file 37 "/home/jenkins/slave-135/workspace/chipset_component_CHICAGO_B100_Open_Source/component_code/vendor/huawei/extra/build/build_script/austin_kernel_release/kernel/include/uapi/asm-generic/signal.h"
	.file 38 "/home/jenkins/slave-135/workspace/chipset_component_CHICAGO_B100_Open_Source/component_code/vendor/huawei/extra/build/build_script/austin_kernel_release/kernel/include/uapi/asm-generic/signal-defs.h"
	.file 39 "/home/jenkins/slave-135/workspace/chipset_component_CHICAGO_B100_Open_Source/component_code/vendor/huawei/extra/build/build_script/austin_kernel_release/kernel/include/uapi/asm-generic/siginfo.h"
	.file 40 "/home/jenkins/slave-135/workspace/chipset_component_CHICAGO_B100_Open_Source/component_code/vendor/huawei/extra/build/build_script/austin_kernel_release/kernel/include/linux/signal.h"
	.file 41 "/home/jenkins/slave-135/workspace/chipset_component_CHICAGO_B100_Open_Source/component_code/vendor/huawei/extra/build/build_script/austin_kernel_release/kernel/include/linux/pid.h"
	.file 42 "/home/jenkins/slave-135/workspace/chipset_component_CHICAGO_B100_Open_Source/component_code/vendor/huawei/extra/build/build_script/austin_kernel_release/kernel/include/linux/pid_namespace.h"
	.file 43 "/home/jenkins/slave-135/workspace/chipset_component_CHICAGO_B100_Open_Source/component_code/vendor/huawei/extra/build/build_script/austin_kernel_release/kernel/include/linux/percpu.h"
	.file 44 "/home/jenkins/slave-135/workspace/chipset_component_CHICAGO_B100_Open_Source/component_code/vendor/huawei/extra/build/build_script/austin_kernel_release/kernel/include/linux/mmzone.h"
	.file 45 "/home/jenkins/slave-135/workspace/chipset_component_CHICAGO_B100_Open_Source/component_code/vendor/huawei/extra/build/build_script/austin_kernel_release/kernel/include/linux/mutex.h"
	.file 46 "/home/jenkins/slave-135/workspace/chipset_component_CHICAGO_B100_Open_Source/component_code/vendor/huawei/extra/build/build_script/austin_kernel_release/kernel/include/linux/ktime.h"
	.file 47 "/home/jenkins/slave-135/workspace/chipset_component_CHICAGO_B100_Open_Source/component_code/vendor/huawei/extra/build/build_script/austin_kernel_release/kernel/include/linux/workqueue.h"
	.file 48 "/home/jenkins/slave-135/workspace/chipset_component_CHICAGO_B100_Open_Source/component_code/vendor/huawei/extra/build/build_script/austin_kernel_release/kernel/include/linux/seccomp.h"
	.file 49 "/home/jenkins/slave-135/workspace/chipset_component_CHICAGO_B100_Open_Source/component_code/vendor/huawei/extra/build/build_script/austin_kernel_release/kernel/include/uapi/linux/resource.h"
	.file 50 "/home/jenkins/slave-135/workspace/chipset_component_CHICAGO_B100_Open_Source/component_code/vendor/huawei/extra/build/build_script/austin_kernel_release/kernel/include/linux/timerqueue.h"
	.file 51 "/home/jenkins/slave-135/workspace/chipset_component_CHICAGO_B100_Open_Source/component_code/vendor/huawei/extra/build/build_script/austin_kernel_release/kernel/include/linux/timer.h"
	.file 52 "/home/jenkins/slave-135/workspace/chipset_component_CHICAGO_B100_Open_Source/component_code/vendor/huawei/extra/build/build_script/austin_kernel_release/kernel/include/linux/hrtimer.h"
	.file 53 "/home/jenkins/slave-135/workspace/chipset_component_CHICAGO_B100_Open_Source/component_code/vendor/huawei/extra/build/build_script/austin_kernel_release/kernel/include/linux/task_io_accounting.h"
	.file 54 "/home/jenkins/slave-135/workspace/chipset_component_CHICAGO_B100_Open_Source/component_code/vendor/huawei/extra/build/build_script/austin_kernel_release/kernel/include/linux/nsproxy.h"
	.file 55 "/home/jenkins/slave-135/workspace/chipset_component_CHICAGO_B100_Open_Source/component_code/vendor/huawei/extra/build/build_script/austin_kernel_release/kernel/include/linux/assoc_array.h"
	.file 56 "/home/jenkins/slave-135/workspace/chipset_component_CHICAGO_B100_Open_Source/component_code/vendor/huawei/extra/build/build_script/austin_kernel_release/kernel/include/linux/key.h"
	.file 57 "/home/jenkins/slave-135/workspace/chipset_component_CHICAGO_B100_Open_Source/component_code/vendor/huawei/extra/build/build_script/austin_kernel_release/kernel/include/linux/cred.h"
	.file 58 "/home/jenkins/slave-135/workspace/chipset_component_CHICAGO_B100_Open_Source/component_code/vendor/huawei/extra/build/build_script/austin_kernel_release/kernel/include/linux/vm_event_item.h"
	.file 59 "/home/jenkins/slave-135/workspace/chipset_component_CHICAGO_B100_Open_Source/component_code/vendor/huawei/extra/build/build_script/austin_kernel_release/kernel/include/linux/vmstat.h"
	.file 60 "/home/jenkins/slave-135/workspace/chipset_component_CHICAGO_B100_Open_Source/component_code/vendor/huawei/extra/build/build_script/austin_kernel_release/kernel/include/linux/kref.h"
	.file 61 "/home/jenkins/slave-135/workspace/chipset_component_CHICAGO_B100_Open_Source/component_code/vendor/huawei/extra/build/build_script/austin_kernel_release/kernel/include/linux/ns_common.h"
	.file 62 "/home/jenkins/slave-135/workspace/chipset_component_CHICAGO_B100_Open_Source/component_code/vendor/huawei/extra/build/build_script/austin_kernel_release/kernel/drivers/vcodec/hi_vcodec/vdec/include/hi_type.h"
	.file 63 "/home/jenkins/slave-135/workspace/chipset_component_CHICAGO_B100_Open_Source/component_code/vendor/huawei/extra/build/build_script/austin_kernel_release/kernel/drivers/vcodec/hi_vcodec/vdec/vfmw/vfmw_v4.0/vfmw.h"
	.file 64 "/home/jenkins/slave-135/workspace/chipset_component_CHICAGO_B100_Open_Source/component_code/vendor/huawei/extra/build/build_script/austin_kernel_release/kernel/drivers/vcodec/hi_vcodec/vdec/vfmw/vfmw_v4.0/scene/kirin/vfmw_ext.h"
	.file 65 "/home/jenkins/slave-135/workspace/chipset_component_CHICAGO_B100_Open_Source/component_code/vendor/huawei/extra/build/build_script/austin_kernel_release/kernel/arch/arm64/include/asm/cachetype.h"
	.file 66 "/home/jenkins/slave-135/workspace/chipset_component_CHICAGO_B100_Open_Source/component_code/vendor/huawei/extra/build/build_script/austin_kernel_release/kernel/include/linux/printk.h"
	.file 67 "/home/jenkins/slave-135/workspace/chipset_component_CHICAGO_B100_Open_Source/component_code/vendor/huawei/extra/build/build_script/austin_kernel_release/kernel/include/linux/kernel.h"
	.file 68 "/home/jenkins/slave-135/workspace/chipset_component_CHICAGO_B100_Open_Source/component_code/vendor/huawei/extra/build/build_script/austin_kernel_release/kernel/arch/arm64/include/asm/thread_info.h"
	.file 69 "/home/jenkins/slave-135/workspace/chipset_component_CHICAGO_B100_Open_Source/component_code/vendor/huawei/extra/build/build_script/austin_kernel_release/kernel/include/chipset_common/kernel_harden/kaslr.h"
	.file 70 "/home/jenkins/slave-135/workspace/chipset_component_CHICAGO_B100_Open_Source/component_code/vendor/huawei/extra/build/build_script/austin_kernel_release/kernel/include/linux/jiffies.h"
	.file 71 "/home/jenkins/slave-135/workspace/chipset_component_CHICAGO_B100_Open_Source/component_code/vendor/huawei/extra/build/build_script/austin_kernel_release/kernel/arch/arm64/include/asm/memory.h"
	.file 72 "/home/jenkins/slave-135/workspace/chipset_component_CHICAGO_B100_Open_Source/component_code/vendor/huawei/extra/build/build_script/austin_kernel_release/kernel/include/linux/highuid.h"
	.file 73 "/home/jenkins/slave-135/workspace/chipset_component_CHICAGO_B100_Open_Source/component_code/vendor/huawei/extra/build/build_script/austin_kernel_release/kernel/include/asm-generic/percpu.h"
	.file 74 "/home/jenkins/slave-135/workspace/chipset_component_CHICAGO_B100_Open_Source/component_code/vendor/huawei/extra/build/build_script/austin_kernel_release/kernel/include/linux/percpu_counter.h"
	.file 75 "/home/jenkins/slave-135/workspace/chipset_component_CHICAGO_B100_Open_Source/component_code/vendor/huawei/extra/build/build_script/austin_kernel_release/kernel/include/linux/debug_locks.h"
	.file 76 "/home/jenkins/slave-135/workspace/chipset_component_CHICAGO_B100_Open_Source/component_code/vendor/huawei/extra/build/build_script/austin_kernel_release/kernel/include/asm-generic/pgtable.h"
	.file 77 "/home/jenkins/slave-135/workspace/chipset_component_CHICAGO_B100_Open_Source/component_code/vendor/huawei/extra/build/build_script/austin_kernel_release/kernel/include/linux/jump_label.h"
	.file 78 "/home/jenkins/slave-135/workspace/chipset_component_CHICAGO_B100_Open_Source/component_code/vendor/huawei/extra/build/build_script/austin_kernel_release/kernel/drivers/vcodec/hi_vcodec/vdec/vfmw/vfmw_v4.0/scene/tvp/normal/tvp_adapter.h"
	.file 79 "/home/jenkins/slave-135/workspace/chipset_component_CHICAGO_B100_Open_Source/component_code/vendor/huawei/extra/build/build_script/austin_kernel_release/kernel/include/linux/uprobes.h"
	.section	.note.GNU-stack,"",%progbits
