	.cpu generic+fp+simd
	.file	"vfmw.c"
	.text
.Ltext0:
	.cfi_sections	.debug_frame
#APP
	.irp	num,0,1,2,3,4,5,6,7,8,9,10,11,12,13,14,15,16,17,18,19,20,21,22,23,24,25,26,27,28,29,30
	.equ	__reg_num_x\num, \num
	.endr
	.equ	__reg_num_xzr, 31

	.macro	mrs_s, rt, sreg
	.inst	0xd5200000|(\sreg)|(__reg_num_\rt)
	.endm

	.macro	msr_s, sreg, rt
	.inst	0xd5000000|(\sreg)|(__reg_num_\rt)
	.endm

#NO_APP
	.align	2
	.global	VDM_OpenHardware
	.type	VDM_OpenHardware, %function
VDM_OpenHardware:
.LFB2114:
	.file 1 "/home/jenkins/slave-135/workspace/chipset_component_CHICAGO_B100_Open_Source/component_code/vendor/huawei/extra/build/build_script/austin_kernel_release/kernel/drivers/vcodec/hi_vcodec/vdec/vfmw/vfmw_v4.0/firmware/product/HiVCodecV100/vfmw.c"
	.loc 1 77 0
	.cfi_startproc
.LVL0:
	.loc 1 83 0
	ret
	.cfi_endproc
.LFE2114:
	.size	VDM_OpenHardware, .-VDM_OpenHardware
	.align	2
	.global	VDM_CloseHardware
	.type	VDM_CloseHardware, %function
VDM_CloseHardware:
.LFB2115:
	.loc 1 86 0
	.cfi_startproc
.LVL1:
	.loc 1 88 0
	ret
	.cfi_endproc
.LFE2115:
	.size	VDM_CloseHardware, .-VDM_CloseHardware
	.align	2
	.global	SCD_OpenHardware
	.type	SCD_OpenHardware, %function
SCD_OpenHardware:
.LFB2116:
	.loc 1 91 0
	.cfi_startproc
	.loc 1 93 0
	ret
	.cfi_endproc
.LFE2116:
	.size	SCD_OpenHardware, .-SCD_OpenHardware
	.align	2
	.global	SCD_CloseHardware
	.type	SCD_CloseHardware, %function
SCD_CloseHardware:
.LFB2117:
	.loc 1 96 0
	.cfi_startproc
	.loc 1 98 0
	ret
	.cfi_endproc
.LFE2117:
	.size	SCD_CloseHardware, .-SCD_CloseHardware
	.align	2
	.global	BPD_OpenHardware
	.type	BPD_OpenHardware, %function
BPD_OpenHardware:
.LFB2118:
	.loc 1 101 0
	.cfi_startproc
	.loc 1 103 0
	ret
	.cfi_endproc
.LFE2118:
	.size	BPD_OpenHardware, .-BPD_OpenHardware
	.align	2
	.global	BPD_CloseHardware
	.type	BPD_CloseHardware, %function
BPD_CloseHardware:
.LFB2119:
	.loc 1 106 0
	.cfi_startproc
	.loc 1 108 0
	ret
	.cfi_endproc
.LFE2119:
	.size	BPD_CloseHardware, .-BPD_CloseHardware
	.align	2
	.global	VDEC_GetHalMemSize
	.type	VDEC_GetHalMemSize, %function
VDEC_GetHalMemSize:
.LFB2120:
	.loc 1 114 0
	.cfi_startproc
.LVL2:
	stp	x29, x30, [sp, -32]!
	.cfi_def_cfa_offset 32
	.cfi_offset 29, -32
	.cfi_offset 30, -24
	add	x29, sp, 0
	.cfi_def_cfa_register 29
	str	x19, [sp,16]
	.cfi_offset 19, -16
	.loc 1 114 0
	mov	x19, x0
	.loc 1 117 0
	bl	VDMHAL_IMP_GetHalMemSize
.LVL3:
	.loc 1 118 0
	cmp	w0, wzr
	ble	.L11
	.loc 1 126 0
	add	w1, w0, 61440
	.loc 1 128 0
	mov	w0, 0
.LVL4:
	.loc 1 126 0
	str	w1, [x19,12]
.L9:
	.loc 1 129 0
	ldr	x19, [sp,16]
	.cfi_remember_state
	.cfi_restore 19
.LVL5:
	ldp	x29, x30, [sp], 32
	.cfi_restore 30
	.cfi_restore 29
	.cfi_def_cfa 31, 0
	ret
.LVL6:
.L11:
	.cfi_restore_state
.LBB4:
.LBB5:
	.loc 1 120 0
	adrp	x1, .LC0
	adrp	x2, .LANCHOR0
	mov	w0, 1
.LVL7:
	add	x1, x1, :lo12:.LC0
	add	x2, x2, :lo12:.LANCHOR0
	bl	dprint_linux_kernel
.LVL8:
	mov	w0, -1
	b	.L9
.LBE5:
.LBE4:
	.cfi_endproc
.LFE2120:
	.size	VDEC_GetHalMemSize, .-VDEC_GetHalMemSize
	.align	2
	.global	VDEC_OpenModule
	.type	VDEC_OpenModule, %function
VDEC_OpenModule:
.LFB2121:
	.loc 1 135 0
	.cfi_startproc
	stp	x29, x30, [sp, -16]!
	.cfi_def_cfa_offset 16
	.cfi_offset 29, -16
	.cfi_offset 30, -8
	add	x29, sp, 0
	.cfi_def_cfa_register 29
	.loc 1 137 0
	bl	OSAL_InitInterface
.LVL9:
	.loc 1 143 0
	adrp	x1, .LANCHOR1+40
	mov	w0, 0
	ldr	x1, [x1,#:lo12:.LANCHOR1+40]
	blr	x1
.LVL10:
	.loc 1 144 0
	ldp	x29, x30, [sp], 16
	.cfi_restore 30
	.cfi_restore 29
	.cfi_def_cfa 31, 0
	ret
	.cfi_endproc
.LFE2121:
	.size	VDEC_OpenModule, .-VDEC_OpenModule
	.align	2
	.global	VDEC_ExitModule
	.type	VDEC_ExitModule, %function
VDEC_ExitModule:
.LFB2122:
	.loc 1 151 0
	.cfi_startproc
	.loc 1 157 0
	ret
	.cfi_endproc
.LFE2122:
	.size	VDEC_ExitModule, .-VDEC_ExitModule
	.align	2
	.global	VDEC_SpinLockInit
	.type	VDEC_SpinLockInit, %function
VDEC_SpinLockInit:
.LFB2123:
	.loc 1 163 0
	.cfi_startproc
	stp	x29, x30, [sp, -32]!
	.cfi_def_cfa_offset 32
	.cfi_offset 29, -32
	.cfi_offset 30, -24
	.loc 1 164 0
	mov	w0, 0
	.loc 1 163 0
	add	x29, sp, 0
	.cfi_def_cfa_register 29
	str	x19, [sp,16]
	.cfi_offset 19, -16
	.loc 1 164 0
	adrp	x19, .LANCHOR1
	add	x19, x19, :lo12:.LANCHOR1
	ldr	x1, [x19,16]
	blr	x1
.LVL11:
	.loc 1 165 0
	ldr	x1, [x19,16]
	mov	w0, 1
	blr	x1
.LVL12:
	.loc 1 166 0
	ldr	x1, [x19,16]
	mov	w0, 2
	blr	x1
.LVL13:
	.loc 1 167 0
	ldr	x1, [x19,16]
	mov	w0, 3
	blr	x1
.LVL14:
	.loc 1 168 0
	ldr	x1, [x19,16]
	mov	w0, 4
	blr	x1
.LVL15:
	.loc 1 171 0
	ldr	x19, [sp,16]
	.cfi_restore 19
	ldp	x29, x30, [sp], 32
	.cfi_restore 30
	.cfi_restore 29
	.cfi_def_cfa 31, 0
	ret
	.cfi_endproc
.LFE2123:
	.size	VDEC_SpinLockInit, .-VDEC_SpinLockInit
	.align	2
	.global	VDEC_Init
	.type	VDEC_Init, %function
VDEC_Init:
.LFB2124:
	.loc 1 178 0
	.cfi_startproc
.LVL16:
	stp	x29, x30, [sp, -48]!
	.cfi_def_cfa_offset 48
	.cfi_offset 29, -48
	.cfi_offset 30, -40
	add	x29, sp, 0
	.cfi_def_cfa_register 29
	stp	x19, x20, [sp,16]
	.cfi_offset 19, -32
	.cfi_offset 20, -24
	.loc 1 181 0
	adrp	x20, .LANCHOR1
	.loc 1 178 0
	str	x21, [sp,32]
	.cfi_offset 21, -16
	.loc 1 181 0
	add	x20, x20, :lo12:.LANCHOR1
	.loc 1 178 0
	mov	x21, x0
	.loc 1 181 0
	mov	w0, 0
.LVL17:
	ldr	x1, [x20,48]
	blr	x1
.LVL18:
	.loc 1 183 0
	cbz	x21, .L21
	.loc 1 192 0
	ldr	w0, [x20,224]
	cmp	w0, 1
	beq	.L22
	.loc 1 200 0
	bl	VFMW_IsDtsDataValid
.LVL19:
	.loc 1 201 0
	cbnz	w0, .L23
	.loc 1 207 0
	adrp	x0, VDM_OpenHardware
	add	x19, x20, 232
	add	x0, x0, :lo12:VDM_OpenHardware
	str	x0, [x20,232]
	.loc 1 208 0
	adrp	x0, VDM_CloseHardware
	add	x0, x0, :lo12:VDM_CloseHardware
	str	x0, [x19,8]
	.loc 1 209 0
	adrp	x0, SCD_OpenHardware
	add	x0, x0, :lo12:SCD_OpenHardware
	str	x0, [x19,16]
	.loc 1 210 0
	adrp	x0, SCD_CloseHardware
	add	x0, x0, :lo12:SCD_CloseHardware
	str	x0, [x19,24]
	.loc 1 211 0
	adrp	x0, BPD_OpenHardware
	add	x0, x0, :lo12:BPD_OpenHardware
	str	x0, [x19,32]
	.loc 1 212 0
	adrp	x0, BPD_CloseHardware
	add	x0, x0, :lo12:BPD_CloseHardware
	str	x0, [x19,40]
	.loc 1 213 0
	adrp	x0, VDMHAL_IMP_GetHalMemSize
	add	x0, x0, :lo12:VDMHAL_IMP_GetHalMemSize
	str	x0, [x19,56]
	.loc 1 214 0
	adrp	x0, VDMHAL_IMP_OpenHAL
	add	x0, x0, :lo12:VDMHAL_IMP_OpenHAL
	str	x0, [x19,64]
	.loc 1 215 0
	adrp	x0, VDMHAL_IMP_CloseHAL
	add	x0, x0, :lo12:VDMHAL_IMP_CloseHAL
	str	x0, [x19,72]
	.loc 1 216 0
	adrp	x0, VDMHAL_IMP_ArrangeMem
	add	x0, x0, :lo12:VDMHAL_IMP_ArrangeMem
	str	x0, [x19,80]
	.loc 1 217 0
	adrp	x0, VDMHAL_IMP_ResetVdm
	add	x0, x0, :lo12:VDMHAL_IMP_ResetVdm
	str	x0, [x19,88]
	.loc 1 218 0
	adrp	x0, VDMHAL_IMP_GlbReset
	add	x0, x0, :lo12:VDMHAL_IMP_GlbReset
	str	x0, [x19,96]
	.loc 1 219 0
	adrp	x0, VDMHAL_IMP_ClearIntState
	add	x0, x0, :lo12:VDMHAL_IMP_ClearIntState
	str	x0, [x19,104]
	.loc 1 220 0
	adrp	x0, VDMHAL_IMP_CheckReg
	add	x0, x0, :lo12:VDMHAL_IMP_CheckReg
	str	x0, [x19,112]
	.loc 1 221 0
	adrp	x0, VDMHAL_IMP_StartHwRepair
	add	x0, x0, :lo12:VDMHAL_IMP_StartHwRepair
	str	x0, [x19,120]
	.loc 1 222 0
	adrp	x0, VDMHAL_IMP_StartHwDecode
	add	x0, x0, :lo12:VDMHAL_IMP_StartHwDecode
	str	x0, [x19,128]
	.loc 1 223 0
	adrp	x0, VDMHAL_IMP_PrepareDec
	add	x0, x0, :lo12:VDMHAL_IMP_PrepareDec
	str	x0, [x19,136]
	.loc 1 224 0
	adrp	x0, VDMHAL_IMP_IsVdmReady
	add	x0, x0, :lo12:VDMHAL_IMP_IsVdmReady
	str	x0, [x19,144]
	.loc 1 225 0
	adrp	x0, VDMHAL_IMP_IsVdmRun
	add	x0, x0, :lo12:VDMHAL_IMP_IsVdmRun
	str	x0, [x19,152]
	.loc 1 226 0
	adrp	x0, VDMHAL_IMP_PrepareRepair
	add	x0, x0, :lo12:VDMHAL_IMP_PrepareRepair
	str	x0, [x19,160]
	.loc 1 227 0
	adrp	x0, VDMHAL_IMP_MakeDecReport
	add	x0, x0, :lo12:VDMHAL_IMP_MakeDecReport
	str	x0, [x19,168]
	.loc 1 228 0
	adrp	x0, VDMHAL_IMP_BackupInfo
	add	x0, x0, :lo12:VDMHAL_IMP_BackupInfo
	str	x0, [x19,176]
	.loc 1 229 0
	adrp	x0, VDMHAL_IMP_GetCharacter
	add	x0, x0, :lo12:VDMHAL_IMP_GetCharacter
	str	x0, [x19,48]
	.loc 1 230 0
	adrp	x0, VDMHAL_IMP_WriteScdEMARID
	add	x0, x0, :lo12:VDMHAL_IMP_WriteScdEMARID
	str	x0, [x19,184]
	.loc 1 232 0
	bl	VDEC_SpinLockInit
.LVL20:
	.loc 1 234 0
	ldr	x0, [x19,48]
	blr	x0
.LVL21:
	.loc 1 235 0
	add	x0, x21, 32
	bl	MEM_ManagerWithOperation
.LVL22:
	.loc 1 237 0
	mov	x0, x21
	bl	VCTRL_OpenVfmw
.LVL23:
	.loc 1 238 0
	cbz	w0, .L24
	.loc 1 249 0
	ldr	x1, [x20,56]
	mov	w0, 0
	.loc 1 245 0
	str	wzr, [x20,224]
	.loc 1 246 0
	str	wzr, [x20,228]
	.loc 1 249 0
	blr	x1
.LVL24:
	.loc 1 251 0 discriminator 2
	mov	w0, -1
.L17:
	.loc 1 252 0
	ldp	x19, x20, [sp,16]
	.cfi_remember_state
	.cfi_restore 20
	.cfi_restore 19
	ldr	x21, [sp,32]
	.cfi_restore 21
.LVL25:
	ldp	x29, x30, [sp], 48
	.cfi_restore 30
	.cfi_restore 29
	.cfi_def_cfa 31, 0
	ret
.LVL26:
.L24:
	.cfi_restore_state
	.loc 1 249 0
	ldr	x2, [x20,56]
	.loc 1 240 0
	mov	w1, 1
	str	w1, [x20,224]
	.loc 1 241 0
	str	w1, [x20,228]
	.loc 1 249 0
	blr	x2
.LVL27:
	.loc 1 252 0
	ldr	x21, [sp,32]
	.cfi_remember_state
	.cfi_restore 21
.LVL28:
	.loc 1 251 0 discriminator 1
	mov	w0, 0
	.loc 1 252 0
	ldp	x19, x20, [sp,16]
	.cfi_restore 19
	.cfi_restore 20
	ldp	x29, x30, [sp], 48
	.cfi_restore 29
	.cfi_restore 30
	.cfi_def_cfa 31, 0
	ret
.LVL29:
.L22:
	.cfi_restore_state
	.loc 1 194 0
	ldr	w2, [x20,228]
	.loc 1 195 0
	add	x1, x21, 32
	ldr	w0, [x21,4]
	.loc 1 194 0
	add	w2, w2, 1
	str	w2, [x20,228]
	.loc 1 195 0
	bl	VCTRL_SetCallBack
.LVL30:
	.loc 1 196 0
	ldr	x1, [x20,56]
	mov	w0, 0
	blr	x1
.LVL31:
	.loc 1 252 0
	ldr	x21, [sp,32]
	.cfi_remember_state
	.cfi_restore 21
.LVL32:
	.loc 1 197 0
	mov	w0, 0
	.loc 1 252 0
	ldp	x19, x20, [sp,16]
	.cfi_restore 19
	.cfi_restore 20
	ldp	x29, x30, [sp], 48
	.cfi_restore 29
	.cfi_restore 30
	.cfi_def_cfa 31, 0
	ret
.LVL33:
.L23:
	.cfi_restore_state
	.loc 1 203 0
	adrp	x2, .LANCHOR0
	adrp	x1, .LC2
	add	x2, x2, :lo12:.LANCHOR0
	mov	w0, 0
	add	x1, x1, :lo12:.LC2
	add	x2, x2, 24
	bl	dprint_linux_kernel
.LVL34:
	.loc 1 204 0
	mov	w0, -1
	b	.L17
.L21:
	.loc 1 185 0
	adrp	x1, .LC1
	mov	w0, 1
	add	x1, x1, :lo12:.LC1
	bl	dprint_linux_kernel
.LVL35:
	.loc 1 186 0
	ldr	x1, [x20,56]
	mov	w0, 0
	blr	x1
.LVL36:
	.loc 1 187 0
	mov	w0, -1
	b	.L17
	.cfi_endproc
.LFE2124:
	.size	VDEC_Init, .-VDEC_Init
	.align	2
	.global	VDEC_Exit
	.type	VDEC_Exit, %function
VDEC_Exit:
.LFB2125:
	.loc 1 258 0
	.cfi_startproc
.LVL37:
	stp	x29, x30, [sp, -32]!
	.cfi_def_cfa_offset 32
	.cfi_offset 29, -32
	.cfi_offset 30, -24
	.loc 1 260 0
	mov	w0, 0
.LVL38:
	.loc 1 258 0
	add	x29, sp, 0
	.cfi_def_cfa_register 29
	stp	x19, x20, [sp,16]
	.cfi_offset 19, -16
	.cfi_offset 20, -8
	.loc 1 260 0
	adrp	x19, .LANCHOR1
	add	x19, x19, :lo12:.LANCHOR1
	ldr	x1, [x19,48]
	blr	x1
.LVL39:
	.loc 1 263 0
	ldr	w0, [x19,228]
	subs	w0, w0, #1
	csel	w0, w0, wzr, pl
	str	w0, [x19,228]
	.loc 1 264 0
	cbz	w0, .L26
	.loc 1 266 0
	ldr	x1, [x19,56]
	mov	w0, 0
	blr	x1
.LVL40:
	.loc 1 267 0
	mov	w0, 0
	.loc 1 277 0
	ldp	x19, x20, [sp,16]
	.cfi_remember_state
	.cfi_restore 20
	.cfi_restore 19
	ldp	x29, x30, [sp], 32
	.cfi_restore 30
	.cfi_restore 29
	.cfi_def_cfa 31, 0
	ret
.L26:
	.cfi_restore_state
	.loc 1 270 0
	bl	VCTRL_CloseVfmw
.LVL41:
	.loc 1 273 0
	str	wzr, [x19,224]
	.loc 1 275 0
	ldr	x1, [x19,56]
	.loc 1 270 0
	mov	w20, w0
.LVL42:
	.loc 1 275 0
	mov	w0, 0
	blr	x1
.LVL43:
	.loc 1 276 0
	cmp	w20, wzr
	csetm	w0, ne
	.loc 1 277 0
	ldp	x19, x20, [sp,16]
	.cfi_restore 19
	.cfi_restore 20
.LVL44:
	ldp	x29, x30, [sp], 32
	.cfi_restore 29
	.cfi_restore 30
	.cfi_def_cfa 31, 0
	ret
	.cfi_endproc
.LFE2125:
	.size	VDEC_Exit, .-VDEC_Exit
	.align	2
	.global	VDEC_Control
	.type	VDEC_Control, %function
VDEC_Control:
.LFB2128:
	.loc 1 576 0
	.cfi_startproc
.LVL45:
	stp	x29, x30, [sp, -144]!
	.cfi_def_cfa_offset 144
	.cfi_offset 29, -144
	.cfi_offset 30, -136
.LBB11:
.LBB12:
	.loc 1 283 0 discriminator 1
	cmp	w1, 17
.LBE12:
.LBE11:
	.loc 1 576 0
	add	x29, sp, 0
	.cfi_def_cfa_register 29
	stp	x19, x20, [sp,16]
	.cfi_offset 19, -128
	.cfi_offset 20, -120
	adrp	x20, __stack_chk_guard
	str	x23, [sp,48]
	stp	x21, x22, [sp,32]
	.cfi_offset 23, -96
	.cfi_offset 21, -112
	.cfi_offset 22, -104
	.loc 1 576 0
	mov	w22, w0
	mov	w19, w1
	ldr	x0, [x20,#:lo12:__stack_chk_guard]
.LVL46:
	mov	x21, x2
	str	x0, [x29,136]
.LBB16:
.LBB13:
	.loc 1 283 0 discriminator 1
	beq	.L29
	.loc 1 283 0 is_stmt 0
	adrp	x0, .LANCHOR1+224
	ldr	w0, [x0,#:lo12:.LANCHOR1+224]
	.loc 1 283 0 discriminator 1
	cmp	w0, 1
	bne	.L110
.L29:
	.loc 1 289 0 is_stmt 1
	sub	w0, w19, #1
	cmp	w0, 51
	bls	.L111
.L31:
	.loc 1 322 0
	adrp	x1, .LC5
	mov	w0, 0
	add	x1, x1, :lo12:.LC5
	mov	w2, 322
	mov	w3, w19
.LVL47:
	bl	dprint_linux_kernel
.LVL48:
.L30:
.LBE13:
.LBE16:
	.loc 1 582 0
	adrp	x1, .LC6
	mov	w0, 0
	add	x1, x1, :lo12:.LC6
	mov	w2, w19
	bl	dprint_linux_kernel
.LVL49:
	.loc 1 583 0
	mov	w0, -1
.LVL50:
.L37:
	.loc 1 594 0
	ldr	x2, [x29,136]
	ldr	x1, [x20,#:lo12:__stack_chk_guard]
	cmp	x2, x1
	bne	.L112
	ldp	x19, x20, [sp,16]
	.cfi_remember_state
	.cfi_restore 20
	.cfi_restore 19
.LVL51:
	ldp	x21, x22, [sp,32]
	.cfi_restore 22
	.cfi_restore 21
.LVL52:
	ldr	x23, [sp,48]
	.cfi_restore 23
	ldp	x29, x30, [sp], 144
	.cfi_restore 30
	.cfi_restore 29
	.cfi_def_cfa 31, 0
	ret
.LVL53:
.L111:
	.cfi_restore_state
.LBB17:
.LBB14:
	.loc 1 289 0
	adrp	x1, .L33
	add	x1, x1, :lo12:.L33
	ldrb	w1, [x1,w0,uxtw]
	adr	x2, .Lrtx33
	add	x1, x2, w1, sxtb #2
	br	x1
.Lrtx33:
	.section	.rodata
	.align	0
	.align	2
.L33:
	.byte	(.L32 - .Lrtx33) / 4
	.byte	(.L31 - .Lrtx33) / 4
	.byte	(.L31 - .Lrtx33) / 4
	.byte	(.L32 - .Lrtx33) / 4
	.byte	(.L32 - .Lrtx33) / 4
	.byte	(.L34 - .Lrtx33) / 4
	.byte	(.L34 - .Lrtx33) / 4
	.byte	(.L32 - .Lrtx33) / 4
	.byte	(.L32 - .Lrtx33) / 4
	.byte	(.L34 - .Lrtx33) / 4
	.byte	(.L34 - .Lrtx33) / 4
	.byte	(.L34 - .Lrtx33) / 4
	.byte	(.L34 - .Lrtx33) / 4
	.byte	(.L32 - .Lrtx33) / 4
	.byte	(.L32 - .Lrtx33) / 4
	.byte	(.L31 - .Lrtx33) / 4
	.byte	(.L32 - .Lrtx33) / 4
	.byte	(.L32 - .Lrtx33) / 4
	.byte	(.L32 - .Lrtx33) / 4
	.byte	(.L31 - .Lrtx33) / 4
	.byte	(.L31 - .Lrtx33) / 4
	.byte	(.L34 - .Lrtx33) / 4
	.byte	(.L34 - .Lrtx33) / 4
	.byte	(.L31 - .Lrtx33) / 4
	.byte	(.L31 - .Lrtx33) / 4
	.byte	(.L31 - .Lrtx33) / 4
	.byte	(.L31 - .Lrtx33) / 4
	.byte	(.L31 - .Lrtx33) / 4
	.byte	(.L31 - .Lrtx33) / 4
	.byte	(.L31 - .Lrtx33) / 4
	.byte	(.L31 - .Lrtx33) / 4
	.byte	(.L31 - .Lrtx33) / 4
	.byte	(.L31 - .Lrtx33) / 4
	.byte	(.L31 - .Lrtx33) / 4
	.byte	(.L31 - .Lrtx33) / 4
	.byte	(.L31 - .Lrtx33) / 4
	.byte	(.L31 - .Lrtx33) / 4
	.byte	(.L31 - .Lrtx33) / 4
	.byte	(.L31 - .Lrtx33) / 4
	.byte	(.L31 - .Lrtx33) / 4
	.byte	(.L31 - .Lrtx33) / 4
	.byte	(.L31 - .Lrtx33) / 4
	.byte	(.L31 - .Lrtx33) / 4
	.byte	(.L31 - .Lrtx33) / 4
	.byte	(.L31 - .Lrtx33) / 4
	.byte	(.L31 - .Lrtx33) / 4
	.byte	(.L31 - .Lrtx33) / 4
	.byte	(.L31 - .Lrtx33) / 4
	.byte	(.L31 - .Lrtx33) / 4
	.byte	(.L31 - .Lrtx33) / 4
	.byte	(.L32 - .Lrtx33) / 4
	.byte	(.L34 - .Lrtx33) / 4
	.text
.L32:
	.loc 1 314 0
	cbz	x21, .L75
	cbz	w3, .L75
.L34:
.LBE14:
.LBE17:
.LBB18:
.LBB19:
	.loc 1 347 0
	cmp	w0, 51
	bls	.L113
.LVL54:
.L70:
.LBE19:
.LBE18:
	.loc 1 589 0
	adrp	x1, .LC11
	mov	w0, 0
	add	x1, x1, :lo12:.LC11
	mov	w2, w19
	bl	dprint_linux_kernel
.LVL55:
	.loc 1 590 0
	mov	w0, -1
	b	.L37
.LVL56:
.L113:
.LBB24:
.LBB21:
	.loc 1 347 0
	adrp	x1, .L40
	add	x1, x1, :lo12:.L40
	ldrh	w0, [x1,w0,uxtw #1]
	adr	x1, .Lrtx40
	add	x0, x1, w0, sxth #2
	br	x0
.Lrtx40:
	.section	.rodata
	.align	0
	.align	2
.L40:
	.2byte	(.L39 - .Lrtx40) / 4
	.2byte	(.L70 - .Lrtx40) / 4
	.2byte	(.L70 - .Lrtx40) / 4
	.2byte	(.L41 - .Lrtx40) / 4
	.2byte	(.L42 - .Lrtx40) / 4
	.2byte	(.L43 - .Lrtx40) / 4
	.2byte	(.L44 - .Lrtx40) / 4
	.2byte	(.L45 - .Lrtx40) / 4
	.2byte	(.L46 - .Lrtx40) / 4
	.2byte	(.L47 - .Lrtx40) / 4
	.2byte	(.L48 - .Lrtx40) / 4
	.2byte	(.L49 - .Lrtx40) / 4
	.2byte	(.L50 - .Lrtx40) / 4
	.2byte	(.L51 - .Lrtx40) / 4
	.2byte	(.L52 - .Lrtx40) / 4
	.2byte	(.L70 - .Lrtx40) / 4
	.2byte	(.L53 - .Lrtx40) / 4
	.2byte	(.L54 - .Lrtx40) / 4
	.2byte	(.L55 - .Lrtx40) / 4
	.2byte	(.L70 - .Lrtx40) / 4
	.2byte	(.L70 - .Lrtx40) / 4
	.2byte	(.L56 - .Lrtx40) / 4
	.2byte	(.L57 - .Lrtx40) / 4
	.2byte	(.L70 - .Lrtx40) / 4
	.2byte	(.L70 - .Lrtx40) / 4
	.2byte	(.L70 - .Lrtx40) / 4
	.2byte	(.L70 - .Lrtx40) / 4
	.2byte	(.L70 - .Lrtx40) / 4
	.2byte	(.L70 - .Lrtx40) / 4
	.2byte	(.L70 - .Lrtx40) / 4
	.2byte	(.L70 - .Lrtx40) / 4
	.2byte	(.L70 - .Lrtx40) / 4
	.2byte	(.L70 - .Lrtx40) / 4
	.2byte	(.L70 - .Lrtx40) / 4
	.2byte	(.L70 - .Lrtx40) / 4
	.2byte	(.L70 - .Lrtx40) / 4
	.2byte	(.L70 - .Lrtx40) / 4
	.2byte	(.L70 - .Lrtx40) / 4
	.2byte	(.L70 - .Lrtx40) / 4
	.2byte	(.L70 - .Lrtx40) / 4
	.2byte	(.L70 - .Lrtx40) / 4
	.2byte	(.L70 - .Lrtx40) / 4
	.2byte	(.L70 - .Lrtx40) / 4
	.2byte	(.L70 - .Lrtx40) / 4
	.2byte	(.L70 - .Lrtx40) / 4
	.2byte	(.L70 - .Lrtx40) / 4
	.2byte	(.L70 - .Lrtx40) / 4
	.2byte	(.L70 - .Lrtx40) / 4
	.2byte	(.L70 - .Lrtx40) / 4
	.2byte	(.L70 - .Lrtx40) / 4
	.2byte	(.L58 - .Lrtx40) / 4
	.2byte	(.L59 - .Lrtx40) / 4
	.text
.L75:
.LBE21:
.LBE24:
.LBB25:
.LBB15:
	.loc 1 316 0
	adrp	x1, .LC4
	mov	w2, 316
	add	x1, x1, :lo12:.LC4
	mov	w0, 0
	bl	dprint_linux_kernel
.LVL57:
	b	.L30
.LVL58:
.L110:
	.loc 1 285 0
	adrp	x1, .LC3
	mov	w0, 0
	add	x1, x1, :lo12:.LC3
	bl	dprint_linux_kernel
.LVL59:
	b	.L30
.LVL60:
.L47:
.LBE15:
.LBE25:
.LBB26:
.LBB22:
	.loc 1 434 0
	adrp	x19, .LANCHOR1
.LVL61:
	mov	w0, 0
	add	x19, x19, :lo12:.LANCHOR1
	ldr	x1, [x19,24]
	blr	x1
.LVL62:
	.loc 1 435 0
	mov	w0, w22
	mov	x1, x21
	bl	VCTRL_GetChanState
.LVL63:
	.loc 1 436 0
	ldr	x1, [x19,32]
	mov	w0, 0
	blr	x1
.LVL64:
.L60:
	mov	w0, 0
	b	.L37
.LVL65:
.L48:
	.loc 1 440 0
	adrp	x21, .LANCHOR1
.LVL66:
	mov	w0, 0
	add	x21, x21, :lo12:.LANCHOR1
	ldr	x1, [x21,24]
	blr	x1
.LVL67:
	.loc 1 441 0
	mov	w0, w22
	bl	VCTRL_StartChan
.LVL68:
.L104:
	.loc 1 466 0
	ldr	x1, [x21,32]
	.loc 1 465 0
	cmp	w0, wzr
	.loc 1 466 0
	mov	w0, 0
	.loc 1 465 0
	csetm	w22, ne
.LVL69:
	.loc 1 466 0
	blr	x1
.LVL70:
.L64:
.LBE22:
.LBE26:
	mov	w0, 0
	.loc 1 587 0
	cbnz	w22, .L70
	b	.L37
.LVL71:
.L49:
.LBB27:
.LBB23:
	.loc 1 447 0
	mov	w0, w22
	bl	VCTRL_StopChanWithCheck
.LVL72:
	.loc 1 448 0
	cbz	w0, .L60
	.loc 1 451 0
	adrp	x1, .LC12
	mov	w2, w22
	add	x1, x1, :lo12:.LC12
	mov	w0, 0
	bl	dprint_linux_kernel
.LVL73:
	b	.L70
.LVL74:
.L50:
	.loc 1 456 0
	adrp	x21, .LANCHOR1
.LVL75:
	mov	w0, 0
	add	x21, x21, :lo12:.LANCHOR1
	ldr	x1, [x21,24]
	blr	x1
.LVL76:
	.loc 1 457 0
	mov	w0, w22
	bl	VCTRL_ResetChan
.LVL77:
	b	.L104
.LVL78:
.L51:
	.loc 1 470 0
	adrp	x23, .LANCHOR1
	mov	w0, 0
	add	x23, x23, :lo12:.LANCHOR1
	ldr	x1, [x23,24]
	blr	x1
.LVL79:
	.loc 1 471 0
	mov	w0, w22
	mov	x1, x21
	bl	VCTRL_SetStreamInterface
.LVL80:
.L103:
	.loc 1 519 0
	ldr	x1, [x23,32]
	.loc 1 518 0
	cmp	w0, wzr
	.loc 1 519 0
	mov	w0, 0
	.loc 1 518 0
	csetm	w22, ne
.LVL81:
	.loc 1 519 0
	blr	x1
.LVL82:
	b	.L64
.LVL83:
.L52:
	.loc 1 477 0
	adrp	x19, .LANCHOR1
.LVL84:
	mov	w0, 0
	add	x19, x19, :lo12:.LANCHOR1
	ldr	x1, [x19,24]
	blr	x1
.LVL85:
	.loc 1 479 0
	str	w22, [x21]
	.loc 1 480 0
	adrp	x0, VCTRL_GetChanImage
	.loc 1 481 0
	adrp	x1, VCTRL_ReleaseChanImage
	.loc 1 480 0
	add	x0, x0, :lo12:VCTRL_GetChanImage
	.loc 1 481 0
	add	x1, x1, :lo12:VCTRL_ReleaseChanImage
	.loc 1 480 0
	str	x0, [x21,8]
	.loc 1 483 0
	mov	w0, 0
	.loc 1 481 0
	str	x1, [x21,16]
	.loc 1 483 0
	ldr	x1, [x19,32]
	blr	x1
.LVL86:
	mov	w0, 0
	b	.L37
.LVL87:
.L53:
	.loc 1 487 0
	mov	x0, x21
	bl	VDEC_GetHalMemSize
.LVL88:
	cbnz	w0, .L70
	mov	w0, 0
	b	.L37
.LVL89:
.L54:
	.loc 1 499 0
	adrp	x23, .LANCHOR1
	mov	w0, 0
	add	x1, x23, :lo12:.LANCHOR1
	.loc 1 510 0
	mov	w22, -1
.LVL90:
	.loc 1 499 0
	ldr	x1, [x1,24]
	blr	x1
.LVL91:
	.loc 1 500 0
	ldr	w0, [x21]
	add	x1, x29, 88
	add	x2, x29, 104
	bl	VCTRL_GetChanMemSize
.LVL92:
	cbnz	w0, .L67
.LBB20:
	.loc 1 503 0
	ldr	w0, [x29,104]
	.loc 1 506 0
	mov	w22, 0
	.loc 1 503 0
	ldr	w2, [x29,88]
	.loc 1 504 0
	ldr	w1, [x29,92]
	.loc 1 503 0
	add	w2, w2, w0
	.loc 1 504 0
	ldr	w0, [x29,108]
	.loc 1 503 0
	str	w2, [x21]
	.loc 1 504 0
	add	w1, w1, w0
	.loc 1 505 0
	ldr	w2, [x29,96]
	ldr	w0, [x29,112]
	.loc 1 504 0
	str	w1, [x21,4]
	.loc 1 505 0
	add	w0, w2, w0
	str	w0, [x21,8]
.L67:
.LBE20:
	.loc 1 512 0
	add	x23, x23, :lo12:.LANCHOR1
	mov	w0, 0
	ldr	x1, [x23,32]
	blr	x1
.LVL93:
	b	.L64
.LVL94:
.L43:
	.loc 1 407 0
	mov	w0, w22
	bl	VCTRL_DestroyChan
.LVL95:
	.loc 1 408 0
	cbnz	w0, .L70
	mov	w0, 0
	b	.L37
.LVL96:
.L44:
	.loc 1 412 0
	mov	w0, w22
	bl	VCTRL_DestroyChanWithOption
.LVL97:
	.loc 1 413 0
	cbnz	w0, .L70
	mov	w0, 0
	b	.L37
.LVL98:
.L45:
	.loc 1 417 0
	adrp	x23, .LANCHOR1
	mov	w0, 0
	add	x23, x23, :lo12:.LANCHOR1
	ldr	x1, [x23,24]
	blr	x1
.LVL99:
	.loc 1 418 0
	mov	w0, w22
	mov	x1, x21
	bl	VCTRL_GetChanCfg
.LVL100:
	b	.L103
.LVL101:
.L46:
	.loc 1 424 0
	adrp	x23, .LANCHOR1
	mov	w0, 0
	add	x23, x23, :lo12:.LANCHOR1
	ldr	x1, [x23,24]
	blr	x1
.LVL102:
	.loc 1 425 0
	mov	w0, w22
	mov	x1, x21
	bl	VCTRL_ConfigChan
.LVL103:
	b	.L103
.LVL104:
.L41:
	.loc 1 357 0
	mov	x1, x21
	ldr	w0, [x1],4
	bl	VCTRL_CreateChan
.LVL105:
	.loc 1 358 0
	tbnz	w0, #31, .L70
	.loc 1 377 0
	str	w0, [x21]
.L114:
	mov	w0, 0
	b	.L37
.LVL106:
.L42:
	.loc 1 373 0
	ldr	x1, [x21,8]
	mov	w2, 2
	ldr	w0, [x21]
	mov	w3, 0
.LVL107:
	bl	VCTRL_CreateChanWithOption
.LVL108:
	.loc 1 374 0
	tbnz	w0, #31, .L70
	.loc 1 377 0
	str	w0, [x21]
	b	.L114
.LVL109:
.L59:
	.loc 1 556 0
	adrp	x19, .LANCHOR1
.LVL110:
	mov	w0, 0
	add	x19, x19, :lo12:.LANCHOR1
	ldr	x1, [x19,24]
	blr	x1
.LVL111:
	.loc 1 557 0
	mov	w0, w22
	mov	w1, 2
	bl	VCTRL_SetChanFsPartitionState
.LVL112:
	.loc 1 558 0
	adrp	x1, .LC10
	mov	w0, 31
	add	x1, x1, :lo12:.LC10
	bl	dprint_linux_kernel
.LVL113:
	.loc 1 559 0
	ldr	x1, [x19,32]
	mov	w0, 0
	blr	x1
.LVL114:
	mov	w0, 0
	b	.L37
.LVL115:
.L55:
	.loc 1 389 0
	adrp	x23, .LANCHOR1
	.loc 1 388 0
	ldr	x1, [x21,8]
	.loc 1 389 0
	add	x2, x23, :lo12:.LANCHOR1
	mov	w0, 0
	.loc 1 388 0
	str	x1, [x29,72]
	.loc 1 401 0
	mov	w22, -1
.LVL116:
	.loc 1 389 0
	ldr	x2, [x2,24]
	blr	x2
.LVL117:
	.loc 1 390 0
	ldr	w0, [x21]
	add	x2, x29, 120
	ldr	x1, [x29,72]
	mov	w3, 1
	bl	VCTRL_GetChanMemSizeWithOption
.LVL118:
	.loc 1 391 0
	cbnz	w0, .L67
	.loc 1 394 0
	ldr	w0, [x29,120]
	.loc 1 397 0
	mov	w22, 0
	.loc 1 394 0
	str	w0, [x21]
	.loc 1 395 0
	ldr	w0, [x29,124]
	str	w0, [x21,4]
	.loc 1 396 0
	ldr	w0, [x29,128]
	str	w0, [x21,8]
	b	.L67
.LVL119:
.L56:
	.loc 1 463 0
	adrp	x21, .LANCHOR1
.LVL120:
	mov	w0, 0
	add	x21, x21, :lo12:.LANCHOR1
	ldr	x1, [x21,24]
	blr	x1
.LVL121:
	.loc 1 464 0
	mov	w0, w22
	bl	VCTRL_ReleaseStream
.LVL122:
	b	.L104
.LVL123:
.L57:
	.loc 1 516 0
	adrp	x23, .LANCHOR1
	mov	w0, 0
	add	x23, x23, :lo12:.LANCHOR1
	ldr	x1, [x23,24]
	blr	x1
.LVL124:
	.loc 1 517 0
	mov	w0, w22
	mov	x1, x21
	bl	VCTRL_ResetChanWithOption
.LVL125:
	b	.L103
.LVL126:
.L58:
	.loc 1 524 0
	mov	w1, 1
	mov	w0, w22
	bl	VCTRT_SetChanCtrlState
.LVL127:
	.loc 1 527 0
	adrp	x1, .LC7
	add	x1, x1, :lo12:.LC7
	.loc 1 525 0
	cbnz	w0, .L105
	.loc 1 533 0
	mov	w0, w22
	mov	x1, x21
	bl	VCTRL_SetFsParamToChan
.LVL128:
	.loc 1 534 0
	cbnz	w0, .L115
	.loc 1 543 0
	mov	w0, w22
	mov	w1, 0
	bl	VCTRT_SetChanCtrlState
.LVL129:
	.loc 1 544 0
	cbz	w0, .L60
	.loc 1 546 0
	adrp	x1, .LC9
	add	x1, x1, :lo12:.LC9
.L105:
	adrp	x2, .LANCHOR0
	mov	w0, 1
	add	x2, x2, :lo12:.LANCHOR0
	add	x2, x2, 40
	bl	dprint_linux_kernel
.LVL130:
	b	.L70
.LVL131:
.L39:
	.loc 1 350 0
	adrp	x19, .LANCHOR1
.LVL132:
	mov	w0, 0
	add	x19, x19, :lo12:.LANCHOR1
	ldr	x1, [x19,24]
	blr	x1
.LVL133:
	.loc 1 351 0
	mov	x0, x21
	bl	VCTRL_GetVdecCapability
.LVL134:
	.loc 1 352 0
	ldr	x1, [x19,32]
	mov	w0, 0
	blr	x1
.LVL135:
	mov	w0, 0
	b	.L37
.LVL136:
.L115:
	.loc 1 536 0
	adrp	x2, .LANCHOR0
	adrp	x1, .LC8
	add	x2, x2, :lo12:.LANCHOR0
	add	x1, x1, :lo12:.LC8
	add	x2, x2, 40
	mov	w0, 1
	bl	dprint_linux_kernel
.LVL137:
	.loc 1 537 0
	mov	w0, w22
	mov	w1, 0
	bl	VCTRT_SetChanCtrlState
.LVL138:
	b	.L70
.LVL139:
.L112:
.LBE23:
.LBE27:
	.loc 1 594 0
	bl	__stack_chk_fail
.LVL140:
	.cfi_endproc
.LFE2128:
	.size	VDEC_Control, .-VDEC_Control
	.align	2
	.global	VDEC_Suspend
	.type	VDEC_Suspend, %function
VDEC_Suspend:
.LFB2129:
	.loc 1 597 0
	.cfi_startproc
.LVL141:
	stp	x29, x30, [sp, -16]!
	.cfi_def_cfa_offset 16
	.cfi_offset 29, -16
	.cfi_offset 30, -8
	add	x29, sp, 0
	.cfi_def_cfa_register 29
	.loc 1 598 0
	bl	VCTRL_Suspend
.LVL142:
	.loc 1 599 0
	adrp	x1, .LC13
	mov	w0, 0
	add	x1, x1, :lo12:.LC13
	bl	dprint_linux_kernel
.LVL143:
	.loc 1 601 0
	mov	w0, 0
	ldp	x29, x30, [sp], 16
	.cfi_restore 30
	.cfi_restore 29
	.cfi_def_cfa 31, 0
	ret
	.cfi_endproc
.LFE2129:
	.size	VDEC_Suspend, .-VDEC_Suspend
	.align	2
	.global	VDEC_Resume
	.type	VDEC_Resume, %function
VDEC_Resume:
.LFB2130:
	.loc 1 604 0
	.cfi_startproc
.LVL144:
	stp	x29, x30, [sp, -16]!
	.cfi_def_cfa_offset 16
	.cfi_offset 29, -16
	.cfi_offset 30, -8
	add	x29, sp, 0
	.cfi_def_cfa_register 29
	.loc 1 605 0
	bl	VCTRL_Resume
.LVL145:
	.loc 1 606 0
	adrp	x1, .LC14
	mov	w0, 0
	add	x1, x1, :lo12:.LC14
	bl	dprint_linux_kernel
.LVL146:
	.loc 1 608 0
	mov	w0, 0
	ldp	x29, x30, [sp], 16
	.cfi_restore 30
	.cfi_restore 29
	.cfi_def_cfa 31, 0
	ret
	.cfi_endproc
.LFE2130:
	.size	VDEC_Resume, .-VDEC_Resume
	.global	g_vfmw_osal_fun_ptr
	.global	g_vdm_hal_fun_ptr
	.global	g_VfmwInitCount
	.global	g_VfmwEnableFlag
	.section	.rodata
	.align	3
.LANCHOR0 = . + 0
	.type	__func__.37268, %object
	.size	__func__.37268, 19
__func__.37268:
	.string	"VDEC_GetHalMemSize"
	.zero	5
	.type	__func__.37282, %object
	.size	__func__.37282, 10
__func__.37282:
	.string	"VDEC_Init"
	.zero	6
	.type	__func__.37349, %object
	.size	__func__.37349, 20
__func__.37349:
	.string	"VDEC_ProcessCommand"
	.section	.rodata.str1.8,"aMS",%progbits,1
	.align	3
.LC0:
	.string	"%s GetHalMemSize failed!\n"
	.zero	6
.LC1:
	.string	"VDEC_InitWithOperation has NULL parameter, error!\n"
	.zero	5
.LC2:
	.string	"%s: Dts data invalid!\n"
	.zero	1
.LC3:
	.string	"VFMW has been destroyed, so any operation is unuseful!\n"
.LC4:
	.string	"vfmw.c,L%d: pArgs is NULL!\n"
	.zero	4
.LC5:
	.string	"vfmw.c,L%d: unsupport cmd id %d\n"
	.zero	7
.LC6:
	.string	"VDEC_CheckParam failed! eCmdID = %d.\n"
	.zero	2
.LC7:
	.string	"%s set chan ctrl state CHAN_FRAME_STORE_ALLOC failed!\n"
	.zero	1
.LC8:
	.string	"%s set fs param to chan failed!\n"
	.zero	7
.LC9:
	.string	"%s set chan ctrl state CHAN_NORMAL failed!\n"
	.zero	4
.LC10:
	.string	"DFS, set decoding thread state to success!\n "
	.zero	3
.LC11:
	.string	"VDEC_ProcessCommand failed! eCmdID = %d.\n"
	.zero	6
.LC12:
	.string	"Stop chan %d failed!\n"
	.zero	2
.LC13:
	.string	"VDEC_Suspend OK !\n"
	.zero	5
.LC14:
	.string	"VDEC_Resume OK !\n"
	.bss
	.align	3
.LANCHOR1 = . + 0
	.type	g_vfmw_osal_fun_ptr, %object
	.size	g_vfmw_osal_fun_ptr, 224
g_vfmw_osal_fun_ptr:
	.zero	224
	.type	g_VfmwEnableFlag, %object
	.size	g_VfmwEnableFlag, 4
g_VfmwEnableFlag:
	.zero	4
	.type	g_VfmwInitCount, %object
	.size	g_VfmwInitCount, 4
g_VfmwInitCount:
	.zero	4
	.type	g_vdm_hal_fun_ptr, %object
	.size	g_vdm_hal_fun_ptr, 192
g_vdm_hal_fun_ptr:
	.zero	192
	.text
.Letext0:
	.file 2 "/home/jenkins/slave-135/workspace/chipset_component_CHICAGO_B100_Open_Source/component_code/vendor/huawei/extra/build/build_script/austin_kernel_release/kernel/drivers/vcodec/hi_vcodec/vdec/include/hi_type.h"
	.file 3 "/home/jenkins/slave-135/workspace/chipset_component_CHICAGO_B100_Open_Source/component_code/vendor/huawei/extra/build/build_script/austin_kernel_release/kernel/drivers/vcodec/hi_vcodec/vdec/vfmw/vfmw_v4.0/vfmw.h"
	.file 4 "/home/jenkins/slave-135/workspace/chipset_component_CHICAGO_B100_Open_Source/component_code/vendor/huawei/extra/build/build_script/austin_kernel_release/kernel/include/uapi/asm-generic/int-ll64.h"
	.file 5 "/home/jenkins/slave-135/workspace/chipset_component_CHICAGO_B100_Open_Source/component_code/vendor/huawei/extra/build/build_script/austin_kernel_release/kernel/include/asm-generic/int-ll64.h"
	.file 6 "/home/jenkins/slave-135/workspace/chipset_component_CHICAGO_B100_Open_Source/component_code/vendor/huawei/extra/build/build_script/austin_kernel_release/kernel/include/uapi/asm-generic/posix_types.h"
	.file 7 "/home/jenkins/slave-135/workspace/chipset_component_CHICAGO_B100_Open_Source/component_code/vendor/huawei/extra/build/build_script/austin_kernel_release/kernel/include/linux/export.h"
	.file 8 "/home/jenkins/slave-135/workspace/chipset_component_CHICAGO_B100_Open_Source/component_code/vendor/huawei/extra/build/build_script/austin_kernel_release/kernel/include/linux/types.h"
	.file 9 "/home/jenkins/slave-135/workspace/chipset_component_CHICAGO_B100_Open_Source/component_code/vendor/huawei/extra/build/build_script/austin_kernel_release/kernel/include/linux/thread_info.h"
	.file 10 "/home/jenkins/slave-135/workspace/chipset_component_CHICAGO_B100_Open_Source/component_code/vendor/huawei/extra/build/build_script/austin_kernel_release/kernel/include/uapi/linux/time.h"
	.file 11 "/home/jenkins/slave-135/workspace/chipset_component_CHICAGO_B100_Open_Source/component_code/vendor/huawei/extra/build/build_script/austin_kernel_release/kernel/arch/arm64/include/asm/compat.h"
	.file 12 "/home/jenkins/slave-135/workspace/chipset_component_CHICAGO_B100_Open_Source/component_code/vendor/huawei/extra/build/build_script/austin_kernel_release/kernel/include/uapi/asm-generic/poll.h"
	.file 13 "/home/jenkins/slave-135/workspace/chipset_component_CHICAGO_B100_Open_Source/component_code/vendor/huawei/extra/build/build_script/austin_kernel_release/kernel/include/linux/sched.h"
	.file 14 "/home/jenkins/slave-135/workspace/chipset_component_CHICAGO_B100_Open_Source/component_code/vendor/huawei/extra/build/build_script/austin_kernel_release/kernel/arch/arm64/include/uapi/asm/ptrace.h"
	.file 15 "/home/jenkins/slave-135/workspace/chipset_component_CHICAGO_B100_Open_Source/component_code/vendor/huawei/extra/build/build_script/austin_kernel_release/kernel/arch/arm64/include/asm/ptrace.h"
	.file 16 "/home/jenkins/slave-135/workspace/chipset_component_CHICAGO_B100_Open_Source/component_code/vendor/huawei/extra/build/build_script/austin_kernel_release/kernel/arch/arm64/include/asm/spinlock_types.h"
	.file 17 "/home/jenkins/slave-135/workspace/chipset_component_CHICAGO_B100_Open_Source/component_code/vendor/huawei/extra/build/build_script/austin_kernel_release/kernel/include/linux/spinlock_types.h"
	.file 18 "/home/jenkins/slave-135/workspace/chipset_component_CHICAGO_B100_Open_Source/component_code/vendor/huawei/extra/build/build_script/austin_kernel_release/kernel/include/linux/rwlock_types.h"
	.file 19 "/home/jenkins/slave-135/workspace/chipset_component_CHICAGO_B100_Open_Source/component_code/vendor/huawei/extra/build/build_script/austin_kernel_release/kernel/arch/arm64/include/asm/fpsimd.h"
	.file 20 "/home/jenkins/slave-135/workspace/chipset_component_CHICAGO_B100_Open_Source/component_code/vendor/huawei/extra/build/build_script/austin_kernel_release/kernel/arch/arm64/include/asm/hw_breakpoint.h"
	.file 21 "/home/jenkins/slave-135/workspace/chipset_component_CHICAGO_B100_Open_Source/component_code/vendor/huawei/extra/build/build_script/austin_kernel_release/kernel/arch/arm64/include/asm/processor.h"
	.file 22 "/home/jenkins/slave-135/workspace/chipset_component_CHICAGO_B100_Open_Source/component_code/vendor/huawei/extra/build/build_script/austin_kernel_release/kernel/include/linux/perf_event.h"
	.file 23 "/home/jenkins/slave-135/workspace/chipset_component_CHICAGO_B100_Open_Source/component_code/vendor/huawei/extra/build/build_script/austin_kernel_release/kernel/include/asm-generic/atomic-long.h"
	.file 24 "/home/jenkins/slave-135/workspace/chipset_component_CHICAGO_B100_Open_Source/component_code/vendor/huawei/extra/build/build_script/austin_kernel_release/kernel/include/linux/wait.h"
	.file 25 "/home/jenkins/slave-135/workspace/chipset_component_CHICAGO_B100_Open_Source/component_code/vendor/huawei/extra/build/build_script/austin_kernel_release/kernel/include/linux/seqlock.h"
	.file 26 "/home/jenkins/slave-135/workspace/chipset_component_CHICAGO_B100_Open_Source/component_code/vendor/huawei/extra/build/build_script/austin_kernel_release/kernel/include/linux/nodemask.h"
	.file 27 "/home/jenkins/slave-135/workspace/chipset_component_CHICAGO_B100_Open_Source/component_code/vendor/huawei/extra/build/build_script/austin_kernel_release/kernel/arch/arm64/include/asm/pgtable-types.h"
	.file 28 "/home/jenkins/slave-135/workspace/chipset_component_CHICAGO_B100_Open_Source/component_code/vendor/huawei/extra/build/build_script/austin_kernel_release/kernel/include/linux/mm_types.h"
	.file 29 "/home/jenkins/slave-135/workspace/chipset_component_CHICAGO_B100_Open_Source/component_code/vendor/huawei/extra/build/build_script/austin_kernel_release/kernel/include/linux/mmzone.h"
	.file 30 "/home/jenkins/slave-135/workspace/chipset_component_CHICAGO_B100_Open_Source/component_code/vendor/huawei/extra/build/build_script/austin_kernel_release/kernel/include/linux/osq_lock.h"
	.file 31 "/home/jenkins/slave-135/workspace/chipset_component_CHICAGO_B100_Open_Source/component_code/vendor/huawei/extra/build/build_script/austin_kernel_release/kernel/include/linux/mutex.h"
	.file 32 "/home/jenkins/slave-135/workspace/chipset_component_CHICAGO_B100_Open_Source/component_code/vendor/huawei/extra/build/build_script/austin_kernel_release/kernel/include/linux/rwsem.h"
	.file 33 "/home/jenkins/slave-135/workspace/chipset_component_CHICAGO_B100_Open_Source/component_code/vendor/huawei/extra/build/build_script/austin_kernel_release/kernel/include/linux/cpumask.h"
	.file 34 "/home/jenkins/slave-135/workspace/chipset_component_CHICAGO_B100_Open_Source/component_code/vendor/huawei/extra/build/build_script/austin_kernel_release/kernel/include/linux/completion.h"
	.file 35 "/home/jenkins/slave-135/workspace/chipset_component_CHICAGO_B100_Open_Source/component_code/vendor/huawei/extra/build/build_script/austin_kernel_release/kernel/include/linux/ktime.h"
	.file 36 "/home/jenkins/slave-135/workspace/chipset_component_CHICAGO_B100_Open_Source/component_code/vendor/huawei/extra/build/build_script/austin_kernel_release/kernel/include/linux/timer.h"
	.file 37 "/home/jenkins/slave-135/workspace/chipset_component_CHICAGO_B100_Open_Source/component_code/vendor/huawei/extra/build/build_script/austin_kernel_release/kernel/include/linux/workqueue.h"
	.file 38 "/home/jenkins/slave-135/workspace/chipset_component_CHICAGO_B100_Open_Source/component_code/vendor/huawei/extra/build/build_script/austin_kernel_release/kernel/include/linux/llist.h"
	.file 39 "/home/jenkins/slave-135/workspace/chipset_component_CHICAGO_B100_Open_Source/component_code/vendor/huawei/extra/build/build_script/austin_kernel_release/kernel/include/linux/percpu.h"
	.file 40 "/home/jenkins/slave-135/workspace/chipset_component_CHICAGO_B100_Open_Source/component_code/vendor/huawei/extra/build/build_script/austin_kernel_release/kernel/include/linux/rbtree.h"
	.file 41 "/home/jenkins/slave-135/workspace/chipset_component_CHICAGO_B100_Open_Source/component_code/vendor/huawei/extra/build/build_script/austin_kernel_release/kernel/include/linux/lockdep.h"
	.file 42 "/home/jenkins/slave-135/workspace/chipset_component_CHICAGO_B100_Open_Source/component_code/vendor/huawei/extra/build/build_script/austin_kernel_release/kernel/include/linux/uprobes.h"
	.file 43 "/home/jenkins/slave-135/workspace/chipset_component_CHICAGO_B100_Open_Source/component_code/vendor/huawei/extra/build/build_script/austin_kernel_release/kernel/arch/arm64/include/asm/mmu.h"
	.file 44 "/home/jenkins/slave-135/workspace/chipset_component_CHICAGO_B100_Open_Source/component_code/vendor/huawei/extra/build/build_script/austin_kernel_release/kernel/include/linux/fs.h"
	.file 45 "/home/jenkins/slave-135/workspace/chipset_component_CHICAGO_B100_Open_Source/component_code/vendor/huawei/extra/build/build_script/austin_kernel_release/kernel/include/linux/mm.h"
	.file 46 "/home/jenkins/slave-135/workspace/chipset_component_CHICAGO_B100_Open_Source/component_code/vendor/huawei/extra/build/build_script/austin_kernel_release/kernel/include/linux/shrinker.h"
	.file 47 "/home/jenkins/slave-135/workspace/chipset_component_CHICAGO_B100_Open_Source/component_code/vendor/huawei/extra/build/build_script/austin_kernel_release/kernel/include/uapi/linux/resource.h"
	.file 48 "/home/jenkins/slave-135/workspace/chipset_component_CHICAGO_B100_Open_Source/component_code/vendor/huawei/extra/build/build_script/austin_kernel_release/kernel/include/linux/vm_event_item.h"
	.file 49 "/home/jenkins/slave-135/workspace/chipset_component_CHICAGO_B100_Open_Source/component_code/vendor/huawei/extra/build/build_script/austin_kernel_release/kernel/include/linux/vmstat.h"
	.file 50 "/home/jenkins/slave-135/workspace/chipset_component_CHICAGO_B100_Open_Source/component_code/vendor/huawei/extra/build/build_script/austin_kernel_release/kernel/include/linux/capability.h"
	.file 51 "/home/jenkins/slave-135/workspace/chipset_component_CHICAGO_B100_Open_Source/component_code/vendor/huawei/extra/build/build_script/austin_kernel_release/kernel/include/linux/plist.h"
	.file 52 "/home/jenkins/slave-135/workspace/chipset_component_CHICAGO_B100_Open_Source/component_code/vendor/huawei/extra/build/build_script/austin_kernel_release/kernel/include/asm-generic/cputime_jiffies.h"
	.file 53 "/home/jenkins/slave-135/workspace/chipset_component_CHICAGO_B100_Open_Source/component_code/vendor/huawei/extra/build/build_script/austin_kernel_release/kernel/include/linux/uidgid.h"
	.file 54 "/home/jenkins/slave-135/workspace/chipset_component_CHICAGO_B100_Open_Source/component_code/vendor/huawei/extra/build/build_script/austin_kernel_release/kernel/include/linux/sem.h"
	.file 55 "/home/jenkins/slave-135/workspace/chipset_component_CHICAGO_B100_Open_Source/component_code/vendor/huawei/extra/build/build_script/austin_kernel_release/kernel/include/linux/shm.h"
	.file 56 "/home/jenkins/slave-135/workspace/chipset_component_CHICAGO_B100_Open_Source/component_code/vendor/huawei/extra/build/build_script/austin_kernel_release/kernel/include/uapi/asm-generic/signal.h"
	.file 57 "/home/jenkins/slave-135/workspace/chipset_component_CHICAGO_B100_Open_Source/component_code/vendor/huawei/extra/build/build_script/austin_kernel_release/kernel/include/uapi/asm-generic/signal-defs.h"
	.file 58 "/home/jenkins/slave-135/workspace/chipset_component_CHICAGO_B100_Open_Source/component_code/vendor/huawei/extra/build/build_script/austin_kernel_release/kernel/include/uapi/asm-generic/siginfo.h"
	.file 59 "/home/jenkins/slave-135/workspace/chipset_component_CHICAGO_B100_Open_Source/component_code/vendor/huawei/extra/build/build_script/austin_kernel_release/kernel/include/linux/signal.h"
	.file 60 "/home/jenkins/slave-135/workspace/chipset_component_CHICAGO_B100_Open_Source/component_code/vendor/huawei/extra/build/build_script/austin_kernel_release/kernel/include/linux/pid.h"
	.file 61 "/home/jenkins/slave-135/workspace/chipset_component_CHICAGO_B100_Open_Source/component_code/vendor/huawei/extra/build/build_script/austin_kernel_release/kernel/include/linux/pid_namespace.h"
	.file 62 "/home/jenkins/slave-135/workspace/chipset_component_CHICAGO_B100_Open_Source/component_code/vendor/huawei/extra/build/build_script/austin_kernel_release/kernel/include/linux/percpu_counter.h"
	.file 63 "/home/jenkins/slave-135/workspace/chipset_component_CHICAGO_B100_Open_Source/component_code/vendor/huawei/extra/build/build_script/austin_kernel_release/kernel/include/linux/seccomp.h"
	.file 64 "/home/jenkins/slave-135/workspace/chipset_component_CHICAGO_B100_Open_Source/component_code/vendor/huawei/extra/build/build_script/austin_kernel_release/kernel/include/linux/timerqueue.h"
	.file 65 "/home/jenkins/slave-135/workspace/chipset_component_CHICAGO_B100_Open_Source/component_code/vendor/huawei/extra/build/build_script/austin_kernel_release/kernel/include/linux/hrtimer.h"
	.file 66 "/home/jenkins/slave-135/workspace/chipset_component_CHICAGO_B100_Open_Source/component_code/vendor/huawei/extra/build/build_script/austin_kernel_release/kernel/include/linux/task_io_accounting.h"
	.file 67 "/home/jenkins/slave-135/workspace/chipset_component_CHICAGO_B100_Open_Source/component_code/vendor/huawei/extra/build/build_script/austin_kernel_release/kernel/include/linux/nsproxy.h"
	.file 68 "/home/jenkins/slave-135/workspace/chipset_component_CHICAGO_B100_Open_Source/component_code/vendor/huawei/extra/build/build_script/austin_kernel_release/kernel/include/linux/assoc_array.h"
	.file 69 "/home/jenkins/slave-135/workspace/chipset_component_CHICAGO_B100_Open_Source/component_code/vendor/huawei/extra/build/build_script/austin_kernel_release/kernel/include/linux/key.h"
	.file 70 "/home/jenkins/slave-135/workspace/chipset_component_CHICAGO_B100_Open_Source/component_code/vendor/huawei/extra/build/build_script/austin_kernel_release/kernel/include/linux/cred.h"
	.file 71 "/home/jenkins/slave-135/workspace/chipset_component_CHICAGO_B100_Open_Source/component_code/vendor/huawei/extra/build/build_script/austin_kernel_release/kernel/include/uapi/linux/taskstats.h"
	.file 72 "/home/jenkins/slave-135/workspace/chipset_component_CHICAGO_B100_Open_Source/component_code/vendor/huawei/extra/build/build_script/austin_kernel_release/kernel/include/linux/cgroup-defs.h"
	.file 73 "/home/jenkins/slave-135/workspace/chipset_component_CHICAGO_B100_Open_Source/component_code/vendor/huawei/extra/build/build_script/austin_kernel_release/kernel/include/linux/compat.h"
	.file 74 "/home/jenkins/slave-135/workspace/chipset_component_CHICAGO_B100_Open_Source/component_code/vendor/huawei/extra/build/build_script/austin_kernel_release/kernel/include/linux/kref.h"
	.file 75 "/home/jenkins/slave-135/workspace/chipset_component_CHICAGO_B100_Open_Source/component_code/vendor/huawei/extra/build/build_script/austin_kernel_release/kernel/include/linux/ns_common.h"
	.file 76 "/home/jenkins/slave-135/workspace/chipset_component_CHICAGO_B100_Open_Source/component_code/vendor/huawei/extra/build/build_script/austin_kernel_release/kernel/include/linux/dcache.h"
	.file 77 "/home/jenkins/slave-135/workspace/chipset_component_CHICAGO_B100_Open_Source/component_code/vendor/huawei/extra/build/build_script/austin_kernel_release/kernel/include/linux/stat.h"
	.file 78 "/home/jenkins/slave-135/workspace/chipset_component_CHICAGO_B100_Open_Source/component_code/vendor/huawei/extra/build/build_script/austin_kernel_release/kernel/include/uapi/linux/elf.h"
	.file 79 "/home/jenkins/slave-135/workspace/chipset_component_CHICAGO_B100_Open_Source/component_code/vendor/huawei/extra/build/build_script/austin_kernel_release/kernel/include/linux/idr.h"
	.file 80 "/home/jenkins/slave-135/workspace/chipset_component_CHICAGO_B100_Open_Source/component_code/vendor/huawei/extra/build/build_script/austin_kernel_release/kernel/include/linux/kernfs.h"
	.file 81 "/home/jenkins/slave-135/workspace/chipset_component_CHICAGO_B100_Open_Source/component_code/vendor/huawei/extra/build/build_script/austin_kernel_release/kernel/include/linux/seq_file.h"
	.file 82 "/home/jenkins/slave-135/workspace/chipset_component_CHICAGO_B100_Open_Source/component_code/vendor/huawei/extra/build/build_script/austin_kernel_release/kernel/include/linux/kobject_ns.h"
	.file 83 "/home/jenkins/slave-135/workspace/chipset_component_CHICAGO_B100_Open_Source/component_code/vendor/huawei/extra/build/build_script/austin_kernel_release/kernel/include/linux/sysfs.h"
	.file 84 "/home/jenkins/slave-135/workspace/chipset_component_CHICAGO_B100_Open_Source/component_code/vendor/huawei/extra/build/build_script/austin_kernel_release/kernel/include/linux/kobject.h"
	.file 85 "/home/jenkins/slave-135/workspace/chipset_component_CHICAGO_B100_Open_Source/component_code/vendor/huawei/extra/build/build_script/austin_kernel_release/kernel/include/linux/moduleparam.h"
	.file 86 "/home/jenkins/slave-135/workspace/chipset_component_CHICAGO_B100_Open_Source/component_code/vendor/huawei/extra/build/build_script/austin_kernel_release/kernel/include/linux/jump_label.h"
	.file 87 "/home/jenkins/slave-135/workspace/chipset_component_CHICAGO_B100_Open_Source/component_code/vendor/huawei/extra/build/build_script/austin_kernel_release/kernel/include/asm-generic/module.h"
	.file 88 "/home/jenkins/slave-135/workspace/chipset_component_CHICAGO_B100_Open_Source/component_code/vendor/huawei/extra/build/build_script/austin_kernel_release/kernel/include/linux/module.h"
	.file 89 "/home/jenkins/slave-135/workspace/chipset_component_CHICAGO_B100_Open_Source/component_code/vendor/huawei/extra/build/build_script/austin_kernel_release/kernel/arch/arm64/include/asm/uaccess.h"
	.file 90 "/home/jenkins/slave-135/workspace/chipset_component_CHICAGO_B100_Open_Source/component_code/vendor/huawei/extra/build/build_script/austin_kernel_release/kernel/include/linux/tracepoint.h"
	.file 91 "/home/jenkins/slave-135/workspace/chipset_component_CHICAGO_B100_Open_Source/component_code/vendor/huawei/extra/build/build_script/austin_kernel_release/kernel/include/linux/ftrace_event.h"
	.file 92 "/home/jenkins/slave-135/workspace/chipset_component_CHICAGO_B100_Open_Source/component_code/vendor/huawei/extra/build/build_script/austin_kernel_release/kernel/include/linux/quota.h"
	.file 93 "/home/jenkins/slave-135/workspace/chipset_component_CHICAGO_B100_Open_Source/component_code/vendor/huawei/extra/build/build_script/austin_kernel_release/kernel/include/linux/projid.h"
	.file 94 "/home/jenkins/slave-135/workspace/chipset_component_CHICAGO_B100_Open_Source/component_code/vendor/huawei/extra/build/build_script/austin_kernel_release/kernel/include/uapi/linux/quota.h"
	.file 95 "/home/jenkins/slave-135/workspace/chipset_component_CHICAGO_B100_Open_Source/component_code/vendor/huawei/extra/build/build_script/austin_kernel_release/kernel/include/linux/path.h"
	.file 96 "/home/jenkins/slave-135/workspace/chipset_component_CHICAGO_B100_Open_Source/component_code/vendor/huawei/extra/build/build_script/austin_kernel_release/kernel/include/linux/list_bl.h"
	.file 97 "/home/jenkins/slave-135/workspace/chipset_component_CHICAGO_B100_Open_Source/component_code/vendor/huawei/extra/build/build_script/austin_kernel_release/kernel/include/linux/lockref.h"
	.file 98 "/home/jenkins/slave-135/workspace/chipset_component_CHICAGO_B100_Open_Source/component_code/vendor/huawei/extra/build/build_script/austin_kernel_release/kernel/include/linux/list_lru.h"
	.file 99 "/home/jenkins/slave-135/workspace/chipset_component_CHICAGO_B100_Open_Source/component_code/vendor/huawei/extra/build/build_script/austin_kernel_release/kernel/include/linux/radix-tree.h"
	.file 100 "/home/jenkins/slave-135/workspace/chipset_component_CHICAGO_B100_Open_Source/component_code/vendor/huawei/extra/build/build_script/austin_kernel_release/kernel/include/uapi/linux/fiemap.h"
	.file 101 "/home/jenkins/slave-135/workspace/chipset_component_CHICAGO_B100_Open_Source/component_code/vendor/huawei/extra/build/build_script/austin_kernel_release/kernel/include/linux/migrate_mode.h"
	.file 102 "/home/jenkins/slave-135/workspace/chipset_component_CHICAGO_B100_Open_Source/component_code/vendor/huawei/extra/build/build_script/austin_kernel_release/kernel/include/linux/blk_types.h"
	.file 103 "/home/jenkins/slave-135/workspace/chipset_component_CHICAGO_B100_Open_Source/component_code/vendor/huawei/extra/build/build_script/austin_kernel_release/kernel/include/linux/uio.h"
	.file 104 "/home/jenkins/slave-135/workspace/chipset_component_CHICAGO_B100_Open_Source/component_code/vendor/huawei/extra/build/build_script/austin_kernel_release/kernel/include/linux/nfs_fs_i.h"
	.file 105 "/home/jenkins/slave-135/workspace/chipset_component_CHICAGO_B100_Open_Source/component_code/vendor/huawei/extra/build/build_script/austin_kernel_release/kernel/include/linux/poll.h"
	.file 106 "/home/jenkins/slave-135/workspace/chipset_component_CHICAGO_B100_Open_Source/component_code/vendor/huawei/extra/build/build_script/austin_kernel_release/kernel/include/linux/seq_buf.h"
	.file 107 "/home/jenkins/slave-135/workspace/chipset_component_CHICAGO_B100_Open_Source/component_code/vendor/huawei/extra/build/build_script/austin_kernel_release/kernel/include/linux/trace_seq.h"
	.file 108 "/home/jenkins/slave-135/workspace/chipset_component_CHICAGO_B100_Open_Source/component_code/vendor/huawei/extra/build/build_script/austin_kernel_release/kernel/include/uapi/linux/perf_event.h"
	.file 109 "/home/jenkins/slave-135/workspace/chipset_component_CHICAGO_B100_Open_Source/component_code/vendor/huawei/extra/build/build_script/austin_kernel_release/kernel/include/asm-generic/local.h"
	.file 110 "/home/jenkins/slave-135/workspace/chipset_component_CHICAGO_B100_Open_Source/component_code/vendor/huawei/extra/build/build_script/austin_kernel_release/kernel/include/asm-generic/local64.h"
	.file 111 "/home/jenkins/slave-135/workspace/chipset_component_CHICAGO_B100_Open_Source/component_code/vendor/huawei/extra/build/build_script/austin_kernel_release/kernel/include/uapi/linux/uio.h"
	.file 112 "/home/jenkins/slave-135/workspace/chipset_component_CHICAGO_B100_Open_Source/component_code/vendor/huawei/extra/build/build_script/austin_kernel_release/kernel/include/linux/ftrace.h"
	.file 113 "/home/jenkins/slave-135/workspace/chipset_component_CHICAGO_B100_Open_Source/component_code/vendor/huawei/extra/build/build_script/austin_kernel_release/kernel/include/linux/klist.h"
	.file 114 "/home/jenkins/slave-135/workspace/chipset_component_CHICAGO_B100_Open_Source/component_code/vendor/huawei/extra/build/build_script/austin_kernel_release/kernel/include/linux/pinctrl/devinfo.h"
	.file 115 "/home/jenkins/slave-135/workspace/chipset_component_CHICAGO_B100_Open_Source/component_code/vendor/huawei/extra/build/build_script/austin_kernel_release/kernel/include/linux/pm.h"
	.file 116 "/home/jenkins/slave-135/workspace/chipset_component_CHICAGO_B100_Open_Source/component_code/vendor/huawei/extra/build/build_script/austin_kernel_release/kernel/include/linux/device.h"
	.file 117 "/home/jenkins/slave-135/workspace/chipset_component_CHICAGO_B100_Open_Source/component_code/vendor/huawei/extra/build/build_script/austin_kernel_release/kernel/include/linux/pm_wakeup.h"
	.file 118 "/home/jenkins/slave-135/workspace/chipset_component_CHICAGO_B100_Open_Source/component_code/vendor/huawei/extra/build/build_script/austin_kernel_release/kernel/arch/arm64/include/asm/device.h"
	.file 119 "/home/jenkins/slave-135/workspace/chipset_component_CHICAGO_B100_Open_Source/component_code/vendor/huawei/extra/build/build_script/austin_kernel_release/kernel/include/linux/irq_work.h"
	.file 120 "/home/jenkins/slave-135/workspace/chipset_component_CHICAGO_B100_Open_Source/component_code/vendor/huawei/extra/build/build_script/austin_kernel_release/kernel/include/linux/jump_label_ratelimit.h"
	.file 121 "/home/jenkins/slave-135/workspace/chipset_component_CHICAGO_B100_Open_Source/component_code/vendor/huawei/extra/build/build_script/austin_kernel_release/kernel/include/linux/perf_regs.h"
	.file 122 "/home/jenkins/slave-135/workspace/chipset_component_CHICAGO_B100_Open_Source/component_code/vendor/huawei/extra/build/build_script/austin_kernel_release/kernel/include/linux/percpu-refcount.h"
	.file 123 "/home/jenkins/slave-135/workspace/chipset_component_CHICAGO_B100_Open_Source/component_code/vendor/huawei/extra/build/build_script/austin_kernel_release/kernel/include/linux/interrupt.h"
	.file 124 "/home/jenkins/slave-135/workspace/chipset_component_CHICAGO_B100_Open_Source/component_code/vendor/huawei/extra/build/build_script/austin_kernel_release/kernel/drivers/vcodec/hi_vcodec/vdec/vfmw/vfmw_v4.0/firmware/osal/vfmw_osal_ext.h"
	.file 125 "/home/jenkins/slave-135/workspace/chipset_component_CHICAGO_B100_Open_Source/component_code/vendor/huawei/extra/build/build_script/austin_kernel_release/kernel/drivers/vcodec/hi_vcodec/vdec/vfmw/vfmw_v4.0/firmware/common/vdm_drv.h"
	.file 126 "/home/jenkins/slave-135/workspace/chipset_component_CHICAGO_B100_Open_Source/component_code/vendor/huawei/extra/build/build_script/austin_kernel_release/kernel/drivers/vcodec/hi_vcodec/vdec/vfmw/vfmw_v4.0/firmware/common/vdm_hal.h"
	.file 127 "/home/jenkins/slave-135/workspace/chipset_component_CHICAGO_B100_Open_Source/component_code/vendor/huawei/extra/build/build_script/austin_kernel_release/kernel/drivers/vcodec/hi_vcodec/vdec/vfmw/vfmw_v4.0/firmware/common/public.h"
	.file 128 "/home/jenkins/slave-135/workspace/chipset_component_CHICAGO_B100_Open_Source/component_code/vendor/huawei/extra/build/build_script/austin_kernel_release/kernel/drivers/vcodec/hi_vcodec/vdec/vfmw/vfmw_v4.0/firmware/common/fsp.h"
	.file 129 "/home/jenkins/slave-135/workspace/chipset_component_CHICAGO_B100_Open_Source/component_code/vendor/huawei/extra/build/build_script/austin_kernel_release/kernel/drivers/vcodec/hi_vcodec/vdec/vfmw/vfmw_v4.0/firmware/common/syntax/hevc.h"
	.file 130 "/home/jenkins/slave-135/workspace/chipset_component_CHICAGO_B100_Open_Source/component_code/vendor/huawei/extra/build/build_script/austin_kernel_release/kernel/drivers/vcodec/hi_vcodec/vdec/vfmw/vfmw_v4.0/firmware/common/syntax/vp8.h"
	.file 131 "/home/jenkins/slave-135/workspace/chipset_component_CHICAGO_B100_Open_Source/component_code/vendor/huawei/extra/build/build_script/austin_kernel_release/kernel/drivers/vcodec/hi_vcodec/vdec/vfmw/vfmw_v4.0/firmware/common/vfmw_ctrl.h"
	.file 132 "/home/jenkins/slave-135/workspace/chipset_component_CHICAGO_B100_Open_Source/component_code/vendor/huawei/extra/build/build_script/austin_kernel_release/kernel/arch/arm64/include/asm/cachetype.h"
	.file 133 "/home/jenkins/slave-135/workspace/chipset_component_CHICAGO_B100_Open_Source/component_code/vendor/huawei/extra/build/build_script/austin_kernel_release/kernel/include/linux/printk.h"
	.file 134 "/home/jenkins/slave-135/workspace/chipset_component_CHICAGO_B100_Open_Source/component_code/vendor/huawei/extra/build/build_script/austin_kernel_release/kernel/include/linux/kernel.h"
	.file 135 "/home/jenkins/slave-135/workspace/chipset_component_CHICAGO_B100_Open_Source/component_code/vendor/huawei/extra/build/build_script/austin_kernel_release/kernel/arch/arm64/include/asm/thread_info.h"
	.file 136 "/home/jenkins/slave-135/workspace/chipset_component_CHICAGO_B100_Open_Source/component_code/vendor/huawei/extra/build/build_script/austin_kernel_release/kernel/include/chipset_common/kernel_harden/kaslr.h"
	.file 137 "/home/jenkins/slave-135/workspace/chipset_component_CHICAGO_B100_Open_Source/component_code/vendor/huawei/extra/build/build_script/austin_kernel_release/kernel/arch/arm64/include/asm/hwcap.h"
	.file 138 "/home/jenkins/slave-135/workspace/chipset_component_CHICAGO_B100_Open_Source/component_code/vendor/huawei/extra/build/build_script/austin_kernel_release/kernel/arch/arm64/include/asm/memory.h"
	.file 139 "/home/jenkins/slave-135/workspace/chipset_component_CHICAGO_B100_Open_Source/component_code/vendor/huawei/extra/build/build_script/austin_kernel_release/kernel/include/linux/jiffies.h"
	.file 140 "/home/jenkins/slave-135/workspace/chipset_component_CHICAGO_B100_Open_Source/component_code/vendor/huawei/extra/build/build_script/austin_kernel_release/kernel/arch/arm64/include/asm/smp.h"
	.file 141 "/home/jenkins/slave-135/workspace/chipset_component_CHICAGO_B100_Open_Source/component_code/vendor/huawei/extra/build/build_script/austin_kernel_release/kernel/include/asm-generic/percpu.h"
	.file 142 "/home/jenkins/slave-135/workspace/chipset_component_CHICAGO_B100_Open_Source/component_code/vendor/huawei/extra/build/build_script/austin_kernel_release/kernel/include/linux/debug_locks.h"
	.file 143 "/home/jenkins/slave-135/workspace/chipset_component_CHICAGO_B100_Open_Source/component_code/vendor/huawei/extra/build/build_script/austin_kernel_release/kernel/include/asm-generic/pgtable.h"
	.file 144 "/home/jenkins/slave-135/workspace/chipset_component_CHICAGO_B100_Open_Source/component_code/vendor/huawei/extra/build/build_script/austin_kernel_release/kernel/include/linux/highuid.h"
	.file 145 "/home/jenkins/slave-135/workspace/chipset_component_CHICAGO_B100_Open_Source/component_code/vendor/huawei/extra/build/build_script/austin_kernel_release/kernel/arch/arm64/include/asm/cpufeature.h"
	.file 146 "/home/jenkins/slave-135/workspace/chipset_component_CHICAGO_B100_Open_Source/component_code/vendor/huawei/extra/build/build_script/austin_kernel_release/kernel/arch/arm64/include/asm/hardirq.h"
	.file 147 "/home/jenkins/slave-135/workspace/chipset_component_CHICAGO_B100_Open_Source/component_code/vendor/huawei/extra/build/build_script/austin_kernel_release/kernel/include/linux/cgroup.h"
	.file 148 "/home/jenkins/slave-135/workspace/chipset_component_CHICAGO_B100_Open_Source/component_code/vendor/huawei/extra/build/build_script/austin_kernel_release/kernel/include/linux/slab.h"
	.file 149 "/home/jenkins/slave-135/workspace/chipset_component_CHICAGO_B100_Open_Source/component_code/vendor/huawei/extra/build/build_script/austin_kernel_release/kernel/drivers/vcodec/hi_vcodec/vdec/vfmw/vfmw_v4.0/firmware/driver/HiVDHV400R004/vdm_hal_api.h"
	.file 150 "/home/jenkins/slave-135/workspace/chipset_component_CHICAGO_B100_Open_Source/component_code/vendor/huawei/extra/build/build_script/austin_kernel_release/kernel/drivers/vcodec/hi_vcodec/vdec/vfmw/vfmw_v4.0/scene/kirin/vfmw_dts.h"
	.file 151 "/home/jenkins/slave-135/workspace/chipset_component_CHICAGO_B100_Open_Source/component_code/vendor/huawei/extra/build/build_script/austin_kernel_release/kernel/drivers/vcodec/hi_vcodec/vdec/vfmw/vfmw_v4.0/firmware/common/mem_manage.h"
	.file 152 "/home/jenkins/slave-135/workspace/chipset_component_CHICAGO_B100_Open_Source/component_code/vendor/huawei/extra/build/build_script/austin_kernel_release/kernel/drivers/vcodec/hi_vcodec/vdec/vfmw/vfmw_v4.0/firmware/osal/linux_kernel/linux_kernel_osal.h"
	.section	.note.GNU-stack,"",%progbits
